 eqmap

 Timestamp is 52786e15 (Mon Nov 04 22:03:33 2013)

 Preferred load address is 00400000

 Start         Length     Name                   Class
 0001:00000000 00018040H .text                   CODE
 0001:00018040 0000213bH .text$x                 CODE
 0001:0001a180 00000187H .text$yc                CODE
 0001:0001a310 000003a5H .text$yd                CODE
 0002:00000000 000003b8H .idata$5                DATA
 0002:000003b8 00000004H .CRT$XCA                DATA
 0002:000003bc 00000004H .CRT$XCAA               DATA
 0002:000003c0 00000004H .CRT$XCL                DATA
 0002:000003c4 00000040H .CRT$XCU                DATA
 0002:00000404 00000004H .CRT$XCZ                DATA
 0002:00000408 00000004H .CRT$XIA                DATA
 0002:0000040c 00000004H .CRT$XIAA               DATA
 0002:00000410 00000004H .CRT$XIC                DATA
 0002:00000414 00000004H .CRT$XIY                DATA
 0002:00000418 00000004H .CRT$XIZ                DATA
 0002:00000420 00002a48H .rdata                  DATA
 0002:00002e68 00000054H .rdata$debug            DATA
 0002:00002ebc 00000ebcH .rdata$r                DATA
 0002:00003d80 000001ecH .rdata$sxdata           DATA
 0002:00003f6c 00000004H .rtc$IAA                DATA
 0002:00003f70 00000004H .rtc$IZZ                DATA
 0002:00003f74 00000004H .rtc$TAA                DATA
 0002:00003f78 00000004H .rtc$TZZ                DATA
 0002:00003f80 00002680H .xdata$x                DATA
 0002:00006600 000000a0H .idata$2                DATA
 0002:000066a0 00000014H .idata$3                DATA
 0002:000066b4 000003b8H .idata$4                DATA
 0002:00006a6c 00001d3aH .idata$6                DATA
 0002:000087a6 00000000H .edata                  DATA
 0003:00000000 00000d20H .data                   DATA
 0003:00000d20 00000450H .bss                    DATA
 0004:00000000 00000058H .rsrc$01                DATA
 0004:00000060 00000180H .rsrc$02                DATA

  Address         Publics by Value              Rva+Base       Lib:Object

 0000:00000000       __except_list              00000000     <absolute>
 0000:0000007b       ___safe_se_handler_count   0000007b     <absolute>
 0000:00009876       __fltused                  00009876     <absolute>
 0000:00009876       __ldused                   00009876     <absolute>
 0000:00000000       ___ImageBase               00400000     <linker-defined>
 0001:00000000       _fabsf                     00401000 f i eqmap.obj
 0001:00000020       ??1?$_Deque_iterator@V?$_Deque_val@U?$_Deque_simple_types@D@std@@@std@@@std@@QAE@XZ 00401020 f i eqmap.obj
 0001:00000020       ??3@YAXPAX0@Z              00401020 f i eqmap.obj
 0001:00000030       ?compare@?$char_traits@D@std@@SAHPBD0I@Z 00401030 f i eqmap.obj
 0001:00000090       ?copy@?$char_traits@D@std@@SAPADPADPBDI@Z 00401090 f i eqmap.obj
 0001:000000b0       ?move@?$char_traits@D@std@@SAPADPADPBDI@Z 004010b0 f i eqmap.obj
 0001:000000d0       ?assign@?$char_traits@D@std@@SAXAADABD@Z 004010d0 f i eqmap.obj
 0001:000000e0       ??_Eruntime_error@std@@UAEPAXI@Z 004010e0 f i * CIL library *:* CIL module *
 0001:000000e0       ??_Gruntime_error@std@@UAEPAXI@Z 004010e0 f i eqmap.obj
 0001:000000e0       ??_Gbad_function_call@boost@@UAEPAXI@Z 004010e0 f i eqmap.obj
 0001:000000e0       ??_Ebad_function_call@boost@@UAEPAXI@Z 004010e0 f i * CIL library *:* CIL module *
 0001:00000110       ??0runtime_error@std@@QAE@ABV01@@Z 00401110 f i eqmap.obj
 0001:00000130       ??1?$stream_translator@DU?$char_traits@D@std@@V?$allocator@D@2@H@property_tree@boost@@QAE@XZ 00401130 f i eqmap.obj
 0001:00000130       ??1?$stream_translator@DU?$char_traits@D@std@@V?$allocator@D@2@_N@property_tree@boost@@QAE@XZ 00401130 f i eqmap.obj
 0001:00000130       ??1locale@std@@QAE@XZ      00401130 f i eqmap.obj
 0001:00000150       ?name@locale@std@@QBE?AV?$basic_string@DU?$char_traits@D@std@@V?$allocator@D@2@@2@XZ 00401150 f i eqmap.obj
 0001:000002b0       ??8locale@std@@QBE_NABV01@@Z 004012b0 f i eqmap.obj
 0001:00000440       ??_E_System_error_category@std@@UAEPAXI@Z 00401440 f i * CIL library *:* CIL module *
 0001:00000440       ??_G_Generic_error_category@std@@UAEPAXI@Z 00401440 f i eqmap.obj
 0001:00000440       ??_E_Iostream_error_category@std@@UAEPAXI@Z 00401440 f i * CIL library *:* CIL module *
 0001:00000440       ??_G_Iostream_error_category@std@@UAEPAXI@Z 00401440 f i eqmap.obj
 0001:00000440       ??_Eerror_category@std@@UAEPAXI@Z 00401440 f i * CIL library *:* CIL module *
 0001:00000440       ??_G_System_error_category@std@@UAEPAXI@Z 00401440 f i eqmap.obj
 0001:00000440       ??_Gerror_category@std@@UAEPAXI@Z 00401440 f i eqmap.obj
 0001:00000440       ??_E_Generic_error_category@std@@UAEPAXI@Z 00401440 f i * CIL library *:* CIL module *
 0001:00000470       ?default_error_condition@error_category@std@@UBE?AVerror_condition@2@H@Z 00401470 f i eqmap.obj
 0001:00000490       ?equivalent@error_category@std@@UBE_NHABVerror_condition@2@@Z 00401490 f i eqmap.obj
 0001:000004d0       ?equivalent@error_category@std@@UBE_NABVerror_code@2@H@Z 004014d0 f i eqmap.obj
 0001:000004f0       ?name@_Generic_error_category@std@@UBEPBDXZ 004014f0 f i eqmap.obj
 0001:00000500       ?message@_Generic_error_category@std@@UBE?AV?$basic_string@DU?$char_traits@D@std@@V?$allocator@D@2@@2@H@Z 00401500 f i eqmap.obj
 0001:00000580       ?name@_Iostream_error_category@std@@UBEPBDXZ 00401580 f i eqmap.obj
 0001:00000590       ?message@_Iostream_error_category@std@@UBE?AV?$basic_string@DU?$char_traits@D@std@@V?$allocator@D@2@@2@H@Z 00401590 f i eqmap.obj
 0001:000005e0       ?name@_System_error_category@std@@UBEPBDXZ 004015e0 f i eqmap.obj
 0001:000005f0       ?message@_System_error_category@std@@UBE?AV?$basic_string@DU?$char_traits@D@std@@V?$allocator@D@2@@2@H@Z 004015f0 f i eqmap.obj
 0001:00000670       ?default_error_condition@_System_error_category@std@@UBE?AVerror_condition@2@H@Z 00401670 f i eqmap.obj
 0001:000006b0       ?fixed@std@@YAAAVios_base@1@AAV21@@Z 004016b0 f i eqmap.obj
 0001:000006d0       ??1sentry@?$basic_istream@DU?$char_traits@D@std@@@std@@QAE@XZ 004016d0 f i eqmap.obj
 0001:000006d0       ??1_Sentry_base@?$basic_istream@DU?$char_traits@D@std@@@std@@QAE@XZ 004016d0 f i eqmap.obj
 0001:000006d0       ??1_Sentry_base@?$basic_ostream@DU?$char_traits@D@std@@@std@@QAE@XZ 004016d0 f i eqmap.obj
 0001:000006f0       ??1clone_base@exception_detail@boost@@UAE@XZ 004016f0 f i eqmap.obj
 0001:00000700       ??_Eclone_base@exception_detail@boost@@UAEPAXI@Z 00401700 f i * CIL library *:* CIL module *
 0001:00000700       ??_Gclone_base@exception_detail@boost@@UAEPAXI@Z 00401700 f i eqmap.obj
 0001:00000730       ?copy_boost_exception@exception_detail@boost@@YAXPAVexception@2@PBV32@@Z 00401730 f i eqmap.obj
 0001:00000810       ?what@bad_lexical_cast@boost@@UBEPBDXZ 00401810 f i eqmap.obj
 0001:00000820       ??1bad_lexical_cast@boost@@UAE@XZ 00401820 f i eqmap.obj
 0001:00000830       ??_Ebad_lexical_cast@boost@@UAEPAXI@Z 00401830 f i * CIL library *:* CIL module *
 0001:00000830       ??_Gbad_lexical_cast@boost@@UAEPAXI@Z 00401830 f i eqmap.obj
 0001:00000860       ??1bad_function_call@boost@@UAE@XZ 00401860 f i eqmap.obj
 0001:00000870       ??Bauto_any_base@foreach_detail_@boost@@QBE_NXZ 00401870 f i eqmap.obj
 0001:00000870       ?has_empty_target@function@detail@boost@@YA_NZZ 00401870 f i eqmap.obj
 0001:00000880       ??1placeholder@any@boost@@UAE@XZ 00401880 f i eqmap.obj
 0001:00000890       ??_Eplaceholder@any@boost@@UAEPAXI@Z 00401890 f i * CIL library *:* CIL module *
 0001:00000890       ??_Gplaceholder@any@boost@@UAEPAXI@Z 00401890 f i eqmap.obj
 0001:000008c0       ??_Eptree_error@property_tree@boost@@UAEPAXI@Z 004018c0 f i * CIL library *:* CIL module *
 0001:000008c0       ??_Gptree_error@property_tree@boost@@UAEPAXI@Z 004018c0 f i eqmap.obj
 0001:000008f0       ??1ptree_error@property_tree@boost@@UAE@XZ 004018f0 f i eqmap.obj
 0001:00000900       ??1ptree_bad_path@property_tree@boost@@UAE@XZ 00401900 f i eqmap.obj
 0001:00000930       ??_Gptree_bad_path@property_tree@boost@@UAEPAXI@Z 00401930 f i eqmap.obj
 0001:00000930       ??_Eptree_bad_path@property_tree@boost@@UAEPAXI@Z 00401930 f i * CIL library *:* CIL module *
 0001:00000970       ?dump_sequence@detail@property_tree@boost@@YA?AV?$basic_string@DU?$char_traits@D@std@@V?$allocator@D@2@@std@@ABV45@@Z 00401970 f i eqmap.obj
 0001:000009a0       ??0file_parser_error@property_tree@boost@@QAE@ABV?$basic_string@DU?$char_traits@D@std@@V?$allocator@D@2@@std@@0K@Z 004019a0 f i eqmap.obj
 0001:00000ab0       ??1file_parser_error@property_tree@boost@@UAE@XZ 00401ab0 f i eqmap.obj
 0001:00000b10       ?message@file_parser_error@property_tree@boost@@QBE?AV?$basic_string@DU?$char_traits@D@std@@V?$allocator@D@2@@std@@XZ 00401b10 f i eqmap.obj
 0001:00000b50       ?format_what@file_parser_error@property_tree@boost@@CA?AV?$basic_string@DU?$char_traits@D@std@@V?$allocator@D@2@@std@@ABV45@0K@Z 00401b50 f i eqmap.obj
 0001:00000c70       ??_Gini_parser_error@ini_parser@property_tree@boost@@UAEPAXI@Z 00401c70 f i eqmap.obj
 0001:00000c70       ??_Efile_parser_error@property_tree@boost@@UAEPAXI@Z 00401c70 f i * CIL library *:* CIL module *
 0001:00000c70       ??_Eini_parser_error@ini_parser@property_tree@boost@@UAEPAXI@Z 00401c70 f i * CIL library *:* CIL module *
 0001:00000c70       ??_Gfile_parser_error@property_tree@boost@@UAEPAXI@Z 00401c70 f i eqmap.obj
 0001:00000ca0       ??_D?$basic_stringstream@DU?$char_traits@D@std@@V?$allocator@D@2@@std@@QAEXXZ 00401ca0 f i eqmap.obj
 0001:00000ce0       ??1ini_parser_error@ini_parser@property_tree@boost@@UAE@XZ 00401ce0 f i eqmap.obj
 0001:00000cf0       ?set_false@foreach_detail_@boost@@YA_NAA_N@Z 00401cf0 f i eqmap.obj
 0001:00000d00       ?file_exists@@YA_NV?$basic_string@DU?$char_traits@D@std@@V?$allocator@D@2@@std@@@Z 00401d00 f   eqmap.obj
 0001:00000de0       ??_D?$basic_ifstream@DU?$char_traits@D@std@@@std@@QAEXXZ 00401de0 f i eqmap.obj
 0001:00000e20       ?string_contains@@YA_NV?$basic_string@DU?$char_traits@D@std@@V?$allocator@D@2@@std@@0@Z 00401e20 f   eqmap.obj
 0001:00000e80       ?get_bool_string@@YA?AV?$basic_string@DU?$char_traits@D@std@@V?$allocator@D@2@@std@@_N@Z 00401e80 f   eqmap.obj
 0001:00000ef0       ?message_box_show_error@@YAXV?$basic_string@DU?$char_traits@D@std@@V?$allocator@D@2@@std@@@Z 00401ef0 f   eqmap.obj
 0001:00000f30       ?draw_bitmap_string@@YAXMMPAXV?$basic_string@DU?$char_traits@D@std@@V?$allocator@D@2@@std@@@Z 00401f30 f   eqmap.obj
 0001:00000f80       ?draw_bitmap_string_background@@YAXMMPAXHV?$basic_string@DU?$char_traits@D@std@@V?$allocator@D@2@@std@@@Z 00401f80 f   eqmap.obj
 0001:000010a0       ?map_calculate_bounds@@YAXXZ 004020a0 f   eqmap.obj
 0001:00001380       ?map_parse_file@@YAXV?$basic_string@DU?$char_traits@D@std@@V?$allocator@D@2@@std@@H@Z 00402380 f   eqmap.obj
 0001:00001e90       ??1map_point_t@@QAE@XZ     00402e90 f i eqmap.obj
 0001:00001ec0       ?map_load_zone@@YAXV?$basic_string@DU?$char_traits@D@std@@V?$allocator@D@2@@std@@@Z 00402ec0 f   eqmap.obj
 0001:00002720       ?parse_zone_info@@YAXXZ    00403720 f   eqmap.obj
 0001:00002c40       ??1zone_info_t@@QAE@XZ     00403c40 f i eqmap.obj
 0001:00002cb0       ?keyboard@@YAXEHH@Z        00403cb0 f   eqmap.obj
 0001:00002de0       ?special@@YAXHHH@Z         00403de0 f   eqmap.obj
 0001:00002ec0       ?mouse@@YAXHHHH@Z          00403ec0 f   eqmap.obj
 0001:00003000       ?mouse_wheel@@YAXHHHH@Z    00404000 f   eqmap.obj
 0001:00003070       ?motion@@YAXHH@Z           00404070 f   eqmap.obj
 0001:00003100       ?reshape@@YAXHH@Z          00404100 f   eqmap.obj
 0001:000031e0       ?render@@YAXXZ             004041e0 f   eqmap.obj
 0001:00005a20       ?init_gl@@YAXXZ            00406a20 f   eqmap.obj
 0001:00005af0       ?done@@YAXXZ               00406af0 f   eqmap.obj
 0001:00005b00       ?CopyStdStringToClient@@YGXAAV?$basic_string@DU?$char_traits@D@std@@V?$allocator@D@2@@std@@ABV12@@Z 00406b00 f   eqmap.obj
 0001:00005b20       ?bar_error_handler@@YGXPBD@Z 00406b20 f   eqmap.obj
 0001:00005b20       ??$destroy@PAD@?$_Wrap_alloc@V?$allocator@D@std@@@std@@QAEXPAPAD@Z 00406b20 f   eqmap.obj
 0001:00005b30       ?bar_options_button_toggle_fullscreen@@YGXPAX@Z 00406b30 f   eqmap.obj
 0001:00005b40       ?bar_options_button_load_zone@@YGXPAX@Z 00406b40 f   eqmap.obj
 0001:00005b80       ?bar_options_button_reset_height_filter@@YGXPAX@Z 00406b80 f   eqmap.obj
 0001:00005b90       ?bar_options_button_zoom_to_fit@@YGXPAX@Z 00406b90 f   eqmap.obj
 0001:00005bb0       ?bar_options_button_reset_zoom_and_center_map@@YGXPAX@Z 00406bb0 f   eqmap.obj
 0001:00005be0       ?bar_options_button_exit@@YGXPAX@Z 00406be0 f   eqmap.obj
 0001:00005bf0       ?bar_zones_refresh@@YAXXZ  00406bf0 f   eqmap.obj
 0001:00005c20       ?bar_zones_button_refresh_zones@@YGXPAX@Z 00406c20 f   eqmap.obj
 0001:00005c50       ?bar_zones_button_zone_name@@YGXPAX@Z 00406c50 f   eqmap.obj
 0001:00005d10       ?bar_zones_create@@YAXXZ   00406d10 f   eqmap.obj
 0001:00006280       ??0zone_info_t@@QAE@ABU0@@Z 00407280 f i eqmap.obj
 0001:00006330       ?bar_options_create@@YAXXZ 00407330 f   eqmap.obj
 0001:000068e0       ?map_load_config@@YAXXZ    004078e0 f   eqmap.obj
 0001:00007490       ??1?$basic_string@DU?$char_traits@D@std@@V?$allocator@D@2@@std@@QAE@XZ 00408490 f i eqmap.obj
 0001:00007490       ??1?$string_path@V?$basic_string@DU?$char_traits@D@std@@V?$allocator@D@2@@std@@U?$id_translator@V?$basic_string@DU?$char_traits@D@std@@V?$allocator@D@2@@std@@@property_tree@boost@@@property_tree@boost@@QAE@XZ 00408490 f i eqmap.obj
 0001:000074c0       ?window_proc_hook@@YGJPAUHWND__@@IIJ@Z 004084c0 f   eqmap.obj
 0001:000077b0       _main                      004087b0 f   eqmap.obj
 0001:00007b50       ??0?$basic_string@DU?$char_traits@D@std@@V?$allocator@D@2@@std@@QAE@ABV01@@Z 00408b50 f i eqmap.obj
 0001:00007b80       ??0?$basic_string@DU?$char_traits@D@std@@V?$allocator@D@2@@std@@QAE@PBD@Z 00408b80 f i eqmap.obj
 0001:00007be0       ??0?$basic_string@DU?$char_traits@D@std@@V?$allocator@D@2@@std@@QAE@$$QAV01@@Z 00408be0 f i eqmap.obj
 0001:00007c50       ?erase@?$basic_string@DU?$char_traits@D@std@@V?$allocator@D@2@@std@@QAE?AV?$_String_iterator@V?$_String_val@U?$_Simple_types@D@std@@@std@@@2@V?$_String_const_iterator@V?$_String_val@U?$_Simple_types@D@std@@@std@@@2@0@Z 00408c50 f i eqmap.obj
 0001:00007ca0       ?end@?$basic_string@DU?$char_traits@D@std@@V?$allocator@D@2@@std@@QAE?AV?$_String_iterator@V?$_String_val@U?$_Simple_types@D@std@@@std@@@2@XZ 00408ca0 f i eqmap.obj
 0001:00007cd0       ?substr@?$basic_string@DU?$char_traits@D@std@@V?$allocator@D@2@@std@@QBE?AV12@II@Z 00408cd0 f i eqmap.obj
 0001:00007d10       ?do_decimal_point@?$numpunct@D@std@@MBEDXZ 00408d10 f i eqmap.obj
 0001:00007d20       ?do_thousands_sep@?$numpunct@D@std@@MBEDXZ 00408d20 f i eqmap.obj
 0001:00007d30       ?do_grouping@?$numpunct@D@std@@MBE?AV?$basic_string@DU?$char_traits@D@std@@V?$allocator@D@2@@2@XZ 00408d30 f i eqmap.obj
 0001:00007d90       ?do_falsename@?$numpunct@D@std@@MBE?AV?$basic_string@DU?$char_traits@D@std@@V?$allocator@D@2@@2@XZ 00408d90 f i eqmap.obj
 0001:00007df0       ?do_truename@?$numpunct@D@std@@MBE?AV?$basic_string@DU?$char_traits@D@std@@V?$allocator@D@2@@2@XZ 00408df0 f i eqmap.obj
 0001:00007e50       ??1?$refcount_ptr@Uerror_info_container@exception_detail@boost@@@exception_detail@boost@@QAE@XZ 00408e50 f i eqmap.obj
 0001:00007e70       ??0?$basic_stringstream@DU?$char_traits@D@std@@V?$allocator@D@2@@std@@QAE@H@Z 00408e70 f i eqmap.obj
 0001:00007f30       ?str@?$basic_stringstream@DU?$char_traits@D@std@@V?$allocator@D@2@@std@@QBE?AV?$basic_string@DU?$char_traits@D@std@@V?$allocator@D@2@@2@XZ 00408f30 f i eqmap.obj
 0001:00007f50       ?str@?$basic_stringstream@DU?$char_traits@D@std@@V?$allocator@D@2@@std@@QAEXABV?$basic_string@DU?$char_traits@D@std@@V?$allocator@D@2@@2@@Z 00408f50 f i eqmap.obj
 0001:00007f60       ??1?$basic_stringbuf@DU?$char_traits@D@std@@V?$allocator@D@2@@std@@UAE@XZ 00408f60 f i eqmap.obj
 0001:00007fd0       ?overflow@?$basic_stringbuf@DU?$char_traits@D@std@@V?$allocator@D@2@@std@@MAEHH@Z 00408fd0 f i eqmap.obj
 0001:000081a0       ?pbackfail@?$basic_stringbuf@DU?$char_traits@D@std@@V?$allocator@D@2@@std@@MAEHH@Z 004091a0 f i eqmap.obj
 0001:00008200       ?underflow@?$basic_stringbuf@DU?$char_traits@D@std@@V?$allocator@D@2@@std@@MAEHXZ 00409200 f i eqmap.obj
 0001:00008260       ?seekoff@?$basic_stringbuf@DU?$char_traits@D@std@@V?$allocator@D@2@@std@@MAE?AV?$fpos@H@2@_JHH@Z 00409260 f i eqmap.obj
 0001:00008430       ?seekpos@?$basic_stringbuf@DU?$char_traits@D@std@@V?$allocator@D@2@@std@@MAE?AV?$fpos@H@2@V32@H@Z 00409430 f i eqmap.obj
 0001:00008560       ?push_back@?$vector@Umap_line_t@@V?$allocator@Umap_line_t@@@std@@@std@@QAEXABUmap_line_t@@@Z 00409560 f i eqmap.obj
 0001:00008650       ?push_back@?$vector@Umap_point_t@@V?$allocator@Umap_point_t@@@std@@@std@@QAEXABUmap_point_t@@@Z 00409650 f i eqmap.obj
 0001:000086f0       ?push_back@?$vector@Uzone_info_t@@V?$allocator@Uzone_info_t@@@std@@@std@@QAEXABUzone_info_t@@@Z 004096f0 f i eqmap.obj
 0001:000087c0       ??0?$basic_ifstream@DU?$char_traits@D@std@@@std@@QAE@PBDHH@Z 004097c0 f i eqmap.obj
 0001:000088c0       ?close@?$basic_ifstream@DU?$char_traits@D@std@@@std@@QAEXXZ 004098c0 f i eqmap.obj
 0001:00008940       ??1?$basic_filebuf@DU?$char_traits@D@std@@@std@@UAE@XZ 00409940 f i eqmap.obj
 0001:000089c0       ?_Lock@?$basic_filebuf@DU?$char_traits@D@std@@@std@@UAEXXZ 004099c0 f i eqmap.obj
 0001:000089d0       ?_Unlock@?$basic_filebuf@DU?$char_traits@D@std@@@std@@UAEXXZ 004099d0 f i eqmap.obj
 0001:000089e0       ?overflow@?$basic_filebuf@DU?$char_traits@D@std@@@std@@MAEHH@Z 004099e0 f i eqmap.obj
 0001:00008bd0       ?pbackfail@?$basic_filebuf@DU?$char_traits@D@std@@@std@@MAEHH@Z 00409bd0 f i eqmap.obj
 0001:00008c60       ?underflow@?$basic_filebuf@DU?$char_traits@D@std@@@std@@MAEHXZ 00409c60 f i eqmap.obj
 0001:00008ca0       ?uflow@?$basic_filebuf@DU?$char_traits@D@std@@@std@@MAEHXZ 00409ca0 f i eqmap.obj
 0001:00008ec0       ?seekoff@?$basic_filebuf@DU?$char_traits@D@std@@@std@@MAE?AV?$fpos@H@2@_JHH@Z 00409ec0 f i eqmap.obj
 0001:00008fd0       ?seekpos@?$basic_filebuf@DU?$char_traits@D@std@@@std@@MAE?AV?$fpos@H@2@V32@H@Z 00409fd0 f i eqmap.obj
 0001:000090c0       ?setbuf@?$basic_filebuf@DU?$char_traits@D@std@@@std@@MAEPAV?$basic_streambuf@DU?$char_traits@D@std@@@2@PAD_J@Z 0040a0c0 f i eqmap.obj
 0001:00009150       ?sync@?$basic_filebuf@DU?$char_traits@D@std@@@std@@MAEHXZ 0040a150 f i eqmap.obj
 0001:00009180       ?imbue@?$basic_filebuf@DU?$char_traits@D@std@@@std@@MAEXABVlocale@2@@Z 0040a180 f i eqmap.obj
 0001:000091c0       ?push_back@?$vector@V?$basic_string@DU?$char_traits@D@std@@V?$allocator@D@2@@std@@V?$allocator@V?$basic_string@DU?$char_traits@D@std@@V?$allocator@D@2@@std@@@2@@std@@QAEX$$QAV?$basic_string@DU?$char_traits@D@std@@V?$allocator@D@2@@2@@Z 0040a1c0 f i eqmap.obj
 0001:00009240       ?_Tidy@?$vector@V?$basic_string@DU?$char_traits@D@std@@V?$allocator@D@2@@std@@V?$allocator@V?$basic_string@DU?$char_traits@D@std@@V?$allocator@D@2@@std@@@2@@std@@IAEXXZ 0040a240 f i eqmap.obj
 0001:00009240       ??1?$vector@V?$basic_string@DU?$char_traits@D@std@@V?$allocator@D@2@@std@@V?$allocator@V?$basic_string@DU?$char_traits@D@std@@V?$allocator@D@2@@std@@@2@@std@@QAE@XZ 0040a240 f i eqmap.obj
 0001:00009280       ?at@?$vector@V?$basic_string@DU?$char_traits@D@std@@V?$allocator@D@2@@std@@V?$allocator@V?$basic_string@DU?$char_traits@D@std@@V?$allocator@D@2@@std@@@2@@std@@QAEAAV?$basic_string@DU?$char_traits@D@std@@V?$allocator@D@2@@2@I@Z 0040a280 f i eqmap.obj
 0001:000092c0       ??1?$is_any_ofF@D@detail@algorithm@boost@@QAE@XZ 0040a2c0 f i eqmap.obj
 0001:000092c0       ??1?$token_finderF@U?$is_any_ofF@D@detail@algorithm@boost@@@detail@algorithm@boost@@QAE@XZ 0040a2c0 f i eqmap.obj
 0001:000092e0       ??_E?$numpunct@D@std@@MAEPAXI@Z 0040a2e0 f i * CIL library *:* CIL module *
 0001:000092e0       ??_G?$numpunct@D@std@@MAEPAXI@Z 0040a2e0 f i eqmap.obj
 0001:00009330       ??_E?$basic_stringstream@DU?$char_traits@D@std@@V?$allocator@D@2@@std@@UAEPAXI@Z 0040a330 f i * CIL library *:* CIL module *
 0001:00009330       ??_G?$basic_stringstream@DU?$char_traits@D@std@@V?$allocator@D@2@@std@@UAEPAXI@Z 0040a330 f i eqmap.obj
 0001:00009390       ??_G?$basic_stringbuf@DU?$char_traits@D@std@@V?$allocator@D@2@@std@@UAEPAXI@Z 0040a390 f i eqmap.obj
 0001:00009390       ??_E?$basic_stringbuf@DU?$char_traits@D@std@@V?$allocator@D@2@@std@@UAEPAXI@Z 0040a390 f i * CIL library *:* CIL module *
 0001:000093c0       ??_E?$basic_ifstream@DU?$char_traits@D@std@@@std@@UAEPAXI@Z 0040a3c0 f i * CIL library *:* CIL module *
 0001:000093c0       ??_G?$basic_ifstream@DU?$char_traits@D@std@@@std@@UAEPAXI@Z 0040a3c0 f i eqmap.obj
 0001:00009420       ??_G?$basic_filebuf@DU?$char_traits@D@std@@@std@@UAEPAXI@Z 0040a420 f i eqmap.obj
 0001:00009420       ??_E?$basic_filebuf@DU?$char_traits@D@std@@@std@@UAEPAXI@Z 0040a420 f i * CIL library *:* CIL module *
 0001:00009450       ??0?$basic_string@DU?$char_traits@D@std@@V?$allocator@D@2@@std@@QAE@ID@Z 0040a450 f i eqmap.obj
 0001:000094b0       ?_Assign_rv@?$basic_string@DU?$char_traits@D@std@@V?$allocator@D@2@@std@@QAEX$$QAV12@@Z 0040a4b0 f i eqmap.obj
 0001:00009510       ?append@?$basic_string@DU?$char_traits@D@std@@V?$allocator@D@2@@std@@QAEAAV12@ID@Z 0040a510 f i eqmap.obj
 0001:000095c0       ?assign@?$basic_string@DU?$char_traits@D@std@@V?$allocator@D@2@@std@@QAEAAV12@ABV12@II@Z 0040a5c0 f i eqmap.obj
 0001:000096e0       ?erase@?$basic_string@DU?$char_traits@D@std@@V?$allocator@D@2@@std@@QAEAAV12@II@Z 0040a6e0 f i eqmap.obj
 0001:00009780       ?find@?$basic_string@DU?$char_traits@D@std@@V?$allocator@D@2@@std@@QBEIPBDII@Z 0040a780 f i eqmap.obj
 0001:00009870       ?_Tidy@?$basic_string@DU?$char_traits@D@std@@V?$allocator@D@2@@std@@QAEX_NI@Z 0040a870 f i eqmap.obj
 0001:000098c0       ?allocate@?$_Wrap_alloc@V?$allocator@D@std@@@std@@QAEPADI@Z 0040a8c0 f i eqmap.obj
 0001:000098c0       ?allocate@?$allocator@D@std@@QAEPADI@Z 0040a8c0 f i eqmap.obj
 0001:000098f0       ?_Myptr@?$_String_val@U?$_Simple_types@D@std@@@std@@QAEPADXZ 0040a8f0 f i eqmap.obj
 0001:00009900       ?str@?$basic_stringbuf@DU?$char_traits@D@std@@V?$allocator@D@2@@std@@QBE?AV?$basic_string@DU?$char_traits@D@std@@V?$allocator@D@2@@2@XZ 0040a900 f i eqmap.obj
 0001:00009a30       ?str@?$basic_stringbuf@DU?$char_traits@D@std@@V?$allocator@D@2@@std@@QAEXABV?$basic_string@DU?$char_traits@D@std@@V?$allocator@D@2@@2@@Z 0040aa30 f i eqmap.obj
 0001:00009ac0       ?_Destroy@?$vector@Umap_line_t@@V?$allocator@Umap_line_t@@@std@@@std@@IAEXPAUmap_line_t@@0@Z 0040aac0 f i eqmap.obj
 0001:00009ad0       ?_Reserve@?$vector@Umap_line_t@@V?$allocator@Umap_line_t@@@std@@@std@@IAEXI@Z 0040aad0 f i eqmap.obj
 0001:00009b70       ?_Reserve@?$vector@Umap_point_t@@V?$allocator@Umap_point_t@@@std@@@std@@IAEXI@Z 0040ab70 f i eqmap.obj
 0001:00009c20       ?_Getal@?$_Vector_alloc@$0A@U?$_Vec_base_types@Umap_point_t@@V?$allocator@Umap_point_t@@@std@@@std@@@std@@QBE?AU?$_Wrap_alloc@V?$allocator@Umap_point_t@@@std@@@2@XZ 0040ac20 f i eqmap.obj
 0001:00009c20       ?_Getal@?$_Vector_alloc@$0A@U?$_Vec_base_types@Uzone_info_t@@V?$allocator@Uzone_info_t@@@std@@@std@@@std@@QBE?AU?$_Wrap_alloc@V?$allocator@Uzone_info_t@@@std@@@2@XZ 0040ac20 f i eqmap.obj
 0001:00009c30       ?_Reserve@?$vector@Uzone_info_t@@V?$allocator@Uzone_info_t@@@std@@@std@@IAEXI@Z 0040ac30 f i eqmap.obj
 0001:00009cd0       ?open@?$basic_filebuf@DU?$char_traits@D@std@@@std@@QAEPAV12@PBDHH@Z 0040acd0 f i eqmap.obj
 0001:00009de0       ?_Endwrite@?$basic_filebuf@DU?$char_traits@D@std@@@std@@IAE_NXZ 0040ade0 f i eqmap.obj
 0001:00009f40       ?_Reset_back@?$basic_filebuf@DU?$char_traits@D@std@@@std@@AAEXXZ 0040af40 f i eqmap.obj
 0001:00009f70       ?_Set_back@?$basic_filebuf@DU?$char_traits@D@std@@@std@@AAEXXZ 0040af70 f i eqmap.obj
 0001:00009fb0       ?_Reserve@?$vector@V?$basic_string@DU?$char_traits@D@std@@V?$allocator@D@2@@std@@V?$allocator@V?$basic_string@DU?$char_traits@D@std@@V?$allocator@D@2@@std@@@2@@std@@IAEXI@Z 0040afb0 f i eqmap.obj
 0001:0000a050       ??1sentry@?$basic_ostream@DU?$char_traits@D@std@@@std@@QAE@XZ 0040b050 f i eqmap.obj
 0001:0000a080       ?assign@?$basic_string@DU?$char_traits@D@std@@V?$allocator@D@2@@std@@QAEAAV12@PBDI@Z 0040b080 f i eqmap.obj
 0001:0000a180       ?_Chassign@?$basic_string@DU?$char_traits@D@std@@V?$allocator@D@2@@std@@QAEXIID@Z 0040b180 f i eqmap.obj
 0001:0000a1d0       ?_Eos@?$basic_string@DU?$char_traits@D@std@@V?$allocator@D@2@@std@@QAEXI@Z 0040b1d0 f i eqmap.obj
 0001:0000a200       ?_Grow@?$basic_string@DU?$char_traits@D@std@@V?$allocator@D@2@@std@@QAE_NI_N@Z 0040b200 f i eqmap.obj
 0001:0000a2b0       ??0?$_Wrap_alloc@V?$allocator@Umap_line_t@@@std@@@std@@QAE@XZ 0040b2b0 f i eqmap.obj
 0001:0000a2b0       ??0?$_Wrap_alloc@V?$allocator@D@std@@@std@@QAE@XZ 0040b2b0 f i eqmap.obj
 0001:0000a2b0       ??0?$_Wrap_alloc@V?$allocator@Umap_point_t@@@std@@@std@@QAE@XZ 0040b2b0 f i eqmap.obj
 0001:0000a2b0       ??0?$_Wrap_alloc@V?$allocator@Uzone_info_t@@@std@@@std@@QAE@XZ 0040b2b0 f i eqmap.obj
 0001:0000a2c0       ?grouping@?$numpunct@D@std@@QBE?AV?$basic_string@DU?$char_traits@D@std@@V?$allocator@D@2@@2@XZ 0040b2c0 f i eqmap.obj
 0001:0000a2e0       ?_Init@?$basic_stringbuf@DU?$char_traits@D@std@@V?$allocator@D@2@@std@@IAEXPBDIH@Z 0040b2e0 f i eqmap.obj
 0001:0000a390       ?_Reallocate@?$vector@Umap_line_t@@V?$allocator@Umap_line_t@@@std@@@std@@IAEXI@Z 0040b390 f i eqmap.obj
 0001:0000a440       ?_Reallocate@?$vector@Umap_point_t@@V?$allocator@Umap_point_t@@@std@@@std@@IAEXI@Z 0040b440 f i eqmap.obj
 0001:0000a560       ?_Reallocate@?$vector@Uzone_info_t@@V?$allocator@Uzone_info_t@@@std@@@std@@IAEXI@Z 0040b560 f i eqmap.obj
 0001:0000a670       ?_Destroy@?$vector@V?$basic_string@DU?$char_traits@D@std@@V?$allocator@D@2@@std@@V?$allocator@V?$basic_string@DU?$char_traits@D@std@@V?$allocator@D@2@@std@@@2@@std@@IAEXPAV?$basic_string@DU?$char_traits@D@std@@V?$allocator@D@2@@2@0@Z 0040b670 f i eqmap.obj
 0001:0000a6c0       ?_Reallocate@?$vector@V?$basic_string@DU?$char_traits@D@std@@V?$allocator@D@2@@std@@V?$allocator@V?$basic_string@DU?$char_traits@D@std@@V?$allocator@D@2@@std@@@2@@std@@IAEXI@Z 0040b6c0 f i eqmap.obj
 0001:0000a760       ?append@?$basic_string@DU?$char_traits@D@std@@V?$allocator@D@2@@std@@QAEAAV12@ABV12@II@Z 0040b760 f i eqmap.obj
 0001:0000a850       ?_Copy@?$basic_string@DU?$char_traits@D@std@@V?$allocator@D@2@@std@@QAEXII@Z 0040b850 f i eqmap.obj
 0001:0000a9a0       ??$use_facet@V?$ctype@D@std@@@std@@YAABV?$ctype@D@0@ABVlocale@0@@Z 0040b9a0 f i eqmap.obj
 0001:0000aa90       ??$?6U?$char_traits@D@std@@@std@@YAAAV?$basic_ostream@DU?$char_traits@D@std@@@0@AAV10@PBD@Z 0040ba90 f i eqmap.obj
 0001:0000aca0       ??$?6U?$char_traits@D@std@@@std@@YAAAV?$basic_ostream@DU?$char_traits@D@std@@@0@AAV10@D@Z 0040bca0 f i eqmap.obj
 0001:0000ae70       ??$?6DU?$char_traits@D@std@@V?$allocator@D@1@@std@@YAAAV?$basic_ostream@DU?$char_traits@D@std@@@0@AAV10@ABV?$basic_string@DU?$char_traits@D@std@@V?$allocator@D@2@@0@@Z 0040be70 f i eqmap.obj
 0001:0000b030       ??$?5DU?$char_traits@D@std@@@std@@YAAAV?$basic_istream@DU?$char_traits@D@std@@@0@AAV10@AAD@Z 0040c030 f i eqmap.obj
 0001:0000b100       ??$replace_all@V?$basic_string@DU?$char_traits@D@std@@V?$allocator@D@2@@std@@$$BY01$$CBD$$BY00$$CBD@algorithm@boost@@YAXAAV?$basic_string@DU?$char_traits@D@std@@V?$allocator@D@2@@std@@AAY01$$CBDAAY00$$CBD@Z 0040c100 f i eqmap.obj
 0001:0000b150       ??$is_any_of@$$BY01$$CBD@algorithm@boost@@YA?AU?$is_any_ofF@D@detail@01@AAY01$$CBD@Z 0040c150 f i eqmap.obj
 0001:0000b1d0       ??$split@V?$vector@V?$basic_string@DU?$char_traits@D@std@@V?$allocator@D@2@@std@@V?$allocator@V?$basic_string@DU?$char_traits@D@std@@V?$allocator@D@2@@std@@@2@@std@@V?$basic_string@DU?$char_traits@D@std@@V?$allocator@D@2@@2@U?$is_any_ofF@D@detail@algorithm@boost@@@algorithm@boost@@YAAAV?$vector@V?$basic_string@DU?$char_traits@D@std@@V?$allocator@D@2@@std@@V?$allocator@V?$basic_string@DU?$char_traits@D@std@@V?$allocator@D@2@@std@@@2@@std@@AAV23@AAV?$basic_string@DU?$char_traits@D@std@@V?$allocator@D@2@@3@U?$is_any_ofF@D@detail@01@W4token_compress_mode_type@01@@Z 0040c1d0 f i eqmap.obj
 0001:0000b2a0       ??$map_line_data_value_can_lexical_cast@M@@YA_NV?$basic_string@DU?$char_traits@D@std@@V?$allocator@D@2@@std@@HHAAM00@Z 0040c2a0 f i eqmap.obj
 0001:0000b5a0       ??$map_line_data_value_can_lexical_cast@H@@YA_NV?$basic_string@DU?$char_traits@D@std@@V?$allocator@D@2@@std@@HHAAH00@Z 0040c5a0 f i eqmap.obj
 0001:0000b8a0       ??$replace_all@V?$basic_string@DU?$char_traits@D@std@@V?$allocator@D@2@@std@@$$BY01$$CBD$$BY01$$CBD@algorithm@boost@@YAXAAV?$basic_string@DU?$char_traits@D@std@@V?$allocator@D@2@@std@@AAY01$$CBD1@Z 0040c8a0 f i eqmap.obj
 0001:0000b8f0       ??$is_any_of@$$BY02$$CBD@algorithm@boost@@YA?AU?$is_any_ofF@D@detail@01@AAY02$$CBD@Z 0040c8f0 f i eqmap.obj
 0001:0000b940       ??$remove_if@V?$basic_string@DU?$char_traits@D@std@@V?$allocator@D@2@@std@@U?$is_any_ofF@D@detail@algorithm@boost@@@range@boost@@YA?AV?$_String_iterator@V?$_String_val@U?$_Simple_types@D@std@@@std@@@std@@AAV?$basic_string@DU?$char_traits@D@std@@V?$allocator@D@2@@3@U?$is_any_ofF@D@detail@algorithm@1@@Z 0040c940 f i eqmap.obj
 0001:0000ba10       ??$contain@V?$vector@V?$basic_string@DU?$char_traits@D@std@@V?$allocator@D@2@@std@@V?$allocator@V?$basic_string@DU?$char_traits@D@std@@V?$allocator@D@2@@std@@@2@@std@@@foreach_detail_@boost@@YA?AU?$auto_any@PAV?$vector@V?$basic_string@DU?$char_traits@D@std@@V?$allocator@D@2@@std@@V?$allocator@V?$basic_string@DU?$char_traits@D@std@@V?$allocator@D@2@@std@@@2@@std@@@01@AAV?$vector@V?$basic_string@DU?$char_traits@D@std@@V?$allocator@D@2@@std@@V?$allocator@V?$basic_string@DU?$char_traits@D@std@@V?$allocator@D@2@@std@@@2@@std@@PAU?$bool_@$0A@@mpl@1@@Z 0040ca10 f i eqmap.obj
 0001:0000ba20       ??$begin@V?$vector@V?$basic_string@DU?$char_traits@D@std@@V?$allocator@D@2@@std@@V?$allocator@V?$basic_string@DU?$char_traits@D@std@@V?$allocator@D@2@@std@@@2@@std@@U?$bool_@$0A@@mpl@boost@@@foreach_detail_@boost@@YA?AU?$auto_any@V?$_Vector_iterator@V?$_Vector_val@U?$_Simple_types@V?$basic_string@DU?$char_traits@D@std@@V?$allocator@D@2@@std@@@std@@@std@@@std@@@01@ABUauto_any_base@01@PAU?$type2type@V?$vector@V?$basic_string@DU?$char_traits@D@std@@V?$allocator@D@2@@std@@V?$allocator@V?$basic_string@DU?$char_traits@D@std@@V?$allocator@D@2@@std@@@2@@std@@U?$bool_@$0A@@mpl@boost@@@01@PAU?$bool_@$0A@@mpl@1@@Z 0040ca20 f i eqmap.obj
 0001:0000ba30       ??$end@V?$vector@V?$basic_string@DU?$char_traits@D@std@@V?$allocator@D@2@@std@@V?$allocator@V?$basic_string@DU?$char_traits@D@std@@V?$allocator@D@2@@std@@@2@@std@@U?$bool_@$0A@@mpl@boost@@@foreach_detail_@boost@@YA?AU?$auto_any@V?$_Vector_iterator@V?$_Vector_val@U?$_Simple_types@V?$basic_string@DU?$char_traits@D@std@@V?$allocator@D@2@@std@@@std@@@std@@@std@@@01@ABUauto_any_base@01@PAU?$type2type@V?$vector@V?$basic_string@DU?$char_traits@D@std@@V?$allocator@D@2@@std@@V?$allocator@V?$basic_string@DU?$char_traits@D@std@@V?$allocator@D@2@@std@@@2@@std@@U?$bool_@$0A@@mpl@boost@@@01@PAU?$bool_@$0A@@mpl@1@@Z 0040ca30 f i eqmap.obj
 0001:0000ba40       ??$done@V?$vector@V?$basic_string@DU?$char_traits@D@std@@V?$allocator@D@2@@std@@V?$allocator@V?$basic_string@DU?$char_traits@D@std@@V?$allocator@D@2@@std@@@2@@std@@U?$bool_@$0A@@mpl@boost@@@foreach_detail_@boost@@YA_NABUauto_any_base@01@0PAU?$type2type@V?$vector@V?$basic_string@DU?$char_traits@D@std@@V?$allocator@D@2@@std@@V?$allocator@V?$basic_string@DU?$char_traits@D@std@@V?$allocator@D@2@@std@@@2@@std@@U?$bool_@$0A@@mpl@boost@@@01@@Z 0040ca40 f i eqmap.obj
 0001:0000ba50       ??$next@V?$vector@V?$basic_string@DU?$char_traits@D@std@@V?$allocator@D@2@@std@@V?$allocator@V?$basic_string@DU?$char_traits@D@std@@V?$allocator@D@2@@std@@@2@@std@@U?$bool_@$0A@@mpl@boost@@@foreach_detail_@boost@@YAXABUauto_any_base@01@PAU?$type2type@V?$vector@V?$basic_string@DU?$char_traits@D@std@@V?$allocator@D@2@@std@@V?$allocator@V?$basic_string@DU?$char_traits@D@std@@V?$allocator@D@2@@std@@@2@@std@@U?$bool_@$0A@@mpl@boost@@@01@@Z 0040ca50 f i eqmap.obj
 0001:0000ba60       ??$deref@V?$vector@V?$basic_string@DU?$char_traits@D@std@@V?$allocator@D@2@@std@@V?$allocator@V?$basic_string@DU?$char_traits@D@std@@V?$allocator@D@2@@std@@@2@@std@@U?$bool_@$0A@@mpl@boost@@@foreach_detail_@boost@@YAAAV?$basic_string@DU?$char_traits@D@std@@V?$allocator@D@2@@std@@ABUauto_any_base@01@PAU?$type2type@V?$vector@V?$basic_string@DU?$char_traits@D@std@@V?$allocator@D@2@@std@@V?$allocator@V?$basic_string@DU?$char_traits@D@std@@V?$allocator@D@2@@std@@@2@@std@@U?$bool_@$0A@@mpl@boost@@@01@@Z 0040ca60 f i eqmap.obj
 0001:0000ba70       ??$to_lower_copy@V?$basic_string@DU?$char_traits@D@std@@V?$allocator@D@2@@std@@@algorithm@boost@@YA?AV?$basic_string@DU?$char_traits@D@std@@V?$allocator@D@2@@std@@ABV23@ABVlocale@3@@Z 0040ca70 f i eqmap.obj
 0001:0000baa0       ??$?8DU?$char_traits@D@std@@V?$allocator@D@1@@std@@YA_NABV?$basic_string@DU?$char_traits@D@std@@V?$allocator@D@2@@0@0@Z 0040caa0 f i eqmap.obj
 0001:0000baf0       ??$replace_all_copy@V?$basic_string@DU?$char_traits@D@std@@V?$allocator@D@2@@std@@$$BY01$$CBD$$BY00$$CBD@algorithm@boost@@YA?AV?$basic_string@DU?$char_traits@D@std@@V?$allocator@D@2@@std@@ABV23@AAY01$$CBDAAY00$$CBD@Z 0040caf0 f i eqmap.obj
 0001:0000bb40       ??0?$basic_ptree@V?$basic_string@DU?$char_traits@D@std@@V?$allocator@D@2@@std@@V12@U?$less@V?$basic_string@DU?$char_traits@D@std@@V?$allocator@D@2@@std@@@2@@property_tree@boost@@QAE@XZ 0040cb40 f i eqmap.obj
 0001:0000bbe0       ??1?$basic_ptree@V?$basic_string@DU?$char_traits@D@std@@V?$allocator@D@2@@std@@V12@U?$less@V?$basic_string@DU?$char_traits@D@std@@V?$allocator@D@2@@std@@@2@@property_tree@boost@@QAE@XZ 0040cbe0 f i eqmap.obj
 0001:0000bc70       ??$read_ini@V?$basic_ptree@V?$basic_string@DU?$char_traits@D@std@@V?$allocator@D@2@@std@@V12@U?$less@V?$basic_string@DU?$char_traits@D@std@@V?$allocator@D@2@@std@@@2@@property_tree@boost@@@ini_parser@property_tree@boost@@YAXABV?$basic_string@DU?$char_traits@D@std@@V?$allocator@D@2@@std@@AAV?$basic_ptree@V?$basic_string@DU?$char_traits@D@std@@V?$allocator@D@2@@std@@V12@U?$less@V?$basic_string@DU?$char_traits@D@std@@V?$allocator@D@2@@std@@@2@@12@ABVlocale@4@@Z 0040cc70 f i eqmap.obj
 0001:0000be40       ??0?$string_path@V?$basic_string@DU?$char_traits@D@std@@V?$allocator@D@2@@std@@U?$id_translator@V?$basic_string@DU?$char_traits@D@std@@V?$allocator@D@2@@std@@@property_tree@boost@@@property_tree@boost@@QAE@PBDDU?$id_translator@V?$basic_string@DU?$char_traits@D@std@@V?$allocator@D@2@@std@@@12@@Z 0040ce40 f i eqmap.obj
 0001:0000beb0       ??$get@H@?$basic_ptree@V?$basic_string@DU?$char_traits@D@std@@V?$allocator@D@2@@std@@V12@U?$less@V?$basic_string@DU?$char_traits@D@std@@V?$allocator@D@2@@std@@@2@@property_tree@boost@@QBEHABV?$string_path@V?$basic_string@DU?$char_traits@D@std@@V?$allocator@D@2@@std@@U?$id_translator@V?$basic_string@DU?$char_traits@D@std@@V?$allocator@D@2@@std@@@property_tree@boost@@@12@ABH@Z 0040ceb0 f i eqmap.obj
 0001:0000bf00       ??$get@_N@?$basic_ptree@V?$basic_string@DU?$char_traits@D@std@@V?$allocator@D@2@@std@@V12@U?$less@V?$basic_string@DU?$char_traits@D@std@@V?$allocator@D@2@@std@@@2@@property_tree@boost@@QBE_NABV?$string_path@V?$basic_string@DU?$char_traits@D@std@@V?$allocator@D@2@@std@@U?$id_translator@V?$basic_string@DU?$char_traits@D@std@@V?$allocator@D@2@@std@@@property_tree@boost@@@12@AB_N@Z 0040cf00 f i eqmap.obj
 0001:0000bf30       ??$get@V?$basic_string@DU?$char_traits@D@std@@V?$allocator@D@2@@std@@@?$basic_ptree@V?$basic_string@DU?$char_traits@D@std@@V?$allocator@D@2@@std@@V12@U?$less@V?$basic_string@DU?$char_traits@D@std@@V?$allocator@D@2@@std@@@2@@property_tree@boost@@QBE?AV?$basic_string@DU?$char_traits@D@std@@V?$allocator@D@2@@std@@ABV?$string_path@V?$basic_string@DU?$char_traits@D@std@@V?$allocator@D@2@@std@@U?$id_translator@V?$basic_string@DU?$char_traits@D@std@@V?$allocator@D@2@@std@@@property_tree@boost@@@12@ABV34@@Z 0040cf30 f i eqmap.obj
 0001:0000bfe0       ??$use_facet@V?$numpunct@D@std@@@std@@YAABV?$numpunct@D@0@ABVlocale@0@@Z 0040cfe0 f i eqmap.obj
 0001:0000c0d0       ??$use_facet@V?$codecvt@DDH@std@@@std@@YAABV?$codecvt@DDH@0@ABVlocale@0@@Z 0040d0d0 f i eqmap.obj
 0001:0000c1c0       ?_Getcat@?$numpunct@D@std@@SAIPAPBVfacet@locale@2@PBV42@@Z 0040d1c0 f i eqmap.obj
 0001:0000c2a0       ??0?$multi_index_container@U?$pair@$$CBV?$basic_string@DU?$char_traits@D@std@@V?$allocator@D@2@@std@@V?$basic_ptree@V?$basic_string@DU?$char_traits@D@std@@V?$allocator@D@2@@std@@V12@U?$less@V?$basic_string@DU?$char_traits@D@std@@V?$allocator@D@2@@std@@@2@@property_tree@boost@@@std@@U?$indexed_by@U?$sequenced@U?$tag@Una@mpl@boost@@U123@U123@U123@U123@U123@U123@U123@U123@U123@U123@U123@U123@U123@U123@U123@U123@U123@U123@U123@@multi_index@boost@@@multi_index@boost@@U?$ordered_non_unique@U?$tag@Uby_name@subs@?$basic_ptree@V?$basic_string@DU?$char_traits@D@std@@V?$allocator@D@2@@std@@V12@U?$less@V?$basic_string@DU?$char_traits@D@std@@V?$allocator@D@2@@std@@@2@@property_tree@boost@@Una@mpl@5@U675@U675@U675@U675@U675@U675@U675@U675@U675@U675@U675@U675@U675@U675@U675@U675@U675@U675@@multi_index@boost@@U?$member@U?$pair@$$CBV?$basic_string@DU?$char_traits@D@std@@V?$allocator@D@2@@std@@V?$basic_ptree@V?$basic_string@DU?$char_traits@D@std@@V?$allocator@D@2@@std@@V12@U?$less@V?$basic_string@DU?$char_traits@D@std@@V?$allocator@D@2@@std@@@2@@property_tree@boost@@@std@@$$CBV?$basic_string@DU?$char_traits@D@std@@V?$allocator@D@2@@2@$0A@@23@U?$less@V?$basic_string@DU?$char_traits@D@std@@V?$allocator@D@2@@std@@@std@@@23@Una@mpl@3@U563@U563@U563@U563@U563@U563@U563@U563@U563@U563@U563@U563@U563@U563@U563@U563@U563@@multi_index@boost@@V?$allocator@U?$pair@$$CBV?$basic_string@DU?$char_traits@D@std@@V?$allocator@D@2@@std@@V?$basic_ptree@V?$basic_string@DU?$char_traits@D@std@@V?$allocator@D@2@@std@@V12@U?$less@V?$basic_string@DU?$char_traits@D@std@@V?$allocator@D@2@@std@@@2@@property_tree@boost@@@std@@@2@@multi_index@boost@@QAE@ABU?$cons@Unull_type@tuples@boost@@U?$cons@V?$tuple@U?$member@U?$pair@$$CBV?$basic_string@DU?$char_traits@D@std@@V?$allocator@D@2@@std@@V?$basic_ptree@V?$basic_string@DU?$char_traits@D@std@@V?$allocator@D@2@@std@@V12@U?$less@V?$basic_string@DU?$char_traits@D@std@@V?$allocator@D@2@@std@@@2@@property_tree@boost@@@std@@$$CBV?$basic_string@DU?$char_traits@D@std@@V?$allocator@D@2@@2@$0A@@multi_index@boost@@U?$less@V?$basic_string@DU?$char_traits@D@std@@V?$allocator@D@2@@std@@@std@@Unull_type@tuples@3@U673@U673@U673@U673@U673@U673@U673@@tuples@boost@@Unull_type@23@@23@@tuples@2@ABV?$allocator@U?$pair@$$CBV?$basic_string@DU?$char_traits@D@std@@V?$allocator@D@2@@std@@V?$basic_ptree@V?$basic_string@DU?$char_traits@D@std@@V?$allocator@D@2@@std@@V12@U?$less@V?$basic_string@DU?$char_traits@D@std@@V?$allocator@D@2@@std@@@2@@property_tree@boost@@@std@@@std@@@Z 0040d2a0 f i eqmap.obj
 0001:0000c330       ??1?$optional@V?$basic_string@DU?$char_traits@D@std@@V?$allocator@D@2@@std@@@boost@@QAE@XZ 0040d330 f i eqmap.obj
 0001:0000c370       ?replace@?$basic_string@DU?$char_traits@D@std@@V?$allocator@D@2@@std@@QAEAAV12@IIPBDI@Z 0040d370 f i eqmap.obj
 0001:0000c550       ??1?$header_holder@PAU?$sequenced_index_node@U?$ordered_index_node@U?$index_node_base@U?$pair@$$CBV?$basic_string@DU?$char_traits@D@std@@V?$allocator@D@2@@std@@V?$basic_ptree@V?$basic_string@DU?$char_traits@D@std@@V?$allocator@D@2@@std@@V12@U?$less@V?$basic_string@DU?$char_traits@D@std@@V?$allocator@D@2@@std@@@2@@property_tree@boost@@@std@@V?$allocator@U?$pair@$$CBV?$basic_string@DU?$char_traits@D@std@@V?$allocator@D@2@@std@@V?$basic_ptree@V?$basic_string@DU?$char_traits@D@std@@V?$allocator@D@2@@std@@V12@U?$less@V?$basic_string@DU?$char_traits@D@std@@V?$allocator@D@2@@std@@@2@@property_tree@boost@@@std@@@2@@detail@multi_index@boost@@@detail@multi_index@boost@@@detail@multi_index@boost@@V?$multi_index_container@U?$pair@$$CBV?$basic_string@DU?$char_traits@D@std@@V?$allocator@D@2@@std@@V?$basic_ptree@V?$basic_string@DU?$char_traits@D@std@@V?$allocator@D@2@@std@@V12@U?$less@V?$basic_string@DU?$char_traits@D@std@@V?$allocator@D@2@@std@@@2@@property_tree@boost@@@std@@U?$indexed_by@U?$sequenced@U?$tag@Una@mpl@boost@@U123@U123@U123@U123@U123@U123@U123@U123@U123@U123@U123@U123@U123@U123@U123@U123@U123@U123@U123@@multi_index@boost@@@multi_index@boost@@U?$ordered_non_unique@U?$tag@Uby_name@subs@?$basic_ptree@V?$basic_string@DU?$char_traits@D@std@@V?$allocator@D@2@@std@@V12@U?$less@V?$basic_string@DU?$char_traits@D@std@@V?$allocator@D@2@@std@@@2@@property_tree@boost@@Una@mpl@5@U675@U675@U675@U675@U675@U675@U675@U675@U675@U675@U675@U675@U675@U675@U675@U675@U675@U675@@multi_index@boost@@U?$member@U?$pair@$$CBV?$basic_string@DU?$char_traits@D@std@@V?$allocator@D@2@@std@@V?$basic_ptree@V?$basic_string@DU?$char_traits@D@std@@V?$allocator@D@2@@std@@V12@U?$less@V?$basic_string@DU?$char_traits@D@std@@V?$allocator@D@2@@std@@@2@@property_tree@boost@@@std@@$$CBV?$basic_string@DU?$char_traits@D@std@@V?$allocator@D@2@@2@$0A@@23@U?$less@V?$basic_string@DU?$char_traits@D@std@@V?$allocator@D@2@@std@@@std@@@23@Una@mpl@3@U563@U563@U563@U563@U563@U563@U563@U563@U563@U563@U563@U563@U563@U563@U563@U563@U563@@multi_index@boost@@V?$allocator@U?$pair@$$CBV?$basic_string@DU?$char_traits@D@std@@V?$allocator@D@2@@std@@V?$basic_ptree@V?$basic_string@DU?$char_traits@D@std@@V?$allocator@D@2@@std@@V12@U?$less@V?$basic_string@DU?$char_traits@D@std@@V?$allocator@D@2@@std@@@2@@property_tree@boost@@@std@@@2@@34@@detail@multi_index@boost@@QAE@XZ 0040d550 f i eqmap.obj
 0001:0000c560       ?replace@?$basic_string@DU?$char_traits@D@std@@V?$allocator@D@2@@std@@QAEAAV12@IIABV12@II@Z 0040d560 f i eqmap.obj
 0001:0000c8b0       ?_Init@?$numpunct@D@std@@IAEXABV_Locinfo@2@_N@Z 0040d8b0 f i eqmap.obj
 0001:0000ca00       ?delete_all_nodes_@?$sequenced_index@U?$nth_layer@$00U?$pair@$$CBV?$basic_string@DU?$char_traits@D@std@@V?$allocator@D@2@@std@@V?$basic_ptree@V?$basic_string@DU?$char_traits@D@std@@V?$allocator@D@2@@std@@V12@U?$less@V?$basic_string@DU?$char_traits@D@std@@V?$allocator@D@2@@std@@@2@@property_tree@boost@@@std@@U?$indexed_by@U?$sequenced@U?$tag@Una@mpl@boost@@U123@U123@U123@U123@U123@U123@U123@U123@U123@U123@U123@U123@U123@U123@U123@U123@U123@U123@U123@@multi_index@boost@@@multi_index@boost@@U?$ordered_non_unique@U?$tag@Uby_name@subs@?$basic_ptree@V?$basic_string@DU?$char_traits@D@std@@V?$allocator@D@2@@std@@V12@U?$less@V?$basic_string@DU?$char_traits@D@std@@V?$allocator@D@2@@std@@@2@@property_tree@boost@@Una@mpl@5@U675@U675@U675@U675@U675@U675@U675@U675@U675@U675@U675@U675@U675@U675@U675@U675@U675@U675@@multi_index@boost@@U?$member@U?$pair@$$CBV?$basic_string@DU?$char_traits@D@std@@V?$allocator@D@2@@std@@V?$basic_ptree@V?$basic_string@DU?$char_traits@D@std@@V?$allocator@D@2@@std@@V12@U?$less@V?$basic_string@DU?$char_traits@D@std@@V?$allocator@D@2@@std@@@2@@property_tree@boost@@@std@@$$CBV?$basic_string@DU?$char_traits@D@std@@V?$allocator@D@2@@2@$0A@@23@U?$less@V?$basic_string@DU?$char_traits@D@std@@V?$allocator@D@2@@std@@@std@@@23@Una@mpl@3@U563@U563@U563@U563@U563@U563@U563@U563@U563@U563@U563@U563@U563@U563@U563@U563@U563@@multi_index@boost@@V?$allocator@U?$pair@$$CBV?$basic_string@DU?$char_traits@D@std@@V?$allocator@D@2@@std@@V?$basic_ptree@V?$basic_string@DU?$char_traits@D@std@@V?$allocator@D@2@@std@@V12@U?$less@V?$basic_string@DU?$char_traits@D@std@@V?$allocator@D@2@@std@@@2@@property_tree@boost@@@std@@@2@@detail@multi_index@boost@@U?$vector0@Una@mpl@boost@@@mpl@4@@detail@multi_index@boost@@IAEXXZ 0040da00 f i eqmap.obj
 0001:0000cad0       ?header@?$sequenced_index@U?$nth_layer@$00U?$pair@$$CBV?$basic_string@DU?$char_traits@D@std@@V?$allocator@D@2@@std@@V?$basic_ptree@V?$basic_string@DU?$char_traits@D@std@@V?$allocator@D@2@@std@@V12@U?$less@V?$basic_string@DU?$char_traits@D@std@@V?$allocator@D@2@@std@@@2@@property_tree@boost@@@std@@U?$indexed_by@U?$sequenced@U?$tag@Una@mpl@boost@@U123@U123@U123@U123@U123@U123@U123@U123@U123@U123@U123@U123@U123@U123@U123@U123@U123@U123@U123@@multi_index@boost@@@multi_index@boost@@U?$ordered_non_unique@U?$tag@Uby_name@subs@?$basic_ptree@V?$basic_string@DU?$char_traits@D@std@@V?$allocator@D@2@@std@@V12@U?$less@V?$basic_string@DU?$char_traits@D@std@@V?$allocator@D@2@@std@@@2@@property_tree@boost@@Una@mpl@5@U675@U675@U675@U675@U675@U675@U675@U675@U675@U675@U675@U675@U675@U675@U675@U675@U675@U675@@multi_index@boost@@U?$member@U?$pair@$$CBV?$basic_string@DU?$char_traits@D@std@@V?$allocator@D@2@@std@@V?$basic_ptree@V?$basic_string@DU?$char_traits@D@std@@V?$allocator@D@2@@std@@V12@U?$less@V?$basic_string@DU?$char_traits@D@std@@V?$allocator@D@2@@std@@@2@@property_tree@boost@@@std@@$$CBV?$basic_string@DU?$char_traits@D@std@@V?$allocator@D@2@@2@$0A@@23@U?$less@V?$basic_string@DU?$char_traits@D@std@@V?$allocator@D@2@@std@@@std@@@23@Una@mpl@3@U563@U563@U563@U563@U563@U563@U563@U563@U563@U563@U563@U563@U563@U563@U563@U563@U563@@multi_index@boost@@V?$allocator@U?$pair@$$CBV?$basic_string@DU?$char_traits@D@std@@V?$allocator@D@2@@std@@V?$basic_ptree@V?$basic_string@DU?$char_traits@D@std@@V?$allocator@D@2@@std@@V12@U?$less@V?$basic_string@DU?$char_traits@D@std@@V?$allocator@D@2@@std@@@2@@property_tree@boost@@@std@@@2@@detail@multi_index@boost@@U?$vector0@Una@mpl@boost@@@mpl@4@@detail@multi_index@boost@@ABEPAU?$sequenced_index_node@U?$ordered_index_node@U?$index_node_base@U?$pair@$$CBV?$basic_string@DU?$char_traits@D@std@@V?$allocator@D@2@@std@@V?$basic_ptree@V?$basic_string@DU?$char_traits@D@std@@V?$allocator@D@2@@std@@V12@U?$less@V?$basic_string@DU?$char_traits@D@std@@V?$allocator@D@2@@std@@@2@@property_tree@boost@@@std@@V?$allocator@U?$pair@$$CBV?$basic_string@DU?$char_traits@D@std@@V?$allocator@D@2@@std@@V?$basic_ptree@V?$basic_string@DU?$char_traits@D@std@@V?$allocator@D@2@@std@@V12@U?$less@V?$basic_string@DU?$char_traits@D@std@@V?$allocator@D@2@@std@@@2@@property_tree@boost@@@std@@@2@@detail@multi_index@boost@@@detail@multi_index@boost@@@234@XZ 0040dad0 f i eqmap.obj
 0001:0000cae0       ?empty_initialize@?$ordered_index@U?$member@U?$pair@$$CBV?$basic_string@DU?$char_traits@D@std@@V?$allocator@D@2@@std@@V?$basic_ptree@V?$basic_string@DU?$char_traits@D@std@@V?$allocator@D@2@@std@@V12@U?$less@V?$basic_string@DU?$char_traits@D@std@@V?$allocator@D@2@@std@@@2@@property_tree@boost@@@std@@$$CBV?$basic_string@DU?$char_traits@D@std@@V?$allocator@D@2@@2@$0A@@multi_index@boost@@U?$less@V?$basic_string@DU?$char_traits@D@std@@V?$allocator@D@2@@std@@@std@@U?$nth_layer@$01U?$pair@$$CBV?$basic_string@DU?$char_traits@D@std@@V?$allocator@D@2@@std@@V?$basic_ptree@V?$basic_string@DU?$char_traits@D@std@@V?$allocator@D@2@@std@@V12@U?$less@V?$basic_string@DU?$char_traits@D@std@@V?$allocator@D@2@@std@@@2@@property_tree@boost@@@std@@U?$indexed_by@U?$sequenced@U?$tag@Una@mpl@boost@@U123@U123@U123@U123@U123@U123@U123@U123@U123@U123@U123@U123@U123@U123@U123@U123@U123@U123@U123@@multi_index@boost@@@multi_index@boost@@U?$ordered_non_unique@U?$tag@Uby_name@subs@?$basic_ptree@V?$basic_string@DU?$char_traits@D@std@@V?$allocator@D@2@@std@@V12@U?$less@V?$basic_string@DU?$char_traits@D@std@@V?$allocator@D@2@@std@@@2@@property_tree@boost@@Una@mpl@5@U675@U675@U675@U675@U675@U675@U675@U675@U675@U675@U675@U675@U675@U675@U675@U675@U675@U675@@multi_index@boost@@U?$member@U?$pair@$$CBV?$basic_string@DU?$char_traits@D@std@@V?$allocator@D@2@@std@@V?$basic_ptree@V?$basic_string@DU?$char_traits@D@std@@V?$allocator@D@2@@std@@V12@U?$less@V?$basic_string@DU?$char_traits@D@std@@V?$allocator@D@2@@std@@@2@@property_tree@boost@@@std@@$$CBV?$basic_string@DU?$char_traits@D@std@@V?$allocator@D@2@@2@$0A@@23@U?$less@V?$basic_string@DU?$char_traits@D@std@@V?$allocator@D@2@@std@@@std@@@23@Una@mpl@3@U563@U563@U563@U563@U563@U563@U563@U563@U563@U563@U563@U563@U563@U563@U563@U563@U563@@multi_index@boost@@V?$allocator@U?$pair@$$CBV?$basic_string@DU?$char_traits@D@std@@V?$allocator@D@2@@std@@V?$basic_ptree@V?$basic_string@DU?$char_traits@D@std@@V?$allocator@D@2@@std@@V12@U?$less@V?$basic_string@DU?$char_traits@D@std@@V?$allocator@D@2@@std@@@2@@property_tree@boost@@@std@@@2@@detail@23@U?$vector1@Uby_name@subs@?$basic_ptree@V?$basic_string@DU?$char_traits@D@std@@V?$allocator@D@2@@std@@V12@U?$less@V?$basic_string@DU?$char_traits@D@std@@V?$allocator@D@2@@std@@@2@@property_tree@boost@@@mpl@3@Uordered_non_unique_tag@723@@detail@multi_index@boost@@AAEXXZ 0040dae0 f i eqmap.obj
 0001:0000cb60       ??$getline@DU?$char_traits@D@std@@V?$allocator@D@2@@std@@YAAAV?$basic_istream@DU?$char_traits@D@std@@@0@$$QAV10@AAV?$basic_string@DU?$char_traits@D@std@@V?$allocator@D@2@@0@D@Z 0040db60 f i eqmap.obj
 0001:0000ccd0       ??$find_format_all@V?$basic_string@DU?$char_traits@D@std@@V?$allocator@D@2@@std@@U?$first_finderF@PBDUis_equal@algorithm@boost@@@detail@algorithm@boost@@U?$const_formatF@V?$iterator_range@PBD@boost@@@456@@algorithm@boost@@YAXAAV?$basic_string@DU?$char_traits@D@std@@V?$allocator@D@2@@std@@U?$first_finderF@PBDUis_equal@algorithm@boost@@@detail@01@U?$const_formatF@V?$iterator_range@PBD@boost@@@501@@Z 0040dcd0 f i eqmap.obj
 0001:0000cd50       ??$token_finder@U?$is_any_ofF@D@detail@algorithm@boost@@@algorithm@boost@@YA?AU?$token_finderF@U?$is_any_ofF@D@detail@algorithm@boost@@@detail@01@U?$is_any_ofF@D@301@W4token_compress_mode_type@01@@Z 0040dd50 f i eqmap.obj
 0001:0000cea0       ??$iter_split@V?$vector@V?$basic_string@DU?$char_traits@D@std@@V?$allocator@D@2@@std@@V?$allocator@V?$basic_string@DU?$char_traits@D@std@@V?$allocator@D@2@@std@@@2@@std@@V?$basic_string@DU?$char_traits@D@std@@V?$allocator@D@2@@2@U?$token_finderF@U?$is_any_ofF@D@detail@algorithm@boost@@@detail@algorithm@boost@@@algorithm@boost@@YAAAV?$vector@V?$basic_string@DU?$char_traits@D@std@@V?$allocator@D@2@@std@@V?$allocator@V?$basic_string@DU?$char_traits@D@std@@V?$allocator@D@2@@std@@@2@@std@@AAV23@AAV?$basic_string@DU?$char_traits@D@std@@V?$allocator@D@2@@3@U?$token_finderF@U?$is_any_ofF@D@detail@algorithm@boost@@@detail@01@@Z 0040dea0 f i eqmap.obj
 0001:0000d0f0       ??$remove_if@V?$_String_iterator@V?$_String_val@U?$_Simple_types@D@std@@@std@@@std@@U?$is_any_ofF@D@detail@algorithm@boost@@@std@@YA?AV?$_String_iterator@V?$_String_val@U?$_Simple_types@D@std@@@std@@@0@V10@0U?$is_any_ofF@D@detail@algorithm@boost@@@Z 0040e0f0 f i eqmap.obj
 0001:0000d1f0       ??$transform_range_copy@V?$basic_string@DU?$char_traits@D@std@@V?$allocator@D@2@@std@@V12@U?$to_lowerF@D@detail@algorithm@boost@@@detail@algorithm@boost@@YA?AV?$basic_string@DU?$char_traits@D@std@@V?$allocator@D@2@@std@@ABV34@U?$to_lowerF@D@012@@Z 0040e1f0 f i eqmap.obj
 0001:0000d250       ??$find_format_all_copy@V?$basic_string@DU?$char_traits@D@std@@V?$allocator@D@2@@std@@U?$first_finderF@PBDUis_equal@algorithm@boost@@@detail@algorithm@boost@@U?$const_formatF@V?$iterator_range@PBD@boost@@@456@@algorithm@boost@@YA?AV?$basic_string@DU?$char_traits@D@std@@V?$allocator@D@2@@std@@ABV23@U?$first_finderF@PBDUis_equal@algorithm@boost@@@detail@01@U?$const_formatF@V?$iterator_range@PBD@boost@@@501@@Z 0040e250 f i eqmap.obj
 0001:0000d2c0       ??$throw_exception_@Vini_parser_error@ini_parser@property_tree@boost@@@exception_detail@boost@@YAXABVini_parser_error@ini_parser@property_tree@1@PBD1H@Z 0040e2c0 f i eqmap.obj
 0001:0000d320       ??$read_ini@V?$basic_ptree@V?$basic_string@DU?$char_traits@D@std@@V?$allocator@D@2@@std@@V12@U?$less@V?$basic_string@DU?$char_traits@D@std@@V?$allocator@D@2@@std@@@2@@property_tree@boost@@@ini_parser@property_tree@boost@@YAXAAV?$basic_istream@DU?$char_traits@D@std@@@std@@AAV?$basic_ptree@V?$basic_string@DU?$char_traits@D@std@@V?$allocator@D@2@@std@@V12@U?$less@V?$basic_string@DU?$char_traits@D@std@@V?$allocator@D@2@@std@@@2@@12@@Z 0040e320 f i eqmap.obj
 0001:0000de20       ??$get_optional@H@?$basic_ptree@V?$basic_string@DU?$char_traits@D@std@@V?$allocator@D@2@@std@@V12@U?$less@V?$basic_string@DU?$char_traits@D@std@@V?$allocator@D@2@@std@@@2@@property_tree@boost@@QBE?AV?$optional@H@2@ABV?$string_path@V?$basic_string@DU?$char_traits@D@std@@V?$allocator@D@2@@std@@U?$id_translator@V?$basic_string@DU?$char_traits@D@std@@V?$allocator@D@2@@std@@@property_tree@boost@@@12@@Z 0040ee20 f i eqmap.obj
 0001:0000dea0       ??$get_optional@_N@?$basic_ptree@V?$basic_string@DU?$char_traits@D@std@@V?$allocator@D@2@@std@@V12@U?$less@V?$basic_string@DU?$char_traits@D@std@@V?$allocator@D@2@@std@@@2@@property_tree@boost@@QBE?AV?$optional@_N@2@ABV?$string_path@V?$basic_string@DU?$char_traits@D@std@@V?$allocator@D@2@@std@@U?$id_translator@V?$basic_string@DU?$char_traits@D@std@@V?$allocator@D@2@@std@@@property_tree@boost@@@12@@Z 0040eea0 f i eqmap.obj
 0001:0000df20       ??$get_optional@V?$basic_string@DU?$char_traits@D@std@@V?$allocator@D@2@@std@@@?$basic_ptree@V?$basic_string@DU?$char_traits@D@std@@V?$allocator@D@2@@std@@V12@U?$less@V?$basic_string@DU?$char_traits@D@std@@V?$allocator@D@2@@std@@@2@@property_tree@boost@@QBE?AV?$optional@V?$basic_string@DU?$char_traits@D@std@@V?$allocator@D@2@@std@@@2@ABV?$string_path@V?$basic_string@DU?$char_traits@D@std@@V?$allocator@D@2@@std@@U?$id_translator@V?$basic_string@DU?$char_traits@D@std@@V?$allocator@D@2@@std@@@property_tree@boost@@@12@@Z 0040ef20 f i eqmap.obj
 0001:0000dfa0       ??$_Destroy_range@U?$_Wrap_alloc@V?$allocator@Umap_point_t@@@std@@@std@@@std@@YAXPAUmap_point_t@@0AAU?$_Wrap_alloc@V?$allocator@Umap_point_t@@@std@@@0@U_Nonscalar_ptr_iterator_tag@0@@Z 0040efa0 f i eqmap.obj
 0001:0000dfe0       ??$_Destroy_range@U?$_Wrap_alloc@V?$allocator@Uzone_info_t@@@std@@@std@@@std@@YAXPAUzone_info_t@@0AAU?$_Wrap_alloc@V?$allocator@Uzone_info_t@@@std@@@0@U_Nonscalar_ptr_iterator_tag@0@@Z 0040efe0 f i eqmap.obj
 0001:0000e060       ??1?$find_iterator_base@V?$_String_iterator@V?$_String_val@U?$_Simple_types@D@std@@@std@@@std@@@detail@algorithm@boost@@IAE@XZ 0040f060 f i eqmap.obj
 0001:0000e060       ??1?$transform_iterator@U?$copy_iterator_rangeF@V?$basic_string@DU?$char_traits@D@std@@V?$allocator@D@2@@std@@V?$_String_iterator@V?$_String_val@U?$_Simple_types@D@std@@@std@@@2@@detail@algorithm@boost@@V?$split_iterator@V?$_String_iterator@V?$_String_val@U?$_Simple_types@D@std@@@std@@@std@@@34@Uuse_default@4@U64@@boost@@QAE@XZ 0040f060 f i eqmap.obj
 0001:0000e060       ??1?$split_iterator@V?$_String_iterator@V?$_String_val@U?$_Simple_types@D@std@@@std@@@std@@@algorithm@boost@@QAE@XZ 0040f060 f i eqmap.obj
 0001:0000e090       ??1?$pair@V?$basic_string@DU?$char_traits@D@std@@V?$allocator@D@2@@std@@V?$basic_ptree@V?$basic_string@DU?$char_traits@D@std@@V?$allocator@D@2@@std@@V12@U?$less@V?$basic_string@DU?$char_traits@D@std@@V?$allocator@D@2@@std@@@2@@property_tree@boost@@@std@@QAE@XZ 0040f090 f i eqmap.obj
 0001:0000e150       ??1?$pair@$$CBV?$basic_string@DU?$char_traits@D@std@@V?$allocator@D@2@@std@@V?$basic_ptree@V?$basic_string@DU?$char_traits@D@std@@V?$allocator@D@2@@std@@V12@U?$less@V?$basic_string@DU?$char_traits@D@std@@V?$allocator@D@2@@std@@@2@@property_tree@boost@@@std@@QAE@XZ 0040f150 f i eqmap.obj
 0001:0000e1c0       ?construct@?$allocator@Umap_point_t@@@std@@QAEXPAUmap_point_t@@ABU3@@Z 0040f1c0 f i eqmap.obj
 0001:0000e1c0       ??$construct@Umap_point_t@@AAU1@@?$allocator@Umap_point_t@@@std@@QAEXPAUmap_point_t@@AAU2@@Z 0040f1c0 f i eqmap.obj
 0001:0000e260       ??0?$split_iterator@V?$_String_iterator@V?$_String_val@U?$_Simple_types@D@std@@@std@@@std@@@algorithm@boost@@QAE@ABV012@@Z 0040f260 f i eqmap.obj
 0001:0000e2e0       ?lexical_cast_impl@?$lexical_cast_do_cast@MV?$basic_string@DU?$char_traits@D@std@@V?$allocator@D@2@@std@@@detail@boost@@SAMABV?$basic_string@DU?$char_traits@D@std@@V?$allocator@D@2@@std@@@Z 0040f2e0 f i eqmap.obj
 0001:0000e370       ?lexical_cast_impl@?$lexical_cast_do_cast@HV?$basic_string@DU?$char_traits@D@std@@V?$allocator@D@2@@std@@@detail@boost@@SAHABV?$basic_string@DU?$char_traits@D@std@@V?$allocator@D@2@@std@@@Z 0040f370 f i eqmap.obj
 0001:0000e410       ??1?$error_info_injector@Vini_parser_error@ini_parser@property_tree@boost@@@exception_detail@boost@@UAE@XZ 0040f410 f i eqmap.obj
 0001:0000e450       ??1?$optional@ABV?$basic_ptree@V?$basic_string@DU?$char_traits@D@std@@V?$allocator@D@2@@std@@V12@U?$less@V?$basic_string@DU?$char_traits@D@std@@V?$allocator@D@2@@std@@@2@@property_tree@boost@@@boost@@QAE@XZ 0040f450 f i eqmap.obj
 0001:0000e460       ??_G?$error_info_injector@Vini_parser_error@ini_parser@property_tree@boost@@@exception_detail@boost@@UAEPAXI@Z 0040f460 f i eqmap.obj
 0001:0000e460       ??_E?$error_info_injector@Vini_parser_error@ini_parser@property_tree@boost@@@exception_detail@boost@@UAEPAXI@Z 0040f460 f i * CIL library *:* CIL module *
 0001:0000e4b0       ??$?RV?$_String_iterator@V?$_String_val@U?$_Simple_types@D@std@@@std@@@std@@@?$first_finderF@PBDUis_equal@algorithm@boost@@@detail@algorithm@boost@@QBE?AV?$iterator_range@V?$_String_iterator@V?$_String_val@U?$_Simple_types@D@std@@@std@@@std@@@3@V?$_String_iterator@V?$_String_val@U?$_Simple_types@D@std@@@std@@@std@@0@Z 0040f4b0 f i eqmap.obj
 0001:0000e4b0       ??$?RV?$_String_const_iterator@V?$_String_val@U?$_Simple_types@D@std@@@std@@@std@@@?$first_finderF@PBDUis_equal@algorithm@boost@@@detail@algorithm@boost@@QBE?AV?$iterator_range@V?$_String_const_iterator@V?$_String_val@U?$_Simple_types@D@std@@@std@@@std@@@3@V?$_String_const_iterator@V?$_String_val@U?$_Simple_types@D@std@@@std@@@std@@0@Z 0040f4b0 f i eqmap.obj
 0001:0000e520       ??$?0U?$token_finderF@U?$is_any_ofF@D@detail@algorithm@boost@@@detail@algorithm@boost@@@?$split_iterator@V?$_String_iterator@V?$_String_val@U?$_Simple_types@D@std@@@std@@@std@@@algorithm@boost@@QAE@V?$_String_iterator@V?$_String_val@U?$_Simple_types@D@std@@@std@@@std@@0U?$token_finderF@U?$is_any_ofF@D@detail@algorithm@boost@@@detail@12@@Z 0040f520 f i eqmap.obj
 0001:0000e5f0       ??$make_transform_iterator@U?$copy_iterator_rangeF@V?$basic_string@DU?$char_traits@D@std@@V?$allocator@D@2@@std@@V?$_String_iterator@V?$_String_val@U?$_Simple_types@D@std@@@std@@@2@@detail@algorithm@boost@@V?$split_iterator@V?$_String_iterator@V?$_String_val@U?$_Simple_types@D@std@@@std@@@std@@@34@@boost@@YA?AV?$transform_iterator@U?$copy_iterator_rangeF@V?$basic_string@DU?$char_traits@D@std@@V?$allocator@D@2@@std@@V?$_String_iterator@V?$_String_val@U?$_Simple_types@D@std@@@std@@@2@@detail@algorithm@boost@@V?$split_iterator@V?$_String_iterator@V?$_String_val@U?$_Simple_types@D@std@@@std@@@std@@@34@Uuse_default@4@U64@@0@V?$split_iterator@V?$_String_iterator@V?$_String_val@U?$_Simple_types@D@std@@@std@@@std@@@algorithm@0@U?$copy_iterator_rangeF@V?$basic_string@DU?$char_traits@D@std@@V?$allocator@D@2@@std@@V?$_String_iterator@V?$_String_val@U?$_Simple_types@D@std@@@std@@@2@@detail@30@@Z 0040f5f0 f i eqmap.obj
 0001:0000e670       ??$?0V?$transform_iterator@U?$copy_iterator_rangeF@V?$basic_string@DU?$char_traits@D@std@@V?$allocator@D@2@@std@@V?$_String_iterator@V?$_String_val@U?$_Simple_types@D@std@@@std@@@2@@detail@algorithm@boost@@V?$split_iterator@V?$_String_iterator@V?$_String_val@U?$_Simple_types@D@std@@@std@@@std@@@34@Uuse_default@4@U64@@boost@@@?$vector@V?$basic_string@DU?$char_traits@D@std@@V?$allocator@D@2@@std@@V?$allocator@V?$basic_string@DU?$char_traits@D@std@@V?$allocator@D@2@@std@@@2@@std@@QAE@V?$transform_iterator@U?$copy_iterator_rangeF@V?$basic_string@DU?$char_traits@D@std@@V?$allocator@D@2@@std@@V?$_String_iterator@V?$_String_val@U?$_Simple_types@D@std@@@std@@@2@@detail@algorithm@boost@@V?$split_iterator@V?$_String_iterator@V?$_String_val@U?$_Simple_types@D@std@@@std@@@std@@@34@Uuse_default@4@U64@@boost@@0PAPAX@Z 0040f670 f i eqmap.obj
 0001:0000e750       ??$find_if@V?$_String_iterator@V?$_String_val@U?$_Simple_types@D@std@@@std@@@std@@U?$is_any_ofF@D@detail@algorithm@boost@@@std@@YA?AV?$_String_iterator@V?$_String_val@U?$_Simple_types@D@std@@@std@@@0@V10@0U?$is_any_ofF@D@detail@algorithm@boost@@@Z 0040f750 f i eqmap.obj
 0001:0000e800       ??$_Remove_if@PADU?$is_any_ofF@D@detail@algorithm@boost@@@std@@YAPADPAD0U?$is_any_ofF@D@detail@algorithm@boost@@@Z 0040f800 f i eqmap.obj
 0001:0000e8a0       ??$find_format_all_copy_impl@V?$basic_string@DU?$char_traits@D@std@@V?$allocator@D@2@@std@@U?$first_finderF@PBDUis_equal@algorithm@boost@@@detail@algorithm@boost@@U?$const_formatF@V?$iterator_range@PBD@boost@@@456@V?$iterator_range@V?$_String_const_iterator@V?$_String_val@U?$_Simple_types@D@std@@@std@@@std@@@6@@detail@algorithm@boost@@YA?AV?$basic_string@DU?$char_traits@D@std@@V?$allocator@D@2@@std@@ABV34@U?$first_finderF@PBDUis_equal@algorithm@boost@@@012@U?$const_formatF@V?$iterator_range@PBD@boost@@@012@ABV?$iterator_range@V?$_String_const_iterator@V?$_String_val@U?$_Simple_types@D@std@@@std@@@std@@@2@@Z 0040f8a0 f i eqmap.obj
 0001:0000e910       ??$enable_error_info@Vini_parser_error@ini_parser@property_tree@boost@@@boost@@YA?AU?$error_info_injector@Vini_parser_error@ini_parser@property_tree@boost@@@exception_detail@0@ABVini_parser_error@ini_parser@property_tree@0@@Z 0040f910 f i eqmap.obj
 0001:0000e960       ??$throw_exception@U?$error_info_injector@Vini_parser_error@ini_parser@property_tree@boost@@@exception_detail@boost@@@boost@@YAXABU?$error_info_injector@Vini_parser_error@ini_parser@property_tree@boost@@@exception_detail@0@@Z 0040f960 f i eqmap.obj
 0001:0000e9c0       ??0?$basic_ptree@V?$basic_string@DU?$char_traits@D@std@@V?$allocator@D@2@@std@@V12@U?$less@V?$basic_string@DU?$char_traits@D@std@@V?$allocator@D@2@@std@@@2@@property_tree@boost@@QAE@ABV?$basic_string@DU?$char_traits@D@std@@V?$allocator@D@2@@std@@@Z 0040f9c0 f i eqmap.obj
 0001:0000ea70       ?pop_back@?$basic_ptree@V?$basic_string@DU?$char_traits@D@std@@V?$allocator@D@2@@std@@V12@U?$less@V?$basic_string@DU?$char_traits@D@std@@V?$allocator@D@2@@std@@@2@@property_tree@boost@@QAEXXZ 0040fa70 f i eqmap.obj
 0001:0000eac0       ?get_child_optional@?$basic_ptree@V?$basic_string@DU?$char_traits@D@std@@V?$allocator@D@2@@std@@V12@U?$less@V?$basic_string@DU?$char_traits@D@std@@V?$allocator@D@2@@std@@@2@@property_tree@boost@@QBE?AV?$optional@ABV?$basic_ptree@V?$basic_string@DU?$char_traits@D@std@@V?$allocator@D@2@@std@@V12@U?$less@V?$basic_string@DU?$char_traits@D@std@@V?$allocator@D@2@@std@@@2@@property_tree@boost@@@3@ABV?$string_path@V?$basic_string@DU?$char_traits@D@std@@V?$allocator@D@2@@std@@U?$id_translator@V?$basic_string@DU?$char_traits@D@std@@V?$allocator@D@2@@std@@@property_tree@boost@@@23@@Z 0040fac0 f i eqmap.obj
 0001:0000eba0       ??$trim@D@detail@property_tree@boost@@YA?AV?$basic_string@DU?$char_traits@D@std@@V?$allocator@D@2@@std@@ABV34@ABVlocale@4@@Z 0040fba0 f i eqmap.obj
 0001:0000ecc0       ??$make_pair@AAV?$basic_string@DU?$char_traits@D@std@@V?$allocator@D@2@@std@@V?$basic_ptree@V?$basic_string@DU?$char_traits@D@std@@V?$allocator@D@2@@std@@V12@U?$less@V?$basic_string@DU?$char_traits@D@std@@V?$allocator@D@2@@std@@@2@@property_tree@boost@@@std@@YA?AU?$pair@V?$basic_string@DU?$char_traits@D@std@@V?$allocator@D@2@@std@@V?$basic_ptree@V?$basic_string@DU?$char_traits@D@std@@V?$allocator@D@2@@std@@V12@U?$less@V?$basic_string@DU?$char_traits@D@std@@V?$allocator@D@2@@std@@@2@@property_tree@boost@@@0@AAV?$basic_string@DU?$char_traits@D@std@@V?$allocator@D@2@@0@$$QAV?$basic_ptree@V?$basic_string@DU?$char_traits@D@std@@V?$allocator@D@2@@std@@V12@U?$less@V?$basic_string@DU?$char_traits@D@std@@V?$allocator@D@2@@std@@@2@@property_tree@boost@@@Z 0040fcc0 f i eqmap.obj
 0001:0000ed50       ??$?0V?$basic_string@DU?$char_traits@D@std@@V?$allocator@D@2@@std@@V?$basic_ptree@V?$basic_string@DU?$char_traits@D@std@@V?$allocator@D@2@@std@@V12@U?$less@V?$basic_string@DU?$char_traits@D@std@@V?$allocator@D@2@@std@@@2@@property_tree@boost@@@?$pair@V?$basic_string@DU?$char_traits@D@std@@V?$allocator@D@2@@std@@V?$basic_ptree@V?$basic_string@DU?$char_traits@D@std@@V?$allocator@D@2@@std@@V12@U?$less@V?$basic_string@DU?$char_traits@D@std@@V?$allocator@D@2@@std@@@2@@property_tree@boost@@@std@@QAE@$$QAU01@PAPAX@Z 0040fd50 f i eqmap.obj
 0001:0000ed50       ??$?0V?$basic_string@DU?$char_traits@D@std@@V?$allocator@D@2@@std@@V?$basic_ptree@V?$basic_string@DU?$char_traits@D@std@@V?$allocator@D@2@@std@@V12@U?$less@V?$basic_string@DU?$char_traits@D@std@@V?$allocator@D@2@@std@@@2@@property_tree@boost@@@?$pair@$$CBV?$basic_string@DU?$char_traits@D@std@@V?$allocator@D@2@@std@@V?$basic_ptree@V?$basic_string@DU?$char_traits@D@std@@V?$allocator@D@2@@std@@V12@U?$less@V?$basic_string@DU?$char_traits@D@std@@V?$allocator@D@2@@std@@@2@@property_tree@boost@@@std@@QAE@$$QAU?$pair@V?$basic_string@DU?$char_traits@D@std@@V?$allocator@D@2@@std@@V?$basic_ptree@V?$basic_string@DU?$char_traits@D@std@@V?$allocator@D@2@@std@@V12@U?$less@V?$basic_string@DU?$char_traits@D@std@@V?$allocator@D@2@@std@@@2@@property_tree@boost@@@1@PAPAX@Z 0040fd50 f i eqmap.obj
 0001:0000ee50       ??$get_value_optional@H@?$basic_ptree@V?$basic_string@DU?$char_traits@D@std@@V?$allocator@D@2@@std@@V12@U?$less@V?$basic_string@DU?$char_traits@D@std@@V?$allocator@D@2@@std@@@2@@property_tree@boost@@QBE?AV?$optional@H@2@XZ 0040fe50 f i eqmap.obj
 0001:0000ef00       ??$get_value_optional@_N@?$basic_ptree@V?$basic_string@DU?$char_traits@D@std@@V?$allocator@D@2@@std@@V12@U?$less@V?$basic_string@DU?$char_traits@D@std@@V?$allocator@D@2@@std@@@2@@property_tree@boost@@QBE?AV?$optional@_N@2@XZ 0040ff00 f i eqmap.obj
 0001:0000efb0       ??$get_value_optional@V?$basic_string@DU?$char_traits@D@std@@V?$allocator@D@2@@std@@@?$basic_ptree@V?$basic_string@DU?$char_traits@D@std@@V?$allocator@D@2@@std@@V12@U?$less@V?$basic_string@DU?$char_traits@D@std@@V?$allocator@D@2@@std@@@2@@property_tree@boost@@QBE?AV?$optional@V?$basic_string@DU?$char_traits@D@std@@V?$allocator@D@2@@std@@@2@XZ 0040ffb0 f i eqmap.obj
 0001:0000efe0       ??$destroy@Umap_point_t@@@?$_Wrap_alloc@V?$allocator@Umap_point_t@@@std@@@std@@QAEXPAUmap_point_t@@@Z 0040ffe0 f i eqmap.obj
 0001:0000f010       ??$_Uninit_move@PAUmap_line_t@@PAU1@V?$allocator@Umap_line_t@@@std@@U1@@std@@YAPAUmap_line_t@@PAU1@00AAU?$_Wrap_alloc@V?$allocator@Umap_line_t@@@std@@@0@0U_Nonscalar_ptr_iterator_tag@0@@Z 00410010 f i eqmap.obj
 0001:0000f060       ??$_Uninit_move@PAUmap_point_t@@PAU1@V?$allocator@Umap_point_t@@@std@@U1@@std@@YAPAUmap_point_t@@PAU1@00AAU?$_Wrap_alloc@V?$allocator@Umap_point_t@@@std@@@0@0U_Nonscalar_ptr_iterator_tag@0@@Z 00410060 f i eqmap.obj
 0001:0000f150       ??$_Uninit_move@PAUzone_info_t@@PAU1@V?$allocator@Uzone_info_t@@@std@@U1@@std@@YAPAUzone_info_t@@PAU1@00AAU?$_Wrap_alloc@V?$allocator@Uzone_info_t@@@std@@@0@0U_Nonscalar_ptr_iterator_tag@0@@Z 00410150 f i eqmap.obj
 0001:0000f260       ??$_Uninit_move@PAV?$basic_string@DU?$char_traits@D@std@@V?$allocator@D@2@@std@@PAV12@V?$allocator@V?$basic_string@DU?$char_traits@D@std@@V?$allocator@D@2@@std@@@2@V12@@std@@YAPAV?$basic_string@DU?$char_traits@D@std@@V?$allocator@D@2@@0@PAV10@00AAU?$_Wrap_alloc@V?$allocator@V?$basic_string@DU?$char_traits@D@std@@V?$allocator@D@2@@std@@@std@@@0@0U_Nonscalar_ptr_iterator_tag@0@@Z 00410260 f i eqmap.obj
 0001:0000f2f0       ??$?RV?$_String_iterator@V?$_String_val@U?$_Simple_types@D@std@@@std@@@std@@@?$token_finderF@U?$is_any_ofF@D@detail@algorithm@boost@@@detail@algorithm@boost@@QBE?AV?$iterator_range@V?$_String_iterator@V?$_String_val@U?$_Simple_types@D@std@@@std@@@std@@@3@V?$_String_iterator@V?$_String_val@U?$_Simple_types@D@std@@@std@@@std@@0@Z 004102f0 f i eqmap.obj
 0001:0000f3d0       ??$throw_exception@Vbad_lexical_cast@boost@@@boost@@YAXABVbad_lexical_cast@0@@Z 004103d0 f i eqmap.obj
 0001:0000f420       ??$shr_signed@H@?$lexical_stream_limited_src@DU?$char_traits@D@std@@$0A@@detail@boost@@AAE_NAAH@Z 00410420 f i eqmap.obj
 0001:0000f4d0       ??$lcast_ret_float@U?$char_traits@D@std@@MD@detail@boost@@YA_NAAMPBD1@Z 004104d0 f i eqmap.obj
 0001:0000fb10       ??_D?$clone_impl@U?$error_info_injector@Vini_parser_error@ini_parser@property_tree@boost@@@exception_detail@boost@@@exception_detail@boost@@QAEXXZ 00410b10 f i eqmap.obj
 0001:0000fb80       ??0?$clone_impl@U?$error_info_injector@Vini_parser_error@ini_parser@property_tree@boost@@@exception_detail@boost@@@exception_detail@boost@@QAE@ABV012@@Z 00410b80 f i eqmap.obj
 0001:0000fc60       ??0?$error_info_injector@Vini_parser_error@ini_parser@property_tree@boost@@@exception_detail@boost@@QAE@ABU012@@Z 00410c60 f i eqmap.obj
 0001:0000fd00       ??0ini_parser_error@ini_parser@property_tree@boost@@QAE@ABV0123@@Z 00410d00 f i eqmap.obj
 0001:0000fd20       ??0file_parser_error@property_tree@boost@@QAE@ABV012@@Z 00410d20 f i eqmap.obj
 0001:0000fdd0       ??0ptree_error@property_tree@boost@@QAE@ABV012@@Z 00410dd0 f i eqmap.obj
 0001:0000fdf0       ??0exception@boost@@QAE@ABV01@@Z 00410df0 f i eqmap.obj
 0001:0000fe30       ??0clone_base@exception_detail@boost@@QAE@ABV012@@Z 00410e30 f i eqmap.obj
 0001:0000fe40       ??_D?$clone_impl@U?$error_info_injector@Vbad_lexical_cast@boost@@@exception_detail@boost@@@exception_detail@boost@@QAEXXZ 00410e40 f i eqmap.obj
 0001:0000fe60       ??0?$clone_impl@U?$error_info_injector@Vbad_lexical_cast@boost@@@exception_detail@boost@@@exception_detail@boost@@QAE@ABV012@@Z 00410e60 f i eqmap.obj
 0001:0000ff40       ??0?$error_info_injector@Vbad_lexical_cast@boost@@@exception_detail@boost@@QAE@ABU012@@Z 00410f40 f i eqmap.obj
 0001:0000ffe0       ??0bad_lexical_cast@boost@@QAE@ABV01@@Z 00410fe0 f i eqmap.obj
 0001:00010010       ??_G?$clone_impl@U?$error_info_injector@Vini_parser_error@ini_parser@property_tree@boost@@@exception_detail@boost@@@exception_detail@boost@@UAEPAXI@Z 00411010 f i eqmap.obj
 0001:00010010       ??_E?$clone_impl@U?$error_info_injector@Vini_parser_error@ini_parser@property_tree@boost@@@exception_detail@boost@@@exception_detail@boost@@UAEPAXI@Z 00411010 f i * CIL library *:* CIL module *
 0001:00010040       ??_E?$clone_impl@U?$error_info_injector@Vbad_lexical_cast@boost@@@exception_detail@boost@@@exception_detail@boost@@UAEPAXI@Z 00411040 f i * CIL library *:* CIL module *
 0001:00010040       ??_G?$clone_impl@U?$error_info_injector@Vbad_lexical_cast@boost@@@exception_detail@boost@@@exception_detail@boost@@UAEPAXI@Z 00411040 f i eqmap.obj
 0001:00010070       ??_G?$error_info_injector@Vbad_lexical_cast@boost@@@exception_detail@boost@@UAEPAXI@Z 00411070 f i eqmap.obj
 0001:00010070       ??_E?$error_info_injector@Vbad_lexical_cast@boost@@@exception_detail@boost@@UAEPAXI@Z 00411070 f i * CIL library *:* CIL module *
 0001:000100d0       ?erase@?$vector@V?$basic_string@DU?$char_traits@D@std@@V?$allocator@D@2@@std@@V?$allocator@V?$basic_string@DU?$char_traits@D@std@@V?$allocator@D@2@@std@@@2@@std@@QAE?AV?$_Vector_iterator@V?$_Vector_val@U?$_Simple_types@V?$basic_string@DU?$char_traits@D@std@@V?$allocator@D@2@@std@@@std@@@std@@@2@V?$_Vector_const_iterator@V?$_Vector_val@U?$_Simple_types@V?$basic_string@DU?$char_traits@D@std@@V?$allocator@D@2@@std@@@std@@@std@@@2@0@Z 004110d0 f i eqmap.obj
 0001:00010140       ?increment@?$split_iterator@V?$_String_iterator@V?$_String_val@U?$_Simple_types@D@std@@@std@@@std@@@algorithm@boost@@AAEXXZ 00411140 f i eqmap.obj
 0001:000101a0       ?clone@?$clone_impl@U?$error_info_injector@Vini_parser_error@ini_parser@property_tree@boost@@@exception_detail@boost@@@exception_detail@boost@@EBEPBVclone_base@23@XZ 004111a0 f i eqmap.obj
 0001:00010230       ?rethrow@?$clone_impl@U?$error_info_injector@Vini_parser_error@ini_parser@property_tree@boost@@@exception_detail@boost@@@exception_detail@boost@@EBEXXZ 00411230 f i eqmap.obj
 0001:00010270       ??1?$error_info_injector@Vbad_lexical_cast@boost@@@exception_detail@boost@@UAE@XZ 00411270 f i eqmap.obj
 0001:000102b0       ??1?$clone_impl@U?$error_info_injector@Vbad_lexical_cast@boost@@@exception_detail@boost@@@exception_detail@boost@@UAE@XZ 004112b0 f i eqmap.obj
 0001:00010310       ?clone@?$clone_impl@U?$error_info_injector@Vbad_lexical_cast@boost@@@exception_detail@boost@@@exception_detail@boost@@EBEPBVclone_base@23@XZ 00411310 f i eqmap.obj
 0001:000103a0       ?rethrow@?$clone_impl@U?$error_info_injector@Vbad_lexical_cast@boost@@@exception_detail@boost@@@exception_detail@boost@@EBEXXZ 004113a0 f i eqmap.obj
 0001:000103d0       ?insert@?$sequenced_index@U?$nth_layer@$00U?$pair@$$CBV?$basic_string@DU?$char_traits@D@std@@V?$allocator@D@2@@std@@V?$basic_ptree@V?$basic_string@DU?$char_traits@D@std@@V?$allocator@D@2@@std@@V12@U?$less@V?$basic_string@DU?$char_traits@D@std@@V?$allocator@D@2@@std@@@2@@property_tree@boost@@@std@@U?$indexed_by@U?$sequenced@U?$tag@Una@mpl@boost@@U123@U123@U123@U123@U123@U123@U123@U123@U123@U123@U123@U123@U123@U123@U123@U123@U123@U123@U123@@multi_index@boost@@@multi_index@boost@@U?$ordered_non_unique@U?$tag@Uby_name@subs@?$basic_ptree@V?$basic_string@DU?$char_traits@D@std@@V?$allocator@D@2@@std@@V12@U?$less@V?$basic_string@DU?$char_traits@D@std@@V?$allocator@D@2@@std@@@2@@property_tree@boost@@Una@mpl@5@U675@U675@U675@U675@U675@U675@U675@U675@U675@U675@U675@U675@U675@U675@U675@U675@U675@U675@@multi_index@boost@@U?$member@U?$pair@$$CBV?$basic_string@DU?$char_traits@D@std@@V?$allocator@D@2@@std@@V?$basic_ptree@V?$basic_string@DU?$char_traits@D@std@@V?$allocator@D@2@@std@@V12@U?$less@V?$basic_string@DU?$char_traits@D@std@@V?$allocator@D@2@@std@@@2@@property_tree@boost@@@std@@$$CBV?$basic_string@DU?$char_traits@D@std@@V?$allocator@D@2@@2@$0A@@23@U?$less@V?$basic_string@DU?$char_traits@D@std@@V?$allocator@D@2@@std@@@std@@@23@Una@mpl@3@U563@U563@U563@U563@U563@U563@U563@U563@U563@U563@U563@U563@U563@U563@U563@U563@U563@@multi_index@boost@@V?$allocator@U?$pair@$$CBV?$basic_string@DU?$char_traits@D@std@@V?$allocator@D@2@@std@@V?$basic_ptree@V?$basic_string@DU?$char_traits@D@std@@V?$allocator@D@2@@std@@V12@U?$less@V?$basic_string@DU?$char_traits@D@std@@V?$allocator@D@2@@std@@@2@@property_tree@boost@@@std@@@2@@detail@multi_index@boost@@U?$vector0@Una@mpl@boost@@@mpl@4@@detail@multi_index@boost@@QAE?AU?$pair@V?$bidir_node_iterator@U?$sequenced_index_node@U?$ordered_index_node@U?$index_node_base@U?$pair@$$CBV?$basic_string@DU?$char_traits@D@std@@V?$allocator@D@2@@std@@V?$basic_ptree@V?$basic_string@DU?$char_traits@D@std@@V?$allocator@D@2@@std@@V12@U?$less@V?$basic_string@DU?$char_traits@D@std@@V?$allocator@D@2@@std@@@2@@property_tree@boost@@@std@@V?$allocator@U?$pair@$$CBV?$basic_string@DU?$char_traits@D@std@@V?$allocator@D@2@@std@@V?$basic_ptree@V?$basic_string@DU?$char_traits@D@std@@V?$allocator@D@2@@std@@V12@U?$less@V?$basic_string@DU?$char_traits@D@std@@V?$allocator@D@2@@std@@@2@@property_tree@boost@@@std@@@2@@detail@multi_index@boost@@@detail@multi_index@boost@@@detail@multi_index@boost@@@detail@multi_index@boost@@_N@std@@V?$bidir_node_iterator@U?$sequenced_index_node@U?$ordered_index_node@U?$index_node_base@U?$pair@$$CBV?$basic_string@DU?$char_traits@D@std@@V?$allocator@D@2@@std@@V?$basic_ptree@V?$basic_string@DU?$char_traits@D@std@@V?$allocator@D@2@@std@@V12@U?$less@V?$basic_string@DU?$char_traits@D@std@@V?$allocator@D@2@@std@@@2@@property_tree@boost@@@std@@V?$allocator@U?$pair@$$CBV?$basic_string@DU?$char_traits@D@std@@V?$allocator@D@2@@std@@V?$basic_ptree@V?$basic_string@DU?$char_traits@D@std@@V?$allocator@D@2@@std@@V12@U?$less@V?$basic_string@DU?$char_traits@D@std@@V?$allocator@D@2@@std@@@2@@property_tree@boost@@@std@@@2@@detail@multi_index@boost@@@detail@multi_index@boost@@@detail@multi_index@boost@@@234@ABU?$pair@$$CBV?$basic_string@DU?$char_traits@D@std@@V?$allocator@D@2@@std@@V?$basic_ptree@V?$basic_string@DU?$char_traits@D@std@@V?$allocator@D@2@@std@@V12@U?$less@V?$basic_string@DU?$char_traits@D@std@@V?$allocator@D@2@@std@@@2@@property_tree@boost@@@6@@Z 004113d0 f i eqmap.obj
 0001:00010460       ?erase@?$sequenced_index@U?$nth_layer@$00U?$pair@$$CBV?$basic_string@DU?$char_traits@D@std@@V?$allocator@D@2@@std@@V?$basic_ptree@V?$basic_string@DU?$char_traits@D@std@@V?$allocator@D@2@@std@@V12@U?$less@V?$basic_string@DU?$char_traits@D@std@@V?$allocator@D@2@@std@@@2@@property_tree@boost@@@std@@U?$indexed_by@U?$sequenced@U?$tag@Una@mpl@boost@@U123@U123@U123@U123@U123@U123@U123@U123@U123@U123@U123@U123@U123@U123@U123@U123@U123@U123@U123@@multi_index@boost@@@multi_index@boost@@U?$ordered_non_unique@U?$tag@Uby_name@subs@?$basic_ptree@V?$basic_string@DU?$char_traits@D@std@@V?$allocator@D@2@@std@@V12@U?$less@V?$basic_string@DU?$char_traits@D@std@@V?$allocator@D@2@@std@@@2@@property_tree@boost@@Una@mpl@5@U675@U675@U675@U675@U675@U675@U675@U675@U675@U675@U675@U675@U675@U675@U675@U675@U675@U675@@multi_index@boost@@U?$member@U?$pair@$$CBV?$basic_string@DU?$char_traits@D@std@@V?$allocator@D@2@@std@@V?$basic_ptree@V?$basic_string@DU?$char_traits@D@std@@V?$allocator@D@2@@std@@V12@U?$less@V?$basic_string@DU?$char_traits@D@std@@V?$allocator@D@2@@std@@@2@@property_tree@boost@@@std@@$$CBV?$basic_string@DU?$char_traits@D@std@@V?$allocator@D@2@@2@$0A@@23@U?$less@V?$basic_string@DU?$char_traits@D@std@@V?$allocator@D@2@@std@@@std@@@23@Una@mpl@3@U563@U563@U563@U563@U563@U563@U563@U563@U563@U563@U563@U563@U563@U563@U563@U563@U563@@multi_index@boost@@V?$allocator@U?$pair@$$CBV?$basic_string@DU?$char_traits@D@std@@V?$allocator@D@2@@std@@V?$basic_ptree@V?$basic_string@DU?$char_traits@D@std@@V?$allocator@D@2@@std@@V12@U?$less@V?$basic_string@DU?$char_traits@D@std@@V?$allocator@D@2@@std@@@2@@property_tree@boost@@@std@@@2@@detail@multi_index@boost@@U?$vector0@Una@mpl@boost@@@mpl@4@@detail@multi_index@boost@@QAE?AV?$bidir_node_iterator@U?$sequenced_index_node@U?$ordered_index_node@U?$index_node_base@U?$pair@$$CBV?$basic_string@DU?$char_traits@D@std@@V?$allocator@D@2@@std@@V?$basic_ptree@V?$basic_string@DU?$char_traits@D@std@@V?$allocator@D@2@@std@@V12@U?$less@V?$basic_string@DU?$char_traits@D@std@@V?$allocator@D@2@@std@@@2@@property_tree@boost@@@std@@V?$allocator@U?$pair@$$CBV?$basic_string@DU?$char_traits@D@std@@V?$allocator@D@2@@std@@V?$basic_ptree@V?$basic_string@DU?$char_traits@D@std@@V?$allocator@D@2@@std@@V12@U?$less@V?$basic_string@DU?$char_traits@D@std@@V?$allocator@D@2@@std@@@2@@property_tree@boost@@@std@@@2@@detail@multi_index@boost@@@detail@multi_index@boost@@@detail@multi_index@boost@@@234@V5234@@Z 00411460 f i eqmap.obj
 0001:000104d0       ??0?$clone_impl@U?$error_info_injector@Vini_parser_error@ini_parser@property_tree@boost@@@exception_detail@boost@@@exception_detail@boost@@AAE@ABV012@Uclone_tag@012@@Z 004114d0 f i eqmap.obj
 0001:000105d0       ??0?$clone_impl@U?$error_info_injector@Vbad_lexical_cast@boost@@@exception_detail@boost@@@exception_detail@boost@@AAE@ABV012@Uclone_tag@012@@Z 004115d0 f i eqmap.obj
 0001:000106d0       ??R?$function2@V?$iterator_range@V?$_String_iterator@V?$_String_val@U?$_Simple_types@D@std@@@std@@@std@@@boost@@V?$_String_iterator@V?$_String_val@U?$_Simple_types@D@std@@@std@@@std@@V34@@boost@@QBE?AV?$iterator_range@V?$_String_iterator@V?$_String_val@U?$_Simple_types@D@std@@@std@@@std@@@1@V?$_String_iterator@V?$_String_val@U?$_Simple_types@D@std@@@std@@@std@@0@Z 004116d0 f i eqmap.obj
 0001:00010780       ?insert_@?$multi_index_container@U?$pair@$$CBV?$basic_string@DU?$char_traits@D@std@@V?$allocator@D@2@@std@@V?$basic_ptree@V?$basic_string@DU?$char_traits@D@std@@V?$allocator@D@2@@std@@V12@U?$less@V?$basic_string@DU?$char_traits@D@std@@V?$allocator@D@2@@std@@@2@@property_tree@boost@@@std@@U?$indexed_by@U?$sequenced@U?$tag@Una@mpl@boost@@U123@U123@U123@U123@U123@U123@U123@U123@U123@U123@U123@U123@U123@U123@U123@U123@U123@U123@U123@@multi_index@boost@@@multi_index@boost@@U?$ordered_non_unique@U?$tag@Uby_name@subs@?$basic_ptree@V?$basic_string@DU?$char_traits@D@std@@V?$allocator@D@2@@std@@V12@U?$less@V?$basic_string@DU?$char_traits@D@std@@V?$allocator@D@2@@std@@@2@@property_tree@boost@@Una@mpl@5@U675@U675@U675@U675@U675@U675@U675@U675@U675@U675@U675@U675@U675@U675@U675@U675@U675@U675@@multi_index@boost@@U?$member@U?$pair@$$CBV?$basic_string@DU?$char_traits@D@std@@V?$allocator@D@2@@std@@V?$basic_ptree@V?$basic_string@DU?$char_traits@D@std@@V?$allocator@D@2@@std@@V12@U?$less@V?$basic_string@DU?$char_traits@D@std@@V?$allocator@D@2@@std@@@2@@property_tree@boost@@@std@@$$CBV?$basic_string@DU?$char_traits@D@std@@V?$allocator@D@2@@2@$0A@@23@U?$less@V?$basic_string@DU?$char_traits@D@std@@V?$allocator@D@2@@std@@@std@@@23@Una@mpl@3@U563@U563@U563@U563@U563@U563@U563@U563@U563@U563@U563@U563@U563@U563@U563@U563@U563@@multi_index@boost@@V?$allocator@U?$pair@$$CBV?$basic_string@DU?$char_traits@D@std@@V?$allocator@D@2@@std@@V?$basic_ptree@V?$basic_string@DU?$char_traits@D@std@@V?$allocator@D@2@@std@@V12@U?$less@V?$basic_string@DU?$char_traits@D@std@@V?$allocator@D@2@@std@@@2@@property_tree@boost@@@std@@@2@@multi_index@boost@@IAE?AU?$pair@PAU?$sequenced_index_node@U?$ordered_index_node@U?$index_node_base@U?$pair@$$CBV?$basic_string@DU?$char_traits@D@std@@V?$allocator@D@2@@std@@V?$basic_ptree@V?$basic_string@DU?$char_traits@D@std@@V?$allocator@D@2@@std@@V12@U?$less@V?$basic_string@DU?$char_traits@D@std@@V?$allocator@D@2@@std@@@2@@property_tree@boost@@@std@@V?$allocator@U?$pair@$$CBV?$basic_string@DU?$char_traits@D@std@@V?$allocator@D@2@@std@@V?$basic_ptree@V?$basic_string@DU?$char_traits@D@std@@V?$allocator@D@2@@std@@V12@U?$less@V?$basic_string@DU?$char_traits@D@std@@V?$allocator@D@2@@std@@@2@@property_tree@boost@@@std@@@2@@detail@multi_index@boost@@@detail@multi_index@boost@@@detail@multi_index@boost@@_N@std@@ABU?$pair@$$CBV?$basic_string@DU?$char_traits@D@std@@V?$allocator@D@2@@std@@V?$basic_ptree@V?$basic_string@DU?$char_traits@D@std@@V?$allocator@D@2@@std@@V12@U?$less@V?$basic_string@DU?$char_traits@D@std@@V?$allocator@D@2@@std@@@2@@property_tree@boost@@@5@@Z 00411780 f i eqmap.obj
 0001:00010870       ?insert_@?$ordered_index@U?$member@U?$pair@$$CBV?$basic_string@DU?$char_traits@D@std@@V?$allocator@D@2@@std@@V?$basic_ptree@V?$basic_string@DU?$char_traits@D@std@@V?$allocator@D@2@@std@@V12@U?$less@V?$basic_string@DU?$char_traits@D@std@@V?$allocator@D@2@@std@@@2@@property_tree@boost@@@std@@$$CBV?$basic_string@DU?$char_traits@D@std@@V?$allocator@D@2@@2@$0A@@multi_index@boost@@U?$less@V?$basic_string@DU?$char_traits@D@std@@V?$allocator@D@2@@std@@@std@@U?$nth_layer@$01U?$pair@$$CBV?$basic_string@DU?$char_traits@D@std@@V?$allocator@D@2@@std@@V?$basic_ptree@V?$basic_string@DU?$char_traits@D@std@@V?$allocator@D@2@@std@@V12@U?$less@V?$basic_string@DU?$char_traits@D@std@@V?$allocator@D@2@@std@@@2@@property_tree@boost@@@std@@U?$indexed_by@U?$sequenced@U?$tag@Una@mpl@boost@@U123@U123@U123@U123@U123@U123@U123@U123@U123@U123@U123@U123@U123@U123@U123@U123@U123@U123@U123@@multi_index@boost@@@multi_index@boost@@U?$ordered_non_unique@U?$tag@Uby_name@subs@?$basic_ptree@V?$basic_string@DU?$char_traits@D@std@@V?$allocator@D@2@@std@@V12@U?$less@V?$basic_string@DU?$char_traits@D@std@@V?$allocator@D@2@@std@@@2@@property_tree@boost@@Una@mpl@5@U675@U675@U675@U675@U675@U675@U675@U675@U675@U675@U675@U675@U675@U675@U675@U675@U675@U675@@multi_index@boost@@U?$member@U?$pair@$$CBV?$basic_string@DU?$char_traits@D@std@@V?$allocator@D@2@@std@@V?$basic_ptree@V?$basic_string@DU?$char_traits@D@std@@V?$allocator@D@2@@std@@V12@U?$less@V?$basic_string@DU?$char_traits@D@std@@V?$allocator@D@2@@std@@@2@@property_tree@boost@@@std@@$$CBV?$basic_string@DU?$char_traits@D@std@@V?$allocator@D@2@@2@$0A@@23@U?$less@V?$basic_string@DU?$char_traits@D@std@@V?$allocator@D@2@@std@@@std@@@23@Una@mpl@3@U563@U563@U563@U563@U563@U563@U563@U563@U563@U563@U563@U563@U563@U563@U563@U563@U563@@multi_index@boost@@V?$allocator@U?$pair@$$CBV?$basic_string@DU?$char_traits@D@std@@V?$allocator@D@2@@std@@V?$basic_ptree@V?$basic_string@DU?$char_traits@D@std@@V?$allocator@D@2@@std@@V12@U?$less@V?$basic_string@DU?$char_traits@D@std@@V?$allocator@D@2@@std@@@2@@property_tree@boost@@@std@@@2@@detail@23@U?$vector1@Uby_name@subs@?$basic_ptree@V?$basic_string@DU?$char_traits@D@std@@V?$allocator@D@2@@std@@V12@U?$less@V?$basic_string@DU?$char_traits@D@std@@V?$allocator@D@2@@std@@@2@@property_tree@boost@@@mpl@3@Uordered_non_unique_tag@723@@detail@multi_index@boost@@IAEPAU?$ordered_index_node@U?$index_node_base@U?$pair@$$CBV?$basic_string@DU?$char_traits@D@std@@V?$allocator@D@2@@std@@V?$basic_ptree@V?$basic_string@DU?$char_traits@D@std@@V?$allocator@D@2@@std@@V12@U?$less@V?$basic_string@DU?$char_traits@D@std@@V?$allocator@D@2@@std@@@2@@property_tree@boost@@@std@@V?$allocator@U?$pair@$$CBV?$basic_string@DU?$char_traits@D@std@@V?$allocator@D@2@@std@@V?$basic_ptree@V?$basic_string@DU?$char_traits@D@std@@V?$allocator@D@2@@std@@V12@U?$less@V?$basic_string@DU?$char_traits@D@std@@V?$allocator@D@2@@std@@@2@@property_tree@boost@@@std@@@2@@detail@multi_index@boost@@@234@ABU?$pair@$$CBV?$basic_string@DU?$char_traits@D@std@@V?$allocator@D@2@@std@@V?$basic_ptree@V?$basic_string@DU?$char_traits@D@std@@V?$allocator@D@2@@std@@V12@U?$less@V?$basic_string@DU?$char_traits@D@std@@V?$allocator@D@2@@std@@@2@@property_tree@boost@@@std@@PAU5234@@Z 00411870 f i eqmap.obj
 0001:00010980       ?erase_@?$ordered_index@U?$member@U?$pair@$$CBV?$basic_string@DU?$char_traits@D@std@@V?$allocator@D@2@@std@@V?$basic_ptree@V?$basic_string@DU?$char_traits@D@std@@V?$allocator@D@2@@std@@V12@U?$less@V?$basic_string@DU?$char_traits@D@std@@V?$allocator@D@2@@std@@@2@@property_tree@boost@@@std@@$$CBV?$basic_string@DU?$char_traits@D@std@@V?$allocator@D@2@@2@$0A@@multi_index@boost@@U?$less@V?$basic_string@DU?$char_traits@D@std@@V?$allocator@D@2@@std@@@std@@U?$nth_layer@$01U?$pair@$$CBV?$basic_string@DU?$char_traits@D@std@@V?$allocator@D@2@@std@@V?$basic_ptree@V?$basic_string@DU?$char_traits@D@std@@V?$allocator@D@2@@std@@V12@U?$less@V?$basic_string@DU?$char_traits@D@std@@V?$allocator@D@2@@std@@@2@@property_tree@boost@@@std@@U?$indexed_by@U?$sequenced@U?$tag@Una@mpl@boost@@U123@U123@U123@U123@U123@U123@U123@U123@U123@U123@U123@U123@U123@U123@U123@U123@U123@U123@U123@@multi_index@boost@@@multi_index@boost@@U?$ordered_non_unique@U?$tag@Uby_name@subs@?$basic_ptree@V?$basic_string@DU?$char_traits@D@std@@V?$allocator@D@2@@std@@V12@U?$less@V?$basic_string@DU?$char_traits@D@std@@V?$allocator@D@2@@std@@@2@@property_tree@boost@@Una@mpl@5@U675@U675@U675@U675@U675@U675@U675@U675@U675@U675@U675@U675@U675@U675@U675@U675@U675@U675@@multi_index@boost@@U?$member@U?$pair@$$CBV?$basic_string@DU?$char_traits@D@std@@V?$allocator@D@2@@std@@V?$basic_ptree@V?$basic_string@DU?$char_traits@D@std@@V?$allocator@D@2@@std@@V12@U?$less@V?$basic_string@DU?$char_traits@D@std@@V?$allocator@D@2@@std@@@2@@property_tree@boost@@@std@@$$CBV?$basic_string@DU?$char_traits@D@std@@V?$allocator@D@2@@2@$0A@@23@U?$less@V?$basic_string@DU?$char_traits@D@std@@V?$allocator@D@2@@std@@@std@@@23@Una@mpl@3@U563@U563@U563@U563@U563@U563@U563@U563@U563@U563@U563@U563@U563@U563@U563@U563@U563@@multi_index@boost@@V?$allocator@U?$pair@$$CBV?$basic_string@DU?$char_traits@D@std@@V?$allocator@D@2@@std@@V?$basic_ptree@V?$basic_string@DU?$char_traits@D@std@@V?$allocator@D@2@@std@@V12@U?$less@V?$basic_string@DU?$char_traits@D@std@@V?$allocator@D@2@@std@@@2@@property_tree@boost@@@std@@@2@@detail@23@U?$vector1@Uby_name@subs@?$basic_ptree@V?$basic_string@DU?$char_traits@D@std@@V?$allocator@D@2@@std@@V12@U?$less@V?$basic_string@DU?$char_traits@D@std@@V?$allocator@D@2@@std@@@2@@property_tree@boost@@@mpl@3@Uordered_non_unique_tag@723@@detail@multi_index@boost@@IAEXPAU?$ordered_index_node@U?$index_node_base@U?$pair@$$CBV?$basic_string@DU?$char_traits@D@std@@V?$allocator@D@2@@std@@V?$basic_ptree@V?$basic_string@DU?$char_traits@D@std@@V?$allocator@D@2@@std@@V12@U?$less@V?$basic_string@DU?$char_traits@D@std@@V?$allocator@D@2@@std@@@2@@property_tree@boost@@@std@@V?$allocator@U?$pair@$$CBV?$basic_string@DU?$char_traits@D@std@@V?$allocator@D@2@@std@@V?$basic_ptree@V?$basic_string@DU?$char_traits@D@std@@V?$allocator@D@2@@std@@V12@U?$less@V?$basic_string@DU?$char_traits@D@std@@V?$allocator@D@2@@std@@@2@@property_tree@boost@@@std@@@2@@detail@multi_index@boost@@@234@@Z 00411980 f i eqmap.obj
 0001:00010a40       ?link_point@?$ordered_index@U?$member@U?$pair@$$CBV?$basic_string@DU?$char_traits@D@std@@V?$allocator@D@2@@std@@V?$basic_ptree@V?$basic_string@DU?$char_traits@D@std@@V?$allocator@D@2@@std@@V12@U?$less@V?$basic_string@DU?$char_traits@D@std@@V?$allocator@D@2@@std@@@2@@property_tree@boost@@@std@@$$CBV?$basic_string@DU?$char_traits@D@std@@V?$allocator@D@2@@2@$0A@@multi_index@boost@@U?$less@V?$basic_string@DU?$char_traits@D@std@@V?$allocator@D@2@@std@@@std@@U?$nth_layer@$01U?$pair@$$CBV?$basic_string@DU?$char_traits@D@std@@V?$allocator@D@2@@std@@V?$basic_ptree@V?$basic_string@DU?$char_traits@D@std@@V?$allocator@D@2@@std@@V12@U?$less@V?$basic_string@DU?$char_traits@D@std@@V?$allocator@D@2@@std@@@2@@property_tree@boost@@@std@@U?$indexed_by@U?$sequenced@U?$tag@Una@mpl@boost@@U123@U123@U123@U123@U123@U123@U123@U123@U123@U123@U123@U123@U123@U123@U123@U123@U123@U123@U123@@multi_index@boost@@@multi_index@boost@@U?$ordered_non_unique@U?$tag@Uby_name@subs@?$basic_ptree@V?$basic_string@DU?$char_traits@D@std@@V?$allocator@D@2@@std@@V12@U?$less@V?$basic_string@DU?$char_traits@D@std@@V?$allocator@D@2@@std@@@2@@property_tree@boost@@Una@mpl@5@U675@U675@U675@U675@U675@U675@U675@U675@U675@U675@U675@U675@U675@U675@U675@U675@U675@U675@@multi_index@boost@@U?$member@U?$pair@$$CBV?$basic_string@DU?$char_traits@D@std@@V?$allocator@D@2@@std@@V?$basic_ptree@V?$basic_string@DU?$char_traits@D@std@@V?$allocator@D@2@@std@@V12@U?$less@V?$basic_string@DU?$char_traits@D@std@@V?$allocator@D@2@@std@@@2@@property_tree@boost@@@std@@$$CBV?$basic_string@DU?$char_traits@D@std@@V?$allocator@D@2@@2@$0A@@23@U?$less@V?$basic_string@DU?$char_traits@D@std@@V?$allocator@D@2@@std@@@std@@@23@Una@mpl@3@U563@U563@U563@U563@U563@U563@U563@U563@U563@U563@U563@U563@U563@U563@U563@U563@U563@@multi_index@boost@@V?$allocator@U?$pair@$$CBV?$basic_string@DU?$char_traits@D@std@@V?$allocator@D@2@@std@@V?$basic_ptree@V?$basic_string@DU?$char_traits@D@std@@V?$allocator@D@2@@std@@V12@U?$less@V?$basic_string@DU?$char_traits@D@std@@V?$allocator@D@2@@std@@@2@@property_tree@boost@@@std@@@2@@detail@23@U?$vector1@Uby_name@subs@?$basic_ptree@V?$basic_string@DU?$char_traits@D@std@@V?$allocator@D@2@@std@@V12@U?$less@V?$basic_string@DU?$char_traits@D@std@@V?$allocator@D@2@@std@@@2@@property_tree@boost@@@mpl@3@Uordered_non_unique_tag@723@@detail@multi_index@boost@@AAE_NABV?$basic_string@DU?$char_traits@D@std@@V?$allocator@D@2@@std@@AAUlink_info@1234@Uordered_non_unique_tag@234@@Z 00411a40 f i eqmap.obj
 0001:00010b80       ?link@?$ordered_index_node_impl@V?$allocator@D@std@@@detail@multi_index@boost@@SAXPAU1234@W4ordered_index_side@234@00@Z 00411b80 f i eqmap.obj
 0001:00010be0       ?rebalance_for_erase@?$ordered_index_node_impl@V?$allocator@D@std@@@detail@multi_index@boost@@SAPAU1234@PAU1234@Uparent_ref@?$ordered_index_node_compressed_base@V?$allocator@D@std@@@234@AAPAU1234@2@Z 00411be0 f i eqmap.obj
 0001:00010f10       ?rotate_left@?$ordered_index_node_impl@V?$allocator@D@std@@@detail@multi_index@boost@@SAXPAU1234@Uparent_ref@?$ordered_index_node_compressed_base@V?$allocator@D@std@@@234@@Z 00411f10 f i eqmap.obj
 0001:00010f90       ?rotate_right@?$ordered_index_node_impl@V?$allocator@D@std@@@detail@multi_index@boost@@SAXPAU1234@Uparent_ref@?$ordered_index_node_compressed_base@V?$allocator@D@std@@@234@@Z 00411f90 f i eqmap.obj
 0001:00011010       ?rebalance@?$ordered_index_node_impl@V?$allocator@D@std@@@detail@multi_index@boost@@SAXPAU1234@Uparent_ref@?$ordered_index_node_compressed_base@V?$allocator@D@std@@@234@@Z 00412010 f i eqmap.obj
 0001:00011140       ??$find_format_all_impl2@V?$basic_string@DU?$char_traits@D@std@@V?$allocator@D@2@@std@@U?$first_finderF@PBDUis_equal@algorithm@boost@@@detail@algorithm@boost@@U?$const_formatF@V?$iterator_range@PBD@boost@@@456@V?$iterator_range@V?$_String_iterator@V?$_String_val@U?$_Simple_types@D@std@@@std@@@std@@@6@V?$iterator_range@PBD@6@@detail@algorithm@boost@@YAXAAV?$basic_string@DU?$char_traits@D@std@@V?$allocator@D@2@@std@@U?$first_finderF@PBDUis_equal@algorithm@boost@@@012@U?$const_formatF@V?$iterator_range@PBD@boost@@@012@V?$iterator_range@V?$_String_iterator@V?$_String_val@U?$_Simple_types@D@std@@@std@@@std@@@2@V?$iterator_range@PBD@2@@Z 00412140 f i eqmap.obj
 0001:00011380       ??$_Sort@PADH@std@@YAXPAD0H@Z 00412380 f i eqmap.obj
 0001:00011450       ??$?0U?$token_finderF@U?$is_any_ofF@D@detail@algorithm@boost@@@detail@algorithm@boost@@@?$find_iterator_base@V?$_String_iterator@V?$_String_val@U?$_Simple_types@D@std@@@std@@@std@@@detail@algorithm@boost@@IAE@U?$token_finderF@U?$is_any_ofF@D@detail@algorithm@boost@@@123@H@Z 00412450 f i eqmap.obj
 0001:000114f0       ??$_Construct@V?$transform_iterator@U?$copy_iterator_rangeF@V?$basic_string@DU?$char_traits@D@std@@V?$allocator@D@2@@std@@V?$_String_iterator@V?$_String_val@U?$_Simple_types@D@std@@@std@@@2@@detail@algorithm@boost@@V?$split_iterator@V?$_String_iterator@V?$_String_val@U?$_Simple_types@D@std@@@std@@@std@@@34@Uuse_default@4@U64@@boost@@@?$vector@V?$basic_string@DU?$char_traits@D@std@@V?$allocator@D@2@@std@@V?$allocator@V?$basic_string@DU?$char_traits@D@std@@V?$allocator@D@2@@std@@@2@@std@@QAEXV?$transform_iterator@U?$copy_iterator_rangeF@V?$basic_string@DU?$char_traits@D@std@@V?$allocator@D@2@@std@@V?$_String_iterator@V?$_String_val@U?$_Simple_types@D@std@@@std@@@2@@detail@algorithm@boost@@V?$split_iterator@V?$_String_iterator@V?$_String_val@U?$_Simple_types@D@std@@@std@@@std@@@34@Uuse_default@4@U64@@boost@@0@Z 004124f0 f i eqmap.obj
 0001:000115e0       ??$_Find_if@PADU?$is_any_ofF@D@detail@algorithm@boost@@@std@@YAPADPAD0U?$is_any_ofF@D@detail@algorithm@boost@@@Z 004125e0 f i eqmap.obj
 0001:00011670       ??$_Construct@V?$transform_iterator@U?$to_lowerF@D@detail@algorithm@boost@@V?$_String_const_iterator@V?$_String_val@U?$_Simple_types@D@std@@@std@@@std@@Uuse_default@4@U74@@boost@@@?$basic_string@DU?$char_traits@D@std@@V?$allocator@D@2@@std@@QAEXV?$transform_iterator@U?$to_lowerF@D@detail@algorithm@boost@@V?$_String_const_iterator@V?$_String_val@U?$_Simple_types@D@std@@@std@@@std@@Uuse_default@4@U74@@boost@@0Uinput_iterator_tag@1@@Z 00412670 f i eqmap.obj
 0001:000117d0       ??$find_format_all_copy_impl2@V?$basic_string@DU?$char_traits@D@std@@V?$allocator@D@2@@std@@U?$first_finderF@PBDUis_equal@algorithm@boost@@@detail@algorithm@boost@@U?$const_formatF@V?$iterator_range@PBD@boost@@@456@V?$iterator_range@V?$_String_const_iterator@V?$_String_val@U?$_Simple_types@D@std@@@std@@@std@@@6@V?$iterator_range@PBD@6@@detail@algorithm@boost@@YA?AV?$basic_string@DU?$char_traits@D@std@@V?$allocator@D@2@@std@@ABV34@U?$first_finderF@PBDUis_equal@algorithm@boost@@@012@U?$const_formatF@V?$iterator_range@PBD@boost@@@012@ABV?$iterator_range@V?$_String_const_iterator@V?$_String_val@U?$_Simple_types@D@std@@@std@@@std@@@2@ABV?$iterator_range@PBD@2@@Z 004127d0 f i eqmap.obj
 0001:000119b0       ??$enable_error_info@U?$error_info_injector@Vini_parser_error@ini_parser@property_tree@boost@@@exception_detail@boost@@@boost@@YA?AU?$error_info_injector@Vini_parser_error@ini_parser@property_tree@boost@@@exception_detail@0@ABU120@@Z 004129b0 f i eqmap.obj
 0001:00011a50       ??$enable_current_exception@U?$error_info_injector@Vini_parser_error@ini_parser@property_tree@boost@@@exception_detail@boost@@@boost@@YA?AV?$clone_impl@U?$error_info_injector@Vini_parser_error@ini_parser@property_tree@boost@@@exception_detail@boost@@@exception_detail@0@ABU?$error_info_injector@Vini_parser_error@ini_parser@property_tree@boost@@@20@@Z 00412a50 f i eqmap.obj
 0001:00011a70       ??0?$basic_ptree@V?$basic_string@DU?$char_traits@D@std@@V?$allocator@D@2@@std@@V12@U?$less@V?$basic_string@DU?$char_traits@D@std@@V?$allocator@D@2@@std@@@2@@property_tree@boost@@QAE@ABV012@@Z 00412a70 f i eqmap.obj
 0001:00011b00       ?walk_path@?$basic_ptree@V?$basic_string@DU?$char_traits@D@std@@V?$allocator@D@2@@std@@V12@U?$less@V?$basic_string@DU?$char_traits@D@std@@V?$allocator@D@2@@std@@@2@@property_tree@boost@@ABEPAV123@AAV?$string_path@V?$basic_string@DU?$char_traits@D@std@@V?$allocator@D@2@@std@@U?$id_translator@V?$basic_string@DU?$char_traits@D@std@@V?$allocator@D@2@@std@@@property_tree@boost@@@23@@Z 00412b00 f i eqmap.obj
 0001:00011c00       ??$?0AAV?$basic_string@DU?$char_traits@D@std@@V?$allocator@D@2@@std@@V?$basic_ptree@V?$basic_string@DU?$char_traits@D@std@@V?$allocator@D@2@@std@@V12@U?$less@V?$basic_string@DU?$char_traits@D@std@@V?$allocator@D@2@@std@@@2@@property_tree@boost@@@?$pair@V?$basic_string@DU?$char_traits@D@std@@V?$allocator@D@2@@std@@V?$basic_ptree@V?$basic_string@DU?$char_traits@D@std@@V?$allocator@D@2@@std@@V12@U?$less@V?$basic_string@DU?$char_traits@D@std@@V?$allocator@D@2@@std@@@2@@property_tree@boost@@@std@@QAE@AAV?$basic_string@DU?$char_traits@D@std@@V?$allocator@D@2@@1@$$QAV?$basic_ptree@V?$basic_string@DU?$char_traits@D@std@@V?$allocator@D@2@@std@@V12@U?$less@V?$basic_string@DU?$char_traits@D@std@@V?$allocator@D@2@@std@@@2@@property_tree@boost@@PAPAX@Z 00412c00 f i eqmap.obj
 0001:00011cc0       ??$get_value_optional@HV?$stream_translator@DU?$char_traits@D@std@@V?$allocator@D@2@H@property_tree@boost@@@?$basic_ptree@V?$basic_string@DU?$char_traits@D@std@@V?$allocator@D@2@@std@@V12@U?$less@V?$basic_string@DU?$char_traits@D@std@@V?$allocator@D@2@@std@@@2@@property_tree@boost@@QBE?AV?$optional@H@2@V?$stream_translator@DU?$char_traits@D@std@@V?$allocator@D@2@H@12@@Z 00412cc0 f i eqmap.obj
 0001:00011d40       ??$get_value_optional@_NV?$stream_translator@DU?$char_traits@D@std@@V?$allocator@D@2@_N@property_tree@boost@@@?$basic_ptree@V?$basic_string@DU?$char_traits@D@std@@V?$allocator@D@2@@std@@V12@U?$less@V?$basic_string@DU?$char_traits@D@std@@V?$allocator@D@2@@std@@@2@@property_tree@boost@@QBE?AV?$optional@_N@2@V?$stream_translator@DU?$char_traits@D@std@@V?$allocator@D@2@_N@12@@Z 00412d40 f i eqmap.obj
 0001:00011dc0       ??$get_value_optional@V?$basic_string@DU?$char_traits@D@std@@V?$allocator@D@2@@std@@U?$id_translator@V?$basic_string@DU?$char_traits@D@std@@V?$allocator@D@2@@std@@@property_tree@boost@@@?$basic_ptree@V?$basic_string@DU?$char_traits@D@std@@V?$allocator@D@2@@std@@V12@U?$less@V?$basic_string@DU?$char_traits@D@std@@V?$allocator@D@2@@std@@@2@@property_tree@boost@@QBE?AV?$optional@V?$basic_string@DU?$char_traits@D@std@@V?$allocator@D@2@@std@@@2@U?$id_translator@V?$basic_string@DU?$char_traits@D@std@@V?$allocator@D@2@@std@@@12@@Z 00412dc0 f i eqmap.obj
 0001:00011de0       ??$enable_error_info@Vbad_lexical_cast@boost@@@boost@@YA?AU?$error_info_injector@Vbad_lexical_cast@boost@@@exception_detail@0@ABVbad_lexical_cast@0@@Z 00412de0 f i eqmap.obj
 0001:00011e50       ??$enable_current_exception@U?$error_info_injector@Vbad_lexical_cast@boost@@@exception_detail@boost@@@boost@@YA?AV?$clone_impl@U?$error_info_injector@Vbad_lexical_cast@boost@@@exception_detail@boost@@@exception_detail@0@ABU?$error_info_injector@Vbad_lexical_cast@boost@@@20@@Z 00412e50 f i eqmap.obj
 0001:00011e70       ??$lcast_ret_unsigned@U?$char_traits@D@std@@ID@detail@boost@@YA_NAAIQBDPBD@Z 00412e70 f i eqmap.obj
 0001:00012180       ??_D?$clone_impl@U?$error_info_injector@Vbad_function_call@boost@@@exception_detail@boost@@@exception_detail@boost@@QAEXXZ 00413180 f i eqmap.obj
 0001:000121f0       ??0?$clone_impl@U?$error_info_injector@Vbad_function_call@boost@@@exception_detail@boost@@@exception_detail@boost@@QAE@ABV012@@Z 004131f0 f i eqmap.obj
 0001:000122d0       ??0?$error_info_injector@Vbad_function_call@boost@@@exception_detail@boost@@QAE@ABU012@@Z 004132d0 f i eqmap.obj
 0001:00012370       ??0bad_function_call@boost@@QAE@ABV01@@Z 00413370 f i eqmap.obj
 0001:00012390       ??_G?$clone_impl@U?$error_info_injector@Vbad_function_call@boost@@@exception_detail@boost@@@exception_detail@boost@@UAEPAXI@Z 00413390 f i eqmap.obj
 0001:00012390       ??_E?$clone_impl@U?$error_info_injector@Vbad_function_call@boost@@@exception_detail@boost@@@exception_detail@boost@@UAEPAXI@Z 00413390 f i * CIL library *:* CIL module *
 0001:000123c0       ??_E?$error_info_injector@Vbad_function_call@boost@@@exception_detail@boost@@UAEPAXI@Z 004133c0 f i * CIL library *:* CIL module *
 0001:000123c0       ??_G?$error_info_injector@Vbad_function_call@boost@@@exception_detail@boost@@UAEPAXI@Z 004133c0 f i eqmap.obj
 0001:00012410       ?get_value@?$id_translator@V?$basic_string@DU?$char_traits@D@std@@V?$allocator@D@2@@std@@@property_tree@boost@@QAE?AV?$optional@V?$basic_string@DU?$char_traits@D@std@@V?$allocator@D@2@@std@@@3@ABV?$basic_string@DU?$char_traits@D@std@@V?$allocator@D@2@@std@@@Z 00413410 f i eqmap.obj
 0001:00012490       ??0?$multi_index_container@U?$pair@$$CBV?$basic_string@DU?$char_traits@D@std@@V?$allocator@D@2@@std@@V?$basic_ptree@V?$basic_string@DU?$char_traits@D@std@@V?$allocator@D@2@@std@@V12@U?$less@V?$basic_string@DU?$char_traits@D@std@@V?$allocator@D@2@@std@@@2@@property_tree@boost@@@std@@U?$indexed_by@U?$sequenced@U?$tag@Una@mpl@boost@@U123@U123@U123@U123@U123@U123@U123@U123@U123@U123@U123@U123@U123@U123@U123@U123@U123@U123@U123@@multi_index@boost@@@multi_index@boost@@U?$ordered_non_unique@U?$tag@Uby_name@subs@?$basic_ptree@V?$basic_string@DU?$char_traits@D@std@@V?$allocator@D@2@@std@@V12@U?$less@V?$basic_string@DU?$char_traits@D@std@@V?$allocator@D@2@@std@@@2@@property_tree@boost@@Una@mpl@5@U675@U675@U675@U675@U675@U675@U675@U675@U675@U675@U675@U675@U675@U675@U675@U675@U675@U675@@multi_index@boost@@U?$member@U?$pair@$$CBV?$basic_string@DU?$char_traits@D@std@@V?$allocator@D@2@@std@@V?$basic_ptree@V?$basic_string@DU?$char_traits@D@std@@V?$allocator@D@2@@std@@V12@U?$less@V?$basic_string@DU?$char_traits@D@std@@V?$allocator@D@2@@std@@@2@@property_tree@boost@@@std@@$$CBV?$basic_string@DU?$char_traits@D@std@@V?$allocator@D@2@@2@$0A@@23@U?$less@V?$basic_string@DU?$char_traits@D@std@@V?$allocator@D@2@@std@@@std@@@23@Una@mpl@3@U563@U563@U563@U563@U563@U563@U563@U563@U563@U563@U563@U563@U563@U563@U563@U563@U563@@multi_index@boost@@V?$allocator@U?$pair@$$CBV?$basic_string@DU?$char_traits@D@std@@V?$allocator@D@2@@std@@V?$basic_ptree@V?$basic_string@DU?$char_traits@D@std@@V?$allocator@D@2@@std@@V12@U?$less@V?$basic_string@DU?$char_traits@D@std@@V?$allocator@D@2@@std@@@2@@property_tree@boost@@@std@@@2@@multi_index@boost@@QAE@ABV012@@Z 00413490 f i eqmap.obj
 0001:000125e0       ??0?$clone_impl@U?$error_info_injector@Vini_parser_error@ini_parser@property_tree@boost@@@exception_detail@boost@@@exception_detail@boost@@QAE@ABU?$error_info_injector@Vini_parser_error@ini_parser@property_tree@boost@@@12@@Z 004135e0 f i eqmap.obj
 0001:000126e0       ?get_value@?$stream_translator@DU?$char_traits@D@std@@V?$allocator@D@2@H@property_tree@boost@@QAE?AV?$optional@H@3@ABV?$basic_string@DU?$char_traits@D@std@@V?$allocator@D@2@@std@@@Z 004136e0 f i eqmap.obj
 0001:00012880       ?get_value@?$stream_translator@DU?$char_traits@D@std@@V?$allocator@D@2@_N@property_tree@boost@@QAE?AV?$optional@_N@3@ABV?$basic_string@DU?$char_traits@D@std@@V?$allocator@D@2@@std@@@Z 00413880 f i eqmap.obj
 0001:00012a60       ??0?$clone_impl@U?$error_info_injector@Vbad_lexical_cast@boost@@@exception_detail@boost@@@exception_detail@boost@@QAE@ABU?$error_info_injector@Vbad_lexical_cast@boost@@@12@@Z 00413a60 f i eqmap.obj
 0001:00012b60       ??1?$deque@DV?$allocator@D@std@@@std@@QAE@XZ 00413b60 f i eqmap.obj
 0001:00012b80       ?begin@?$deque@DV?$allocator@D@std@@@std@@QAE?AV?$_Deque_iterator@V?$_Deque_val@U?$_Deque_simple_types@D@std@@@std@@@2@XZ 00413b80 f i eqmap.obj
 0001:00012ba0       ?end@?$deque@DV?$allocator@D@std@@@std@@QAE?AV?$_Deque_iterator@V?$_Deque_val@U?$_Deque_simple_types@D@std@@@std@@@2@XZ 00413ba0 f i eqmap.obj
 0001:00012bc0       ??1?$error_info_injector@Vbad_function_call@boost@@@exception_detail@boost@@UAE@XZ 00413bc0 f i eqmap.obj
 0001:00012c00       ?clone@?$clone_impl@U?$error_info_injector@Vbad_function_call@boost@@@exception_detail@boost@@@exception_detail@boost@@EBEPBVclone_base@23@XZ 00413c00 f i eqmap.obj
 0001:00012c90       ?rethrow@?$clone_impl@U?$error_info_injector@Vbad_function_call@boost@@@exception_detail@boost@@@exception_detail@boost@@EBEXXZ 00413c90 f i eqmap.obj
 0001:00012cc0       ??_D?$basic_istringstream@DU?$char_traits@D@std@@V?$allocator@D@2@@std@@QAEXXZ 00413cc0 f i eqmap.obj
 0001:00012d00       ?copy_@?$sequenced_index@U?$nth_layer@$00U?$pair@$$CBV?$basic_string@DU?$char_traits@D@std@@V?$allocator@D@2@@std@@V?$basic_ptree@V?$basic_string@DU?$char_traits@D@std@@V?$allocator@D@2@@std@@V12@U?$less@V?$basic_string@DU?$char_traits@D@std@@V?$allocator@D@2@@std@@@2@@property_tree@boost@@@std@@U?$indexed_by@U?$sequenced@U?$tag@Una@mpl@boost@@U123@U123@U123@U123@U123@U123@U123@U123@U123@U123@U123@U123@U123@U123@U123@U123@U123@U123@U123@@multi_index@boost@@@multi_index@boost@@U?$ordered_non_unique@U?$tag@Uby_name@subs@?$basic_ptree@V?$basic_string@DU?$char_traits@D@std@@V?$allocator@D@2@@std@@V12@U?$less@V?$basic_string@DU?$char_traits@D@std@@V?$allocator@D@2@@std@@@2@@property_tree@boost@@Una@mpl@5@U675@U675@U675@U675@U675@U675@U675@U675@U675@U675@U675@U675@U675@U675@U675@U675@U675@U675@@multi_index@boost@@U?$member@U?$pair@$$CBV?$basic_string@DU?$char_traits@D@std@@V?$allocator@D@2@@std@@V?$basic_ptree@V?$basic_string@DU?$char_traits@D@std@@V?$allocator@D@2@@std@@V12@U?$less@V?$basic_string@DU?$char_traits@D@std@@V?$allocator@D@2@@std@@@2@@property_tree@boost@@@std@@$$CBV?$basic_string@DU?$char_traits@D@std@@V?$allocator@D@2@@2@$0A@@23@U?$less@V?$basic_string@DU?$char_traits@D@std@@V?$allocator@D@2@@std@@@std@@@23@Una@mpl@3@U563@U563@U563@U563@U563@U563@U563@U563@U563@U563@U563@U563@U563@U563@U563@U563@U563@@multi_index@boost@@V?$allocator@U?$pair@$$CBV?$basic_string@DU?$char_traits@D@std@@V?$allocator@D@2@@std@@V?$basic_ptree@V?$basic_string@DU?$char_traits@D@std@@V?$allocator@D@2@@std@@V12@U?$less@V?$basic_string@DU?$char_traits@D@std@@V?$allocator@D@2@@std@@@2@@property_tree@boost@@@std@@@2@@detail@multi_index@boost@@U?$vector0@Una@mpl@boost@@@mpl@4@@detail@multi_index@boost@@IAEXABV1234@ABV?$copy_map@U?$sequenced_index_node@U?$ordered_index_node@U?$index_node_base@U?$pair@$$CBV?$basic_string@DU?$char_traits@D@std@@V?$allocator@D@2@@std@@V?$basic_ptree@V?$basic_string@DU?$char_traits@D@std@@V?$allocator@D@2@@std@@V12@U?$less@V?$basic_string@DU?$char_traits@D@std@@V?$allocator@D@2@@std@@@2@@property_tree@boost@@@std@@V?$allocator@U?$pair@$$CBV?$basic_string@DU?$char_traits@D@std@@V?$allocator@D@2@@std@@V?$basic_ptree@V?$basic_string@DU?$char_traits@D@std@@V?$allocator@D@2@@std@@V12@U?$less@V?$basic_string@DU?$char_traits@D@std@@V?$allocator@D@2@@std@@@2@@property_tree@boost@@@std@@@2@@detail@multi_index@boost@@@detail@multi_index@boost@@@detail@multi_index@boost@@V?$allocator@U?$pair@$$CBV?$basic_string@DU?$char_traits@D@std@@V?$allocator@D@2@@std@@V?$basic_ptree@V?$basic_string@DU?$char_traits@D@std@@V?$allocator@D@2@@std@@V12@U?$less@V?$basic_string@DU?$char_traits@D@std@@V?$allocator@D@2@@std@@@2@@property_tree@boost@@@std@@@std@@@234@@Z 00413d00 f i eqmap.obj
 0001:00012dd0       ?_Tidy@?$deque@DV?$allocator@D@std@@@std@@IAEXXZ 00413dd0 f i eqmap.obj
 0001:00012e30       ??0?$clone_impl@U?$error_info_injector@Vbad_function_call@boost@@@exception_detail@boost@@@exception_detail@boost@@AAE@ABV012@Uclone_tag@012@@Z 00413e30 f i eqmap.obj
 0001:00012f30       ??1?$copy_map@U?$sequenced_index_node@U?$ordered_index_node@U?$index_node_base@U?$pair@$$CBV?$basic_string@DU?$char_traits@D@std@@V?$allocator@D@2@@std@@V?$basic_ptree@V?$basic_string@DU?$char_traits@D@std@@V?$allocator@D@2@@std@@V12@U?$less@V?$basic_string@DU?$char_traits@D@std@@V?$allocator@D@2@@std@@@2@@property_tree@boost@@@std@@V?$allocator@U?$pair@$$CBV?$basic_string@DU?$char_traits@D@std@@V?$allocator@D@2@@std@@V?$basic_ptree@V?$basic_string@DU?$char_traits@D@std@@V?$allocator@D@2@@std@@V12@U?$less@V?$basic_string@DU?$char_traits@D@std@@V?$allocator@D@2@@std@@@2@@property_tree@boost@@@std@@@2@@detail@multi_index@boost@@@detail@multi_index@boost@@@detail@multi_index@boost@@V?$allocator@U?$pair@$$CBV?$basic_string@DU?$char_traits@D@std@@V?$allocator@D@2@@std@@V?$basic_ptree@V?$basic_string@DU?$char_traits@D@std@@V?$allocator@D@2@@std@@V12@U?$less@V?$basic_string@DU?$char_traits@D@std@@V?$allocator@D@2@@std@@@2@@property_tree@boost@@@std@@@std@@@detail@multi_index@boost@@QAE@XZ 00413f30 f i eqmap.obj
 0001:00012ff0       ?clone@?$copy_map@U?$sequenced_index_node@U?$ordered_index_node@U?$index_node_base@U?$pair@$$CBV?$basic_string@DU?$char_traits@D@std@@V?$allocator@D@2@@std@@V?$basic_ptree@V?$basic_string@DU?$char_traits@D@std@@V?$allocator@D@2@@std@@V12@U?$less@V?$basic_string@DU?$char_traits@D@std@@V?$allocator@D@2@@std@@@2@@property_tree@boost@@@std@@V?$allocator@U?$pair@$$CBV?$basic_string@DU?$char_traits@D@std@@V?$allocator@D@2@@std@@V?$basic_ptree@V?$basic_string@DU?$char_traits@D@std@@V?$allocator@D@2@@std@@V12@U?$less@V?$basic_string@DU?$char_traits@D@std@@V?$allocator@D@2@@std@@@2@@property_tree@boost@@@std@@@2@@detail@multi_index@boost@@@detail@multi_index@boost@@@detail@multi_index@boost@@V?$allocator@U?$pair@$$CBV?$basic_string@DU?$char_traits@D@std@@V?$allocator@D@2@@std@@V?$basic_ptree@V?$basic_string@DU?$char_traits@D@std@@V?$allocator@D@2@@std@@V12@U?$less@V?$basic_string@DU?$char_traits@D@std@@V?$allocator@D@2@@std@@@2@@property_tree@boost@@@std@@@std@@@detail@multi_index@boost@@QAEXPAU?$sequenced_index_node@U?$ordered_index_node@U?$index_node_base@U?$pair@$$CBV?$basic_string@DU?$char_traits@D@std@@V?$allocator@D@2@@std@@V?$basic_ptree@V?$basic_string@DU?$char_traits@D@std@@V?$allocator@D@2@@std@@V12@U?$less@V?$basic_string@DU?$char_traits@D@std@@V?$allocator@D@2@@std@@@2@@property_tree@boost@@@std@@V?$allocator@U?$pair@$$CBV?$basic_string@DU?$char_traits@D@std@@V?$allocator@D@2@@std@@V?$basic_ptree@V?$basic_string@DU?$char_traits@D@std@@V?$allocator@D@2@@std@@V12@U?$less@V?$basic_string@DU?$char_traits@D@std@@V?$allocator@D@2@@std@@@2@@property_tree@boost@@@std@@@2@@detail@multi_index@boost@@@detail@multi_index@boost@@@234@@Z 00413ff0 f i eqmap.obj
 0001:00013100       ??0?$basic_istringstream@DU?$char_traits@D@std@@V?$allocator@D@2@@std@@QAE@ABV?$basic_string@DU?$char_traits@D@std@@V?$allocator@D@2@@1@H@Z 00414100 f i eqmap.obj
 0001:000131e0       ??_G?$basic_istringstream@DU?$char_traits@D@std@@V?$allocator@D@2@@std@@UAEPAXI@Z 004141e0 f i eqmap.obj
 0001:000131e0       ??_E?$basic_istringstream@DU?$char_traits@D@std@@V?$allocator@D@2@@std@@UAEPAXI@Z 004141e0 f i * CIL library *:* CIL module *
 0001:00013240       ?copy_@?$ordered_index@U?$member@U?$pair@$$CBV?$basic_string@DU?$char_traits@D@std@@V?$allocator@D@2@@std@@V?$basic_ptree@V?$basic_string@DU?$char_traits@D@std@@V?$allocator@D@2@@std@@V12@U?$less@V?$basic_string@DU?$char_traits@D@std@@V?$allocator@D@2@@std@@@2@@property_tree@boost@@@std@@$$CBV?$basic_string@DU?$char_traits@D@std@@V?$allocator@D@2@@2@$0A@@multi_index@boost@@U?$less@V?$basic_string@DU?$char_traits@D@std@@V?$allocator@D@2@@std@@@std@@U?$nth_layer@$01U?$pair@$$CBV?$basic_string@DU?$char_traits@D@std@@V?$allocator@D@2@@std@@V?$basic_ptree@V?$basic_string@DU?$char_traits@D@std@@V?$allocator@D@2@@std@@V12@U?$less@V?$basic_string@DU?$char_traits@D@std@@V?$allocator@D@2@@std@@@2@@property_tree@boost@@@std@@U?$indexed_by@U?$sequenced@U?$tag@Una@mpl@boost@@U123@U123@U123@U123@U123@U123@U123@U123@U123@U123@U123@U123@U123@U123@U123@U123@U123@U123@U123@@multi_index@boost@@@multi_index@boost@@U?$ordered_non_unique@U?$tag@Uby_name@subs@?$basic_ptree@V?$basic_string@DU?$char_traits@D@std@@V?$allocator@D@2@@std@@V12@U?$less@V?$basic_string@DU?$char_traits@D@std@@V?$allocator@D@2@@std@@@2@@property_tree@boost@@Una@mpl@5@U675@U675@U675@U675@U675@U675@U675@U675@U675@U675@U675@U675@U675@U675@U675@U675@U675@U675@@multi_index@boost@@U?$member@U?$pair@$$CBV?$basic_string@DU?$char_traits@D@std@@V?$allocator@D@2@@std@@V?$basic_ptree@V?$basic_string@DU?$char_traits@D@std@@V?$allocator@D@2@@std@@V12@U?$less@V?$basic_string@DU?$char_traits@D@std@@V?$allocator@D@2@@std@@@2@@property_tree@boost@@@std@@$$CBV?$basic_string@DU?$char_traits@D@std@@V?$allocator@D@2@@2@$0A@@23@U?$less@V?$basic_string@DU?$char_traits@D@std@@V?$allocator@D@2@@std@@@std@@@23@Una@mpl@3@U563@U563@U563@U563@U563@U563@U563@U563@U563@U563@U563@U563@U563@U563@U563@U563@U563@@multi_index@boost@@V?$allocator@U?$pair@$$CBV?$basic_string@DU?$char_traits@D@std@@V?$allocator@D@2@@std@@V?$basic_ptree@V?$basic_string@DU?$char_traits@D@std@@V?$allocator@D@2@@std@@V12@U?$less@V?$basic_string@DU?$char_traits@D@std@@V?$allocator@D@2@@std@@@2@@property_tree@boost@@@std@@@2@@detail@23@U?$vector1@Uby_name@subs@?$basic_ptree@V?$basic_string@DU?$char_traits@D@std@@V?$allocator@D@2@@std@@V12@U?$less@V?$basic_string@DU?$char_traits@D@std@@V?$allocator@D@2@@std@@@2@@property_tree@boost@@@mpl@3@Uordered_non_unique_tag@723@@detail@multi_index@boost@@IAEXABV1234@ABV?$copy_map@U?$sequenced_index_node@U?$ordered_index_node@U?$index_node_base@U?$pair@$$CBV?$basic_string@DU?$char_traits@D@std@@V?$allocator@D@2@@std@@V?$basic_ptree@V?$basic_string@DU?$char_traits@D@std@@V?$allocator@D@2@@std@@V12@U?$less@V?$basic_string@DU?$char_traits@D@std@@V?$allocator@D@2@@std@@@2@@property_tree@boost@@@std@@V?$allocator@U?$pair@$$CBV?$basic_string@DU?$char_traits@D@std@@V?$allocator@D@2@@std@@V?$basic_ptree@V?$basic_string@DU?$char_traits@D@std@@V?$allocator@D@2@@std@@V12@U?$less@V?$basic_string@DU?$char_traits@D@std@@V?$allocator@D@2@@std@@@2@@property_tree@boost@@@std@@@2@@detail@multi_index@boost@@@detail@multi_index@boost@@@detail@multi_index@boost@@V?$allocator@U?$pair@$$CBV?$basic_string@DU?$char_traits@D@std@@V?$allocator@D@2@@std@@V?$basic_ptree@V?$basic_string@DU?$char_traits@D@std@@V?$allocator@D@2@@std@@V12@U?$less@V?$basic_string@DU?$char_traits@D@std@@V?$allocator@D@2@@std@@@2@@property_tree@boost@@@std@@@std@@@234@@Z 00414240 f i eqmap.obj
 0001:000134f0       ??1?$auto_space@U?$copy_map_entry@U?$sequenced_index_node@U?$ordered_index_node@U?$index_node_base@U?$pair@$$CBV?$basic_string@DU?$char_traits@D@std@@V?$allocator@D@2@@std@@V?$basic_ptree@V?$basic_string@DU?$char_traits@D@std@@V?$allocator@D@2@@std@@V12@U?$less@V?$basic_string@DU?$char_traits@D@std@@V?$allocator@D@2@@std@@@2@@property_tree@boost@@@std@@V?$allocator@U?$pair@$$CBV?$basic_string@DU?$char_traits@D@std@@V?$allocator@D@2@@std@@V?$basic_ptree@V?$basic_string@DU?$char_traits@D@std@@V?$allocator@D@2@@std@@V12@U?$less@V?$basic_string@DU?$char_traits@D@std@@V?$allocator@D@2@@std@@@2@@property_tree@boost@@@std@@@2@@detail@multi_index@boost@@@detail@multi_index@boost@@@detail@multi_index@boost@@@detail@multi_index@boost@@V?$allocator@U?$pair@$$CBV?$basic_string@DU?$char_traits@D@std@@V?$allocator@D@2@@std@@V?$basic_ptree@V?$basic_string@DU?$char_traits@D@std@@V?$allocator@D@2@@std@@V12@U?$less@V?$basic_string@DU?$char_traits@D@std@@V?$allocator@D@2@@std@@@2@@property_tree@boost@@@std@@@std@@@detail@multi_index@boost@@QAE@XZ 004144f0 f i eqmap.obj
 0001:00013510       ??$insert@V?$basic_string@DU?$char_traits@D@std@@V?$allocator@D@2@@std@@V?$_Deque_iterator@V?$_Deque_val@U?$_Deque_simple_types@D@std@@@std@@@2@@detail@algorithm@boost@@YAXAAV?$basic_string@DU?$char_traits@D@std@@V?$allocator@D@2@@std@@V?$_String_iterator@V?$_String_val@U?$_Simple_types@D@std@@@std@@@4@V?$_Deque_iterator@V?$_Deque_val@U?$_Deque_simple_types@D@std@@@std@@@4@2@Z 00414510 f i eqmap.obj
 0001:000135f0       ??$_Unguarded_partition@PAD@std@@YA?AU?$pair@PADPAD@0@PAD0@Z 004145f0 f i eqmap.obj
 0001:00013750       ??$sort_heap@PAD@std@@YAXPAD0@Z 00414750 f i eqmap.obj
 0001:00013790       ??$?0U?$token_finderF@U?$is_any_ofF@D@detail@algorithm@boost@@@detail@algorithm@boost@@@?$function2@V?$iterator_range@V?$_String_iterator@V?$_String_val@U?$_Simple_types@D@std@@@std@@@std@@@boost@@V?$_String_iterator@V?$_String_val@U?$_Simple_types@D@std@@@std@@@std@@V34@@boost@@QAE@U?$token_finderF@U?$is_any_ofF@D@detail@algorithm@boost@@@detail@algorithm@1@H@Z 00414790 f i eqmap.obj
 0001:00013840       ??$insert@V?$transform_iterator@U?$copy_iterator_rangeF@V?$basic_string@DU?$char_traits@D@std@@V?$allocator@D@2@@std@@V?$_String_iterator@V?$_String_val@U?$_Simple_types@D@std@@@std@@@2@@detail@algorithm@boost@@V?$split_iterator@V?$_String_iterator@V?$_String_val@U?$_Simple_types@D@std@@@std@@@std@@@34@Uuse_default@4@U64@@boost@@@?$vector@V?$basic_string@DU?$char_traits@D@std@@V?$allocator@D@2@@std@@V?$allocator@V?$basic_string@DU?$char_traits@D@std@@V?$allocator@D@2@@std@@@2@@std@@QAE?AV?$_Vector_iterator@V?$_Vector_val@U?$_Simple_types@V?$basic_string@DU?$char_traits@D@std@@V?$allocator@D@2@@std@@@std@@@std@@@1@V?$_Vector_const_iterator@V?$_Vector_val@U?$_Simple_types@V?$basic_string@DU?$char_traits@D@std@@V?$allocator@D@2@@std@@@std@@@std@@@1@V?$transform_iterator@U?$copy_iterator_rangeF@V?$basic_string@DU?$char_traits@D@std@@V?$allocator@D@2@@std@@V?$_String_iterator@V?$_String_val@U?$_Simple_types@D@std@@@std@@@2@@detail@algorithm@boost@@V?$split_iterator@V?$_String_iterator@V?$_String_val@U?$_Simple_types@D@std@@@std@@@std@@@34@Uuse_default@4@U64@@boost@@1@Z 00414840 f i eqmap.obj
 0001:00013930       ??$binary_search@PBDD@std@@YA_NPBD0ABD@Z 00414930 f i eqmap.obj
 0001:000139a0       ?reduce@?$string_path@V?$basic_string@DU?$char_traits@D@std@@V?$allocator@D@2@@std@@U?$id_translator@V?$basic_string@DU?$char_traits@D@std@@V?$allocator@D@2@@std@@@property_tree@boost@@@property_tree@boost@@QAE?AV?$basic_string@DU?$char_traits@D@std@@V?$allocator@D@2@@std@@XZ 004149a0 f i eqmap.obj
 0001:00013b20       ??$ordered_index_find@U?$ordered_index_node@U?$index_node_base@U?$pair@$$CBV?$basic_string@DU?$char_traits@D@std@@V?$allocator@D@2@@std@@V?$basic_ptree@V?$basic_string@DU?$char_traits@D@std@@V?$allocator@D@2@@std@@V12@U?$less@V?$basic_string@DU?$char_traits@D@std@@V?$allocator@D@2@@std@@@2@@property_tree@boost@@@std@@V?$allocator@U?$pair@$$CBV?$basic_string@DU?$char_traits@D@std@@V?$allocator@D@2@@std@@V?$basic_ptree@V?$basic_string@DU?$char_traits@D@std@@V?$allocator@D@2@@std@@V12@U?$less@V?$basic_string@DU?$char_traits@D@std@@V?$allocator@D@2@@std@@@2@@property_tree@boost@@@std@@@2@@detail@multi_index@boost@@@detail@multi_index@boost@@U?$member@U?$pair@$$CBV?$basic_string@DU?$char_traits@D@std@@V?$allocator@D@2@@std@@V?$basic_ptree@V?$basic_string@DU?$char_traits@D@std@@V?$allocator@D@2@@std@@V12@U?$less@V?$basic_string@DU?$char_traits@D@std@@V?$allocator@D@2@@std@@@2@@property_tree@boost@@@std@@$$CBV?$basic_string@DU?$char_traits@D@std@@V?$allocator@D@2@@2@$0A@@34@V?$basic_string@DU?$char_traits@D@std@@V?$allocator@D@2@@std@@U?$less@V?$basic_string@DU?$char_traits@D@std@@V?$allocator@D@2@@std@@@7@@detail@multi_index@boost@@YAPAU?$ordered_index_node@U?$index_node_base@U?$pair@$$CBV?$basic_string@DU?$char_traits@D@std@@V?$allocator@D@2@@std@@V?$basic_ptree@V?$basic_string@DU?$char_traits@D@std@@V?$allocator@D@2@@std@@V12@U?$less@V?$basic_string@DU?$char_traits@D@std@@V?$allocator@D@2@@std@@@2@@property_tree@boost@@@std@@V?$allocator@U?$pair@$$CBV?$basic_string@DU?$char_traits@D@std@@V?$allocator@D@2@@std@@V?$basic_ptree@V?$basic_string@DU?$char_traits@D@std@@V?$allocator@D@2@@std@@V12@U?$less@V?$basic_string@DU?$char_traits@D@std@@V?$allocator@D@2@@std@@@2@@property_tree@boost@@@std@@@2@@detail@multi_index@boost@@@012@PAU3012@0ABU?$member@U?$pair@$$CBV?$basic_string@DU?$char_traits@D@std@@V?$allocator@D@2@@std@@V?$basic_ptree@V?$basic_string@DU?$char_traits@D@std@@V?$allocator@D@2@@std@@V12@U?$less@V?$basic_string@DU?$char_traits@D@std@@V?$allocator@D@2@@std@@@2@@property_tree@boost@@@std@@$$CBV?$basic_string@DU?$char_traits@D@std@@V?$allocator@D@2@@2@$0A@@12@ABV?$basic_string@DU?$char_traits@D@std@@V?$allocator@D@2@@std@@ABU?$less@V?$basic_string@DU?$char_traits@D@std@@V?$allocator@D@2@@std@@@6@@Z 00414b20 f i eqmap.obj
 0001:00013c70       ??$parse_inf_nan_impl@DM@detail@boost@@YA_NPBD0AAM0000DD@Z 00414c70 f i eqmap.obj
 0001:00013dc0       ??$_Move@PAV?$basic_string@DU?$char_traits@D@std@@V?$allocator@D@2@@std@@PAV12@@std@@YAPAV?$basic_string@DU?$char_traits@D@std@@V?$allocator@D@2@@0@PAV10@00U_Nonscalar_ptr_iterator_tag@0@@Z 00414dc0 f i eqmap.obj
 0001:00013e50       ??$enable_error_info@Vbad_function_call@boost@@@boost@@YA?AU?$error_info_injector@Vbad_function_call@boost@@@exception_detail@0@ABVbad_function_call@0@@Z 00414e50 f i eqmap.obj
 0001:00013ea0       ??$enable_current_exception@U?$error_info_injector@Vbad_function_call@boost@@@exception_detail@boost@@@boost@@YA?AV?$clone_impl@U?$error_info_injector@Vbad_function_call@boost@@@exception_detail@boost@@@exception_detail@0@ABU?$error_info_injector@Vbad_function_call@boost@@@20@@Z 00414ea0 f i eqmap.obj
 0001:00013ec0       ??$lower_bound@PBU?$copy_map_entry@U?$sequenced_index_node@U?$ordered_index_node@U?$index_node_base@U?$pair@$$CBV?$basic_string@DU?$char_traits@D@std@@V?$allocator@D@2@@std@@V?$basic_ptree@V?$basic_string@DU?$char_traits@D@std@@V?$allocator@D@2@@std@@V12@U?$less@V?$basic_string@DU?$char_traits@D@std@@V?$allocator@D@2@@std@@@2@@property_tree@boost@@@std@@V?$allocator@U?$pair@$$CBV?$basic_string@DU?$char_traits@D@std@@V?$allocator@D@2@@std@@V?$basic_ptree@V?$basic_string@DU?$char_traits@D@std@@V?$allocator@D@2@@std@@V12@U?$less@V?$basic_string@DU?$char_traits@D@std@@V?$allocator@D@2@@std@@@2@@property_tree@boost@@@std@@@2@@detail@multi_index@boost@@@detail@multi_index@boost@@@detail@multi_index@boost@@@detail@multi_index@boost@@U1234@@std@@YAPBU?$copy_map_entry@U?$sequenced_index_node@U?$ordered_index_node@U?$index_node_base@U?$pair@$$CBV?$basic_string@DU?$char_traits@D@std@@V?$allocator@D@2@@std@@V?$basic_ptree@V?$basic_string@DU?$char_traits@D@std@@V?$allocator@D@2@@std@@V12@U?$less@V?$basic_string@DU?$char_traits@D@std@@V?$allocator@D@2@@std@@@2@@property_tree@boost@@@std@@V?$allocator@U?$pair@$$CBV?$basic_string@DU?$char_traits@D@std@@V?$allocator@D@2@@std@@V?$basic_ptree@V?$basic_string@DU?$char_traits@D@std@@V?$allocator@D@2@@std@@V12@U?$less@V?$basic_string@DU?$char_traits@D@std@@V?$allocator@D@2@@std@@@2@@property_tree@boost@@@std@@@2@@detail@multi_index@boost@@@detail@multi_index@boost@@@detail@multi_index@boost@@@detail@multi_index@boost@@PBU1234@0ABU1234@@Z 00414ec0 f i eqmap.obj
 0001:00013f10       ??0?$_Deque_iterator@V?$_Deque_val@U?$_Deque_simple_types@D@std@@@std@@@std@@QAE@ABV01@@Z 00414f10 f i eqmap.obj
 0001:00013f70       ??0?$clone_impl@U?$error_info_injector@Vbad_function_call@boost@@@exception_detail@boost@@@exception_detail@boost@@QAE@ABU?$error_info_injector@Vbad_function_call@boost@@@12@@Z 00414f70 f i eqmap.obj
 0001:00014070       ?replace@?$basic_string@DU?$char_traits@D@std@@V?$allocator@D@2@@std@@QAEAAV12@V?$_String_const_iterator@V?$_String_val@U?$_Simple_types@D@std@@@std@@@2@000@Z 00415070 f i eqmap.obj
 0001:00014100       ??$?RV?$deque@DV?$allocator@D@std@@@std@@V?$basic_string@DU?$char_traits@D@std@@V?$allocator@D@2@@1@V?$_String_iterator@V?$_String_val@U?$_Simple_types@D@std@@@std@@@1@@?$process_segment_helper@$0A@@detail@algorithm@boost@@QAE?AV?$_String_iterator@V?$_String_val@U?$_Simple_types@D@std@@@std@@@std@@AAV?$deque@DV?$allocator@D@std@@@5@AAV?$basic_string@DU?$char_traits@D@std@@V?$allocator@D@2@@5@V45@22@Z 00415100 f i eqmap.obj
 0001:000141d0       ??$insert@PBD@?$deque@DV?$allocator@D@std@@@std@@QAE?AV?$_Deque_iterator@V?$_Deque_val@U?$_Deque_simple_types@D@std@@@std@@@1@V?$_Deque_const_iterator@V?$_Deque_val@U?$_Deque_simple_types@D@std@@@std@@@1@PBD1@Z 004151d0 f i eqmap.obj
 0001:000143d0       ??$insert@V?$_Deque_iterator@V?$_Deque_val@U?$_Deque_simple_types@D@std@@@std@@@std@@@?$basic_string@DU?$char_traits@D@std@@V?$allocator@D@2@@std@@QAE?AV?$_String_iterator@V?$_String_val@U?$_Simple_types@D@std@@@std@@@1@V?$_String_const_iterator@V?$_String_val@U?$_Simple_types@D@std@@@std@@@1@V?$_Deque_iterator@V?$_Deque_val@U?$_Deque_simple_types@D@std@@@std@@@1@1@Z 004153d0 f i eqmap.obj
 0001:000144d0       ??$_Median@PAD@std@@YAXPAD00@Z 004154d0 f i eqmap.obj
 0001:000145e0       ??$_Make_heap@PADHD@std@@YAXPAD0PAH0@Z 004155e0 f i eqmap.obj
 0001:00014680       ??$_Insertion_sort1@PADD@std@@YAXPAD00@Z 00415680 f i eqmap.obj
 0001:00014710       ??$assign_to@U?$token_finderF@U?$is_any_ofF@D@detail@algorithm@boost@@@detail@algorithm@boost@@@?$function2@V?$iterator_range@V?$_String_iterator@V?$_String_val@U?$_Simple_types@D@std@@@std@@@std@@@boost@@V?$_String_iterator@V?$_String_val@U?$_Simple_types@D@std@@@std@@@std@@V34@@boost@@AAEXU?$token_finderF@U?$is_any_ofF@D@detail@algorithm@boost@@@detail@algorithm@1@@Z 00415710 f i eqmap.obj
 0001:000147c0       ??$_Insert@V?$transform_iterator@U?$copy_iterator_rangeF@V?$basic_string@DU?$char_traits@D@std@@V?$allocator@D@2@@std@@V?$_String_iterator@V?$_String_val@U?$_Simple_types@D@std@@@std@@@2@@detail@algorithm@boost@@V?$split_iterator@V?$_String_iterator@V?$_String_val@U?$_Simple_types@D@std@@@std@@@std@@@34@Uuse_default@4@U64@@boost@@@?$vector@V?$basic_string@DU?$char_traits@D@std@@V?$allocator@D@2@@std@@V?$allocator@V?$basic_string@DU?$char_traits@D@std@@V?$allocator@D@2@@std@@@2@@std@@QAEXV?$_Vector_const_iterator@V?$_Vector_val@U?$_Simple_types@V?$basic_string@DU?$char_traits@D@std@@V?$allocator@D@2@@std@@@std@@@std@@@1@V?$transform_iterator@U?$copy_iterator_rangeF@V?$basic_string@DU?$char_traits@D@std@@V?$allocator@D@2@@std@@V?$_String_iterator@V?$_String_val@U?$_Simple_types@D@std@@@std@@@2@@detail@algorithm@boost@@V?$split_iterator@V?$_String_iterator@V?$_String_val@U?$_Simple_types@D@std@@@std@@@std@@@34@Uuse_default@4@U64@@boost@@1Uinput_iterator_tag@1@@Z 004157c0 f i eqmap.obj
 0001:000149c0       ??$?0V?$string_path@V?$basic_string@DU?$char_traits@D@std@@V?$allocator@D@2@@std@@U?$id_translator@V?$basic_string@DU?$char_traits@D@std@@V?$allocator@D@2@@std@@@property_tree@boost@@@property_tree@boost@@@ptree_bad_path@property_tree@boost@@QAE@ABV?$basic_string@DU?$char_traits@D@std@@V?$allocator@D@2@@std@@ABV?$string_path@V?$basic_string@DU?$char_traits@D@std@@V?$allocator@D@2@@std@@U?$id_translator@V?$basic_string@DU?$char_traits@D@std@@V?$allocator@D@2@@std@@@property_tree@boost@@@12@@Z 004159c0 f i eqmap.obj
 0001:00014aa0       ??$throw_exception_@Vptree_bad_path@property_tree@boost@@@exception_detail@boost@@YAXABVptree_bad_path@property_tree@1@PBD1H@Z 00415aa0 f i eqmap.obj
 0001:00014b20       ??$_Sort@PAU?$copy_map_entry@U?$sequenced_index_node@U?$ordered_index_node@U?$index_node_base@U?$pair@$$CBV?$basic_string@DU?$char_traits@D@std@@V?$allocator@D@2@@std@@V?$basic_ptree@V?$basic_string@DU?$char_traits@D@std@@V?$allocator@D@2@@std@@V12@U?$less@V?$basic_string@DU?$char_traits@D@std@@V?$allocator@D@2@@std@@@2@@property_tree@boost@@@std@@V?$allocator@U?$pair@$$CBV?$basic_string@DU?$char_traits@D@std@@V?$allocator@D@2@@std@@V?$basic_ptree@V?$basic_string@DU?$char_traits@D@std@@V?$allocator@D@2@@std@@V12@U?$less@V?$basic_string@DU?$char_traits@D@std@@V?$allocator@D@2@@std@@@2@@property_tree@boost@@@std@@@2@@detail@multi_index@boost@@@detail@multi_index@boost@@@detail@multi_index@boost@@@detail@multi_index@boost@@H@std@@YAXPAU?$copy_map_entry@U?$sequenced_index_node@U?$ordered_index_node@U?$index_node_base@U?$pair@$$CBV?$basic_string@DU?$char_traits@D@std@@V?$allocator@D@2@@std@@V?$basic_ptree@V?$basic_string@DU?$char_traits@D@std@@V?$allocator@D@2@@std@@V12@U?$less@V?$basic_string@DU?$char_traits@D@std@@V?$allocator@D@2@@std@@@2@@property_tree@boost@@@std@@V?$allocator@U?$pair@$$CBV?$basic_string@DU?$char_traits@D@std@@V?$allocator@D@2@@std@@V?$basic_ptree@V?$basic_string@DU?$char_traits@D@std@@V?$allocator@D@2@@std@@V12@U?$less@V?$basic_string@DU?$char_traits@D@std@@V?$allocator@D@2@@std@@@2@@property_tree@boost@@@std@@@2@@detail@multi_index@boost@@@detail@multi_index@boost@@@detail@multi_index@boost@@@detail@multi_index@boost@@0H@Z 00415b20 f i eqmap.obj
 0001:00014c10       ??D?$iterator_facade@V?$transform_iterator@U?$copy_iterator_rangeF@V?$basic_string@DU?$char_traits@D@std@@V?$allocator@D@2@@std@@V?$_String_iterator@V?$_String_val@U?$_Simple_types@D@std@@@std@@@2@@detail@algorithm@boost@@V?$split_iterator@V?$_String_iterator@V?$_String_val@U?$_Simple_types@D@std@@@std@@@std@@@34@Uuse_default@4@U64@@boost@@V?$basic_string@DU?$char_traits@D@std@@V?$allocator@D@2@@std@@Uforward_traversal_tag@2@V34@H@boost@@QBE?AV?$basic_string@DU?$char_traits@D@std@@V?$allocator@D@2@@std@@XZ 00415c10 f i eqmap.obj
 0001:00014c30       ?push_front@?$deque@DV?$allocator@D@std@@@std@@QAEXABD@Z 00415c30 f i eqmap.obj
 0001:00014cc0       ?pop_front@?$deque@DV?$allocator@D@std@@@std@@QAEXXZ 00415cc0 f i eqmap.obj
 0001:00014ce0       ?push_back@?$deque@DV?$allocator@D@std@@@std@@QAEXABD@Z 00415ce0 f i eqmap.obj
 0001:00014d70       ??H?$_Deque_iterator@V?$_Deque_val@U?$_Deque_simple_types@D@std@@@std@@@std@@QBE?AV01@H@Z 00415d70 f i eqmap.obj
 0001:00014e00       ?manage@?$functor_manager@U?$token_finderF@U?$is_any_ofF@D@detail@algorithm@boost@@@detail@algorithm@boost@@@function@detail@boost@@SAXABTfunction_buffer@234@AAT5234@W4functor_manager_operation_type@234@@Z 00415e00 f i eqmap.obj
 0001:00014e30       ?invoke@?$function_obj_invoker2@U?$token_finderF@U?$is_any_ofF@D@detail@algorithm@boost@@@detail@algorithm@boost@@V?$iterator_range@V?$_String_iterator@V?$_String_val@U?$_Simple_types@D@std@@@std@@@std@@@4@V?$_String_iterator@V?$_String_val@U?$_Simple_types@D@std@@@std@@@std@@V67@@function@detail@boost@@SA?AV?$iterator_range@V?$_String_iterator@V?$_String_val@U?$_Simple_types@D@std@@@std@@@std@@@4@AATfunction_buffer@234@V?$_String_iterator@V?$_String_val@U?$_Simple_types@D@std@@@std@@@std@@1@Z 00415e30 f i eqmap.obj
 0001:00014e50       ??1?$error_info_injector@Vptree_bad_path@property_tree@boost@@@exception_detail@boost@@UAE@XZ 00415e50 f i eqmap.obj
 0001:00014ea0       ??_E?$error_info_injector@Vptree_bad_path@property_tree@boost@@@exception_detail@boost@@UAEPAXI@Z 00415ea0 f i * CIL library *:* CIL module *
 0001:00014ea0       ??_G?$error_info_injector@Vptree_bad_path@property_tree@boost@@@exception_detail@boost@@UAEPAXI@Z 00415ea0 f i eqmap.obj
 0001:00014f10       ?_Swap_bx@?$basic_string@DU?$char_traits@D@std@@V?$allocator@D@2@@std@@QAEXAAV12@@Z 00415f10 f i eqmap.obj
 0001:00014fb0       ?_Growmap@?$deque@DV?$allocator@D@std@@@std@@IAEXI@Z 00415fb0 f i eqmap.obj
 0001:00015130       ?manage_small@?$functor_manager_common@U?$token_finderF@U?$is_any_ofF@D@detail@algorithm@boost@@@detail@algorithm@boost@@@function@detail@boost@@SAXABTfunction_buffer@234@AAT5234@W4functor_manager_operation_type@234@@Z 00416130 f i eqmap.obj
 0001:00015240       ??$move_from_storage@V?$deque@DV?$allocator@D@std@@@std@@V?$_String_iterator@V?$_String_val@U?$_Simple_types@D@std@@@std@@@2@@detail@algorithm@boost@@YA?AV?$_String_iterator@V?$_String_val@U?$_Simple_types@D@std@@@std@@@std@@AAV?$deque@DV?$allocator@D@std@@@4@V34@1@Z 00416240 f i eqmap.obj
 0001:000152d0       ??$reverse@V?$_Deque_iterator@V?$_Deque_val@U?$_Deque_simple_types@D@std@@@std@@@std@@@std@@YAXV?$_Deque_iterator@V?$_Deque_val@U?$_Deque_simple_types@D@std@@@std@@@0@0@Z 004162d0 f i eqmap.obj
 0001:00015360       ??$rotate@V?$_Deque_iterator@V?$_Deque_val@U?$_Deque_simple_types@D@std@@@std@@@std@@@std@@YA?AV?$_Deque_iterator@V?$_Deque_val@U?$_Deque_simple_types@D@std@@@std@@@0@V10@00@Z 00416360 f i eqmap.obj
 0001:00015510       ??$replace@V?$_Deque_iterator@V?$_Deque_val@U?$_Deque_simple_types@D@std@@@std@@@std@@@?$basic_string@DU?$char_traits@D@std@@V?$allocator@D@2@@std@@QAEAAV01@V?$_String_const_iterator@V?$_String_val@U?$_Simple_types@D@std@@@std@@@1@0V?$_Deque_iterator@V?$_Deque_val@U?$_Deque_simple_types@D@std@@@std@@@1@1@Z 00416510 f i eqmap.obj
 0001:00015640       ??$_Adjust_heap@PADHD@std@@YAXPADHH$$QAD@Z 00416640 f i eqmap.obj
 0001:000156e0       ??$assign_to@U?$token_finderF@U?$is_any_ofF@D@detail@algorithm@boost@@@detail@algorithm@boost@@@?$basic_vtable2@V?$iterator_range@V?$_String_iterator@V?$_String_val@U?$_Simple_types@D@std@@@std@@@std@@@boost@@V?$_String_iterator@V?$_String_val@U?$_Simple_types@D@std@@@std@@@std@@V34@@function@detail@boost@@QBE_NU?$token_finderF@U?$is_any_ofF@D@detail@algorithm@boost@@@2algorithm@3@AATfunction_buffer@123@@Z 004166e0 f i eqmap.obj
 0001:00015790       ??$_Construct@V?$_String_iterator@V?$_String_val@U?$_Simple_types@D@std@@@std@@@std@@@?$basic_string@DU?$char_traits@D@std@@V?$allocator@D@2@@std@@QAEXV?$_String_iterator@V?$_String_val@U?$_Simple_types@D@std@@@std@@@1@0Uforward_iterator_tag@1@@Z 00416790 f i eqmap.obj
 0001:000158f0       ??$prepare_bad_path_what@V?$string_path@V?$basic_string@DU?$char_traits@D@std@@V?$allocator@D@2@@std@@U?$id_translator@V?$basic_string@DU?$char_traits@D@std@@V?$allocator@D@2@@std@@@property_tree@boost@@@property_tree@boost@@@detail@property_tree@boost@@YA?AV?$basic_string@DU?$char_traits@D@std@@V?$allocator@D@2@@std@@ABV34@ABV?$string_path@V?$basic_string@DU?$char_traits@D@std@@V?$allocator@D@2@@std@@U?$id_translator@V?$basic_string@DU?$char_traits@D@std@@V?$allocator@D@2@@std@@@property_tree@boost@@@12@@Z 004168f0 f i eqmap.obj
 0001:000159e0       ??$enable_error_info@Vptree_bad_path@property_tree@boost@@@boost@@YA?AU?$error_info_injector@Vptree_bad_path@property_tree@boost@@@exception_detail@0@ABVptree_bad_path@property_tree@0@@Z 004169e0 f i eqmap.obj
 0001:00015a00       ??$_Unguarded_partition@PAU?$copy_map_entry@U?$sequenced_index_node@U?$ordered_index_node@U?$index_node_base@U?$pair@$$CBV?$basic_string@DU?$char_traits@D@std@@V?$allocator@D@2@@std@@V?$basic_ptree@V?$basic_string@DU?$char_traits@D@std@@V?$allocator@D@2@@std@@V12@U?$less@V?$basic_string@DU?$char_traits@D@std@@V?$allocator@D@2@@std@@@2@@property_tree@boost@@@std@@V?$allocator@U?$pair@$$CBV?$basic_string@DU?$char_traits@D@std@@V?$allocator@D@2@@std@@V?$basic_ptree@V?$basic_string@DU?$char_traits@D@std@@V?$allocator@D@2@@std@@V12@U?$less@V?$basic_string@DU?$char_traits@D@std@@V?$allocator@D@2@@std@@@2@@property_tree@boost@@@std@@@2@@detail@multi_index@boost@@@detail@multi_index@boost@@@detail@multi_index@boost@@@detail@multi_index@boost@@@std@@YA?AU?$pair@PAU?$copy_map_entry@U?$sequenced_index_node@U?$ordered_index_node@U?$index_node_base@U?$pair@$$CBV?$basic_string@DU?$char_traits@D@std@@V?$allocator@D@2@@std@@V?$basic_ptree@V?$basic_string@DU?$char_traits@D@std@@V?$allocator@D@2@@std@@V12@U?$less@V?$basic_string@DU?$char_traits@D@std@@V?$allocator@D@2@@std@@@2@@property_tree@boost@@@std@@V?$allocator@U?$pair@$$CBV?$basic_string@DU?$char_traits@D@std@@V?$allocator@D@2@@std@@V?$basic_ptree@V?$basic_string@DU?$char_traits@D@std@@V?$allocator@D@2@@std@@V12@U?$less@V?$basic_string@DU?$char_traits@D@std@@V?$allocator@D@2@@std@@@2@@property_tree@boost@@@std@@@2@@detail@multi_index@boost@@@detail@multi_index@boost@@@detail@multi_index@boost@@@detail@multi_index@boost@@PAU1234@@0@PAU?$copy_map_entry@U?$sequenced_index_node@U?$ordered_index_node@U?$index_node_base@U?$pair@$$CBV?$basic_string@DU?$char_traits@D@std@@V?$allocator@D@2@@std@@V?$basic_ptree@V?$basic_string@DU?$char_traits@D@std@@V?$allocator@D@2@@std@@V12@U?$less@V?$basic_string@DU?$char_traits@D@std@@V?$allocator@D@2@@std@@@2@@property_tree@boost@@@std@@V?$allocator@U?$pair@$$CBV?$basic_string@DU?$char_traits@D@std@@V?$allocator@D@2@@std@@V?$basic_ptree@V?$basic_string@DU?$char_traits@D@std@@V?$allocator@D@2@@std@@V12@U?$less@V?$basic_string@DU?$char_traits@D@std@@V?$allocator@D@2@@std@@@2@@property_tree@boost@@@std@@@2@@detail@multi_index@boost@@@detail@multi_index@boost@@@detail@multi_index@boost@@@detail@multi_index@boost@@0@Z 00416a00 f i eqmap.obj
 0001:00015be0       ??$dereference@V?$transform_iterator@U?$copy_iterator_rangeF@V?$basic_string@DU?$char_traits@D@std@@V?$allocator@D@2@@std@@V?$_String_iterator@V?$_String_val@U?$_Simple_types@D@std@@@std@@@2@@detail@algorithm@boost@@V?$split_iterator@V?$_String_iterator@V?$_String_val@U?$_Simple_types@D@std@@@std@@@std@@@34@Uuse_default@4@U64@@boost@@@iterator_core_access@boost@@CA?AV?$basic_string@DU?$char_traits@D@std@@V?$allocator@D@2@@std@@ABV?$transform_iterator@U?$copy_iterator_rangeF@V?$basic_string@DU?$char_traits@D@std@@V?$allocator@D@2@@std@@V?$_String_iterator@V?$_String_val@U?$_Simple_types@D@std@@@std@@@2@@detail@algorithm@boost@@V?$split_iterator@V?$_String_iterator@V?$_String_val@U?$_Simple_types@D@std@@@std@@@std@@@34@Uuse_default@4@U64@@1@@Z 00416be0 f i eqmap.obj
 0001:00015c00       ??_D?$clone_impl@U?$error_info_injector@Vptree_bad_path@property_tree@boost@@@exception_detail@boost@@@exception_detail@boost@@QAEXXZ 00416c00 f i eqmap.obj
 0001:00015c20       ??0?$clone_impl@U?$error_info_injector@Vptree_bad_path@property_tree@boost@@@exception_detail@boost@@@exception_detail@boost@@QAE@ABV012@@Z 00416c20 f i eqmap.obj
 0001:00015cc0       ??0?$error_info_injector@Vptree_bad_path@property_tree@boost@@@exception_detail@boost@@QAE@ABU012@@Z 00416cc0 f i eqmap.obj
 0001:00015d70       ??0ptree_bad_path@property_tree@boost@@QAE@ABV012@@Z 00416d70 f i eqmap.obj
 0001:00015de0       ??_G?$clone_impl@U?$error_info_injector@Vptree_bad_path@property_tree@boost@@@exception_detail@boost@@@exception_detail@boost@@UAEPAXI@Z 00416de0 f i eqmap.obj
 0001:00015de0       ??_E?$clone_impl@U?$error_info_injector@Vptree_bad_path@property_tree@boost@@@exception_detail@boost@@@exception_detail@boost@@UAEPAXI@Z 00416de0 f i * CIL library *:* CIL module *
 0001:00015e10       ?dump@?$string_path@V?$basic_string@DU?$char_traits@D@std@@V?$allocator@D@2@@std@@U?$id_translator@V?$basic_string@DU?$char_traits@D@std@@V?$allocator@D@2@@std@@@property_tree@boost@@@property_tree@boost@@QBE?AV?$basic_string@DU?$char_traits@D@std@@V?$allocator@D@2@@std@@XZ 00416e10 f i eqmap.obj
 0001:00015e30       ?dereference@?$transform_iterator@U?$copy_iterator_rangeF@V?$basic_string@DU?$char_traits@D@std@@V?$allocator@D@2@@std@@V?$_String_iterator@V?$_String_val@U?$_Simple_types@D@std@@@std@@@2@@detail@algorithm@boost@@V?$split_iterator@V?$_String_iterator@V?$_String_val@U?$_Simple_types@D@std@@@std@@@std@@@34@Uuse_default@4@U64@@boost@@ABE?AV?$basic_string@DU?$char_traits@D@std@@V?$allocator@D@2@@std@@XZ 00416e30 f i eqmap.obj
 0001:00015e50       ??0?$error_info_injector@Vptree_bad_path@property_tree@boost@@@exception_detail@boost@@QAE@ABVptree_bad_path@property_tree@2@@Z 00416e50 f i eqmap.obj
 0001:00015ef0       ??0?$holder@V?$string_path@V?$basic_string@DU?$char_traits@D@std@@V?$allocator@D@2@@std@@U?$id_translator@V?$basic_string@DU?$char_traits@D@std@@V?$allocator@D@2@@std@@@property_tree@boost@@@property_tree@boost@@@any@boost@@QAE@ABV?$string_path@V?$basic_string@DU?$char_traits@D@std@@V?$allocator@D@2@@std@@U?$id_translator@V?$basic_string@DU?$char_traits@D@std@@V?$allocator@D@2@@std@@@property_tree@boost@@@property_tree@2@@Z 00416ef0 f i eqmap.obj
 0001:00015f90       ?type@?$holder@V?$string_path@V?$basic_string@DU?$char_traits@D@std@@V?$allocator@D@2@@std@@U?$id_translator@V?$basic_string@DU?$char_traits@D@std@@V?$allocator@D@2@@std@@@property_tree@boost@@@property_tree@boost@@@any@boost@@UBEABVtype_info@@XZ 00416f90 f i eqmap.obj
 0001:00015fa0       ?clone@?$holder@V?$string_path@V?$basic_string@DU?$char_traits@D@std@@V?$allocator@D@2@@std@@U?$id_translator@V?$basic_string@DU?$char_traits@D@std@@V?$allocator@D@2@@std@@@property_tree@boost@@@property_tree@boost@@@any@boost@@UBEPAVplaceholder@23@XZ 00416fa0 f i eqmap.obj
 0001:00016010       ??1?$clone_impl@U?$error_info_injector@Vptree_bad_path@property_tree@boost@@@exception_detail@boost@@@exception_detail@boost@@UAE@XZ 00417010 f i eqmap.obj
 0001:00016090       ?clone@?$clone_impl@U?$error_info_injector@Vptree_bad_path@property_tree@boost@@@exception_detail@boost@@@exception_detail@boost@@EBEPBVclone_base@23@XZ 00417090 f i eqmap.obj
 0001:00016120       ?rethrow@?$clone_impl@U?$error_info_injector@Vptree_bad_path@property_tree@boost@@@exception_detail@boost@@@exception_detail@boost@@EBEXXZ 00417120 f i eqmap.obj
 0001:000161d0       ??_E?$holder@V?$string_path@V?$basic_string@DU?$char_traits@D@std@@V?$allocator@D@2@@std@@U?$id_translator@V?$basic_string@DU?$char_traits@D@std@@V?$allocator@D@2@@std@@@property_tree@boost@@@property_tree@boost@@@any@boost@@UAEPAXI@Z 004171d0 f i * CIL library *:* CIL module *
 0001:000161d0       ??_G?$holder@V?$string_path@V?$basic_string@DU?$char_traits@D@std@@V?$allocator@D@2@@std@@U?$id_translator@V?$basic_string@DU?$char_traits@D@std@@V?$allocator@D@2@@std@@@property_tree@boost@@@property_tree@boost@@@any@boost@@UAEPAXI@Z 004171d0 f i eqmap.obj
 0001:00016220       ??R?$copy_iterator_rangeF@V?$basic_string@DU?$char_traits@D@std@@V?$allocator@D@2@@std@@V?$_String_iterator@V?$_String_val@U?$_Simple_types@D@std@@@std@@@2@@detail@algorithm@boost@@QBE?AV?$basic_string@DU?$char_traits@D@std@@V?$allocator@D@2@@std@@ABV?$iterator_range@V?$_String_iterator@V?$_String_val@U?$_Simple_types@D@std@@@std@@@std@@@3@@Z 00417220 f i eqmap.obj
 0001:00016240       ??0?$clone_impl@U?$error_info_injector@Vptree_bad_path@property_tree@boost@@@exception_detail@boost@@@exception_detail@boost@@AAE@ABV012@Uclone_tag@012@@Z 00417240 f i eqmap.obj
 0001:00016300       ??$_Reverse@V?$_Deque_unchecked_iterator@V?$_Deque_val@U?$_Deque_simple_types@D@std@@@std@@@std@@@std@@YAXV?$_Deque_unchecked_iterator@V?$_Deque_val@U?$_Deque_simple_types@D@std@@@std@@@0@0Ubidirectional_iterator_tag@0@@Z 00417300 f i eqmap.obj
 0001:00016360       ??$?0V?$_Deque_iterator@V?$_Deque_val@U?$_Deque_simple_types@D@std@@@std@@@std@@@?$basic_string@DU?$char_traits@D@std@@V?$allocator@D@2@@std@@QAE@V?$_Deque_iterator@V?$_Deque_val@U?$_Deque_simple_types@D@std@@@std@@@1@0PAPAX@Z 00417360 f i eqmap.obj
 0001:00016450       ??$assign_to@U?$token_finderF@U?$is_any_ofF@D@detail@algorithm@boost@@@detail@algorithm@boost@@@?$basic_vtable2@V?$iterator_range@V?$_String_iterator@V?$_String_val@U?$_Simple_types@D@std@@@std@@@std@@@boost@@V?$_String_iterator@V?$_String_val@U?$_Simple_types@D@std@@@std@@@std@@V34@@function@detail@boost@@ABE_NU?$token_finderF@U?$is_any_ofF@D@detail@algorithm@boost@@@2algorithm@3@AATfunction_buffer@123@Ufunction_obj_tag@123@@Z 00417450 f i eqmap.obj
 0001:00016510       ??$?HDU?$char_traits@D@std@@V?$allocator@D@1@@std@@YA?AV?$basic_string@DU?$char_traits@D@std@@V?$allocator@D@2@@0@ABV10@PBD@Z 00417510 f i eqmap.obj
 0001:000165d0       ??$?HDU?$char_traits@D@std@@V?$allocator@D@1@@std@@YA?AV?$basic_string@DU?$char_traits@D@std@@V?$allocator@D@2@@0@$$QAV10@0@Z 004175d0 f i eqmap.obj
 0001:00016680       ??$?HDU?$char_traits@D@std@@V?$allocator@D@1@@std@@YA?AV?$basic_string@DU?$char_traits@D@std@@V?$allocator@D@2@@0@$$QAV10@PBD@Z 00417680 f i eqmap.obj
 0001:00016700       ??$enable_error_info@U?$error_info_injector@Vptree_bad_path@property_tree@boost@@@exception_detail@boost@@@boost@@YA?AU?$error_info_injector@Vptree_bad_path@property_tree@boost@@@exception_detail@0@ABU120@@Z 00417700 f i eqmap.obj
 0001:00016720       ??$enable_current_exception@U?$error_info_injector@Vptree_bad_path@property_tree@boost@@@exception_detail@boost@@@boost@@YA?AV?$clone_impl@U?$error_info_injector@Vptree_bad_path@property_tree@boost@@@exception_detail@boost@@@exception_detail@0@ABU?$error_info_injector@Vptree_bad_path@property_tree@boost@@@20@@Z 00417720 f i eqmap.obj
 0001:00016740       ??$_Rotate@PAV?$basic_string@DU?$char_traits@D@std@@V?$allocator@D@2@@std@@HV12@@std@@YAXPAV?$basic_string@DU?$char_traits@D@std@@V?$allocator@D@2@@0@00PAH0@Z 00417740 f i eqmap.obj
 0001:00016870       ??$_Median@PAU?$copy_map_entry@U?$sequenced_index_node@U?$ordered_index_node@U?$index_node_base@U?$pair@$$CBV?$basic_string@DU?$char_traits@D@std@@V?$allocator@D@2@@std@@V?$basic_ptree@V?$basic_string@DU?$char_traits@D@std@@V?$allocator@D@2@@std@@V12@U?$less@V?$basic_string@DU?$char_traits@D@std@@V?$allocator@D@2@@std@@@2@@property_tree@boost@@@std@@V?$allocator@U?$pair@$$CBV?$basic_string@DU?$char_traits@D@std@@V?$allocator@D@2@@std@@V?$basic_ptree@V?$basic_string@DU?$char_traits@D@std@@V?$allocator@D@2@@std@@V12@U?$less@V?$basic_string@DU?$char_traits@D@std@@V?$allocator@D@2@@std@@@2@@property_tree@boost@@@std@@@2@@detail@multi_index@boost@@@detail@multi_index@boost@@@detail@multi_index@boost@@@detail@multi_index@boost@@@std@@YAXPAU?$copy_map_entry@U?$sequenced_index_node@U?$ordered_index_node@U?$index_node_base@U?$pair@$$CBV?$basic_string@DU?$char_traits@D@std@@V?$allocator@D@2@@std@@V?$basic_ptree@V?$basic_string@DU?$char_traits@D@std@@V?$allocator@D@2@@std@@V12@U?$less@V?$basic_string@DU?$char_traits@D@std@@V?$allocator@D@2@@std@@@2@@property_tree@boost@@@std@@V?$allocator@U?$pair@$$CBV?$basic_string@DU?$char_traits@D@std@@V?$allocator@D@2@@std@@V?$basic_ptree@V?$basic_string@DU?$char_traits@D@std@@V?$allocator@D@2@@std@@V12@U?$less@V?$basic_string@DU?$char_traits@D@std@@V?$allocator@D@2@@std@@@2@@property_tree@boost@@@std@@@2@@detail@multi_index@boost@@@detail@multi_index@boost@@@detail@multi_index@boost@@@detail@multi_index@boost@@00@Z 00417870 f i eqmap.obj
 0001:00016a80       ??$_Make_heap@PAU?$copy_map_entry@U?$sequenced_index_node@U?$ordered_index_node@U?$index_node_base@U?$pair@$$CBV?$basic_string@DU?$char_traits@D@std@@V?$allocator@D@2@@std@@V?$basic_ptree@V?$basic_string@DU?$char_traits@D@std@@V?$allocator@D@2@@std@@V12@U?$less@V?$basic_string@DU?$char_traits@D@std@@V?$allocator@D@2@@std@@@2@@property_tree@boost@@@std@@V?$allocator@U?$pair@$$CBV?$basic_string@DU?$char_traits@D@std@@V?$allocator@D@2@@std@@V?$basic_ptree@V?$basic_string@DU?$char_traits@D@std@@V?$allocator@D@2@@std@@V12@U?$less@V?$basic_string@DU?$char_traits@D@std@@V?$allocator@D@2@@std@@@2@@property_tree@boost@@@std@@@2@@detail@multi_index@boost@@@detail@multi_index@boost@@@detail@multi_index@boost@@@detail@multi_index@boost@@HU1234@@std@@YAXPAU?$copy_map_entry@U?$sequenced_index_node@U?$ordered_index_node@U?$index_node_base@U?$pair@$$CBV?$basic_string@DU?$char_traits@D@std@@V?$allocator@D@2@@std@@V?$basic_ptree@V?$basic_string@DU?$char_traits@D@std@@V?$allocator@D@2@@std@@V12@U?$less@V?$basic_string@DU?$char_traits@D@std@@V?$allocator@D@2@@std@@@2@@property_tree@boost@@@std@@V?$allocator@U?$pair@$$CBV?$basic_string@DU?$char_traits@D@std@@V?$allocator@D@2@@std@@V?$basic_ptree@V?$basic_string@DU?$char_traits@D@std@@V?$allocator@D@2@@std@@V12@U?$less@V?$basic_string@DU?$char_traits@D@std@@V?$allocator@D@2@@std@@@2@@property_tree@boost@@@std@@@2@@detail@multi_index@boost@@@detail@multi_index@boost@@@detail@multi_index@boost@@@detail@multi_index@boost@@0PAH0@Z 00417a80 f i eqmap.obj
 0001:00016b70       ??$_Sort_heap@PAU?$copy_map_entry@U?$sequenced_index_node@U?$ordered_index_node@U?$index_node_base@U?$pair@$$CBV?$basic_string@DU?$char_traits@D@std@@V?$allocator@D@2@@std@@V?$basic_ptree@V?$basic_string@DU?$char_traits@D@std@@V?$allocator@D@2@@std@@V12@U?$less@V?$basic_string@DU?$char_traits@D@std@@V?$allocator@D@2@@std@@@2@@property_tree@boost@@@std@@V?$allocator@U?$pair@$$CBV?$basic_string@DU?$char_traits@D@std@@V?$allocator@D@2@@std@@V?$basic_ptree@V?$basic_string@DU?$char_traits@D@std@@V?$allocator@D@2@@std@@V12@U?$less@V?$basic_string@DU?$char_traits@D@std@@V?$allocator@D@2@@std@@@2@@property_tree@boost@@@std@@@2@@detail@multi_index@boost@@@detail@multi_index@boost@@@detail@multi_index@boost@@@detail@multi_index@boost@@@std@@YAXPAU?$copy_map_entry@U?$sequenced_index_node@U?$ordered_index_node@U?$index_node_base@U?$pair@$$CBV?$basic_string@DU?$char_traits@D@std@@V?$allocator@D@2@@std@@V?$basic_ptree@V?$basic_string@DU?$char_traits@D@std@@V?$allocator@D@2@@std@@V12@U?$less@V?$basic_string@DU?$char_traits@D@std@@V?$allocator@D@2@@std@@@2@@property_tree@boost@@@std@@V?$allocator@U?$pair@$$CBV?$basic_string@DU?$char_traits@D@std@@V?$allocator@D@2@@std@@V?$basic_ptree@V?$basic_string@DU?$char_traits@D@std@@V?$allocator@D@2@@std@@V12@U?$less@V?$basic_string@DU?$char_traits@D@std@@V?$allocator@D@2@@std@@@2@@property_tree@boost@@@std@@@2@@detail@multi_index@boost@@@detail@multi_index@boost@@@detail@multi_index@boost@@@detail@multi_index@boost@@0@Z 00417b70 f i eqmap.obj
 0001:00016be0       ??$_Insertion_sort1@PAU?$copy_map_entry@U?$sequenced_index_node@U?$ordered_index_node@U?$index_node_base@U?$pair@$$CBV?$basic_string@DU?$char_traits@D@std@@V?$allocator@D@2@@std@@V?$basic_ptree@V?$basic_string@DU?$char_traits@D@std@@V?$allocator@D@2@@std@@V12@U?$less@V?$basic_string@DU?$char_traits@D@std@@V?$allocator@D@2@@std@@@2@@property_tree@boost@@@std@@V?$allocator@U?$pair@$$CBV?$basic_string@DU?$char_traits@D@std@@V?$allocator@D@2@@std@@V?$basic_ptree@V?$basic_string@DU?$char_traits@D@std@@V?$allocator@D@2@@std@@V12@U?$less@V?$basic_string@DU?$char_traits@D@std@@V?$allocator@D@2@@std@@@2@@property_tree@boost@@@std@@@2@@detail@multi_index@boost@@@detail@multi_index@boost@@@detail@multi_index@boost@@@detail@multi_index@boost@@U1234@@std@@YAXPAU?$copy_map_entry@U?$sequenced_index_node@U?$ordered_index_node@U?$index_node_base@U?$pair@$$CBV?$basic_string@DU?$char_traits@D@std@@V?$allocator@D@2@@std@@V?$basic_ptree@V?$basic_string@DU?$char_traits@D@std@@V?$allocator@D@2@@std@@V12@U?$less@V?$basic_string@DU?$char_traits@D@std@@V?$allocator@D@2@@std@@@2@@property_tree@boost@@@std@@V?$allocator@U?$pair@$$CBV?$basic_string@DU?$char_traits@D@std@@V?$allocator@D@2@@std@@V?$basic_ptree@V?$basic_string@DU?$char_traits@D@std@@V?$allocator@D@2@@std@@V12@U?$less@V?$basic_string@DU?$char_traits@D@std@@V?$allocator@D@2@@std@@@2@@property_tree@boost@@@std@@@2@@detail@multi_index@boost@@@detail@multi_index@boost@@@detail@multi_index@boost@@@detail@multi_index@boost@@00@Z 00417be0 f i eqmap.obj
 0001:00016c60       ??$copy_range@V?$basic_string@DU?$char_traits@D@std@@V?$allocator@D@2@@std@@V?$iterator_range@V?$_String_iterator@V?$_String_val@U?$_Simple_types@D@std@@@std@@@std@@@boost@@@boost@@YA?AV?$basic_string@DU?$char_traits@D@std@@V?$allocator@D@2@@std@@ABV?$iterator_range@V?$_String_iterator@V?$_String_val@U?$_Simple_types@D@std@@@std@@@std@@@0@@Z 00417c60 f i eqmap.obj
 0001:00016ca0       ??0?$clone_impl@U?$error_info_injector@Vptree_bad_path@property_tree@boost@@@exception_detail@boost@@@exception_detail@boost@@QAE@ABU?$error_info_injector@Vptree_bad_path@property_tree@boost@@@12@@Z 00417ca0 f i eqmap.obj
 0001:00016d60       ?append@?$basic_string@DU?$char_traits@D@std@@V?$allocator@D@2@@std@@QAEAAV12@PBDI@Z 00417d60 f i eqmap.obj
 0001:00016e80       ?insert@?$basic_string@DU?$char_traits@D@std@@V?$allocator@D@2@@std@@QAEAAV12@IABV12@II@Z 00417e80 f i eqmap.obj
 0001:00016fb0       ??$_Rotate@V?$_Deque_unchecked_iterator@V?$_Deque_val@U?$_Deque_simple_types@D@std@@@std@@@std@@HD@std@@YAXV?$_Deque_unchecked_iterator@V?$_Deque_val@U?$_Deque_simple_types@D@std@@@std@@@0@00PAHPAD@Z 00417fb0 f i eqmap.obj
 0001:000170f0       ??$_Construct@V?$_Deque_iterator@V?$_Deque_val@U?$_Deque_simple_types@D@std@@@std@@@std@@@?$basic_string@DU?$char_traits@D@std@@V?$allocator@D@2@@std@@QAEXV?$_Deque_iterator@V?$_Deque_val@U?$_Deque_simple_types@D@std@@@std@@@1@0Uforward_iterator_tag@1@@Z 004180f0 f i eqmap.obj
 0001:00017330       ??$assign_functor@U?$token_finderF@U?$is_any_ofF@D@detail@algorithm@boost@@@detail@algorithm@boost@@@?$basic_vtable2@V?$iterator_range@V?$_String_iterator@V?$_String_val@U?$_Simple_types@D@std@@@std@@@std@@@boost@@V?$_String_iterator@V?$_String_val@U?$_Simple_types@D@std@@@std@@@std@@V34@@function@detail@boost@@ABEXU?$token_finderF@U?$is_any_ofF@D@detail@algorithm@boost@@@2algorithm@3@AATfunction_buffer@123@U?$bool_@$00@mpl@3@@Z 00418330 f i eqmap.obj
 0001:000173d0       ??$_Adjust_heap@PAU?$copy_map_entry@U?$sequenced_index_node@U?$ordered_index_node@U?$index_node_base@U?$pair@$$CBV?$basic_string@DU?$char_traits@D@std@@V?$allocator@D@2@@std@@V?$basic_ptree@V?$basic_string@DU?$char_traits@D@std@@V?$allocator@D@2@@std@@V12@U?$less@V?$basic_string@DU?$char_traits@D@std@@V?$allocator@D@2@@std@@@2@@property_tree@boost@@@std@@V?$allocator@U?$pair@$$CBV?$basic_string@DU?$char_traits@D@std@@V?$allocator@D@2@@std@@V?$basic_ptree@V?$basic_string@DU?$char_traits@D@std@@V?$allocator@D@2@@std@@V12@U?$less@V?$basic_string@DU?$char_traits@D@std@@V?$allocator@D@2@@std@@@2@@property_tree@boost@@@std@@@2@@detail@multi_index@boost@@@detail@multi_index@boost@@@detail@multi_index@boost@@@detail@multi_index@boost@@HU1234@@std@@YAXPAU?$copy_map_entry@U?$sequenced_index_node@U?$ordered_index_node@U?$index_node_base@U?$pair@$$CBV?$basic_string@DU?$char_traits@D@std@@V?$allocator@D@2@@std@@V?$basic_ptree@V?$basic_string@DU?$char_traits@D@std@@V?$allocator@D@2@@std@@V12@U?$less@V?$basic_string@DU?$char_traits@D@std@@V?$allocator@D@2@@std@@@2@@property_tree@boost@@@std@@V?$allocator@U?$pair@$$CBV?$basic_string@DU?$char_traits@D@std@@V?$allocator@D@2@@std@@V?$basic_ptree@V?$basic_string@DU?$char_traits@D@std@@V?$allocator@D@2@@std@@V12@U?$less@V?$basic_string@DU?$char_traits@D@std@@V?$allocator@D@2@@std@@@2@@property_tree@boost@@@std@@@2@@detail@multi_index@boost@@@detail@multi_index@boost@@@detail@multi_index@boost@@@detail@multi_index@boost@@HH$$QAU1234@@Z 004183d0 f i eqmap.obj
 0001:00017480       ?equal@?$split_iterator@V?$_String_iterator@V?$_String_val@U?$_Simple_types@D@std@@@std@@@std@@@algorithm@boost@@ABE_NABV123@@Z 00418480 f i eqmap.obj
 0001:0001750e       ?clone@?$clone_impl@U?$error_info_injector@Vini_parser_error@ini_parser@property_tree@boost@@@exception_detail@boost@@@exception_detail@boost@@$0PPPPPPPM@A@BEPBVclone_base@23@XZ 0041850e f i eqmap.obj
 0001:00017516       ??_E?$error_info_injector@Vini_parser_error@ini_parser@property_tree@boost@@@exception_detail@boost@@WEA@AEPAXI@Z 00418516 f i eqmap.obj
 0001:0001751e       ??_E?$basic_stringstream@DU?$char_traits@D@std@@V?$allocator@D@2@@std@@$4PPPPPPPM@A@AEPAXI@Z 0041851e f i eqmap.obj
 0001:00017526       ??_E?$clone_impl@U?$error_info_injector@Vbad_function_call@boost@@@exception_detail@boost@@@exception_detail@boost@@WM@AEPAXI@Z 00418526 f i eqmap.obj
 0001:0001752e       ??_E?$clone_impl@U?$error_info_injector@Vini_parser_error@ini_parser@property_tree@boost@@@exception_detail@boost@@@exception_detail@boost@@WEA@AEPAXI@Z 0041852e f i eqmap.obj
 0001:00017536       ?clone@?$clone_impl@U?$error_info_injector@Vptree_bad_path@property_tree@boost@@@exception_detail@boost@@@exception_detail@boost@@$0PPPPPPPM@A@BEPBVclone_base@23@XZ 00418536 f i eqmap.obj
 0001:0001753e       ?_Add_vtordisp1@?$basic_istream@DU?$char_traits@D@std@@@std@@$4PPPPPPPM@FI@AEXXZ 0041853e f i eqmap.obj
 0001:0001754a       ?rethrow@?$clone_impl@U?$error_info_injector@Vbad_function_call@boost@@@exception_detail@boost@@@exception_detail@boost@@$0PPPPPPPM@A@BEXXZ 0041854a f i eqmap.obj
 0001:00017552       ??_E?$error_info_injector@Vbad_function_call@boost@@@exception_detail@boost@@WM@AEPAXI@Z 00418552 f i eqmap.obj
 0001:0001755a       ??_E?$clone_impl@U?$error_info_injector@Vbad_lexical_cast@boost@@@exception_detail@boost@@@exception_detail@boost@@$4PPPPPPPM@DA@AEPAXI@Z 0041855a f i eqmap.obj
 0001:00017565       ?rethrow@?$clone_impl@U?$error_info_injector@Vbad_lexical_cast@boost@@@exception_detail@boost@@@exception_detail@boost@@$0PPPPPPPM@A@BEXXZ 00418565 f i eqmap.obj
 0001:0001756d       ??_E?$clone_impl@U?$error_info_injector@Vbad_lexical_cast@boost@@@exception_detail@boost@@@exception_detail@boost@@WBE@AEPAXI@Z 0041856d f i eqmap.obj
 0001:00017575       ??_E?$clone_impl@U?$error_info_injector@Vptree_bad_path@property_tree@boost@@@exception_detail@boost@@@exception_detail@boost@@$4PPPPPPPM@CM@AEPAXI@Z 00418575 f i eqmap.obj
 0001:00017580       ?rethrow@?$clone_impl@U?$error_info_injector@Vini_parser_error@ini_parser@property_tree@boost@@@exception_detail@boost@@@exception_detail@boost@@$0PPPPPPPM@A@BEXXZ 00418580 f i eqmap.obj
 0001:00017588       ??_E?$basic_ifstream@DU?$char_traits@D@std@@@std@@$4PPPPPPPM@A@AEPAXI@Z 00418588 f i eqmap.obj
 0001:00017590       ?_Add_vtordisp1@?$basic_istream@DU?$char_traits@D@std@@@std@@$4PPPPPPPM@EI@AEXXZ 00418590 f i eqmap.obj
 0001:0001759c       ??_E?$clone_impl@U?$error_info_injector@Vptree_bad_path@property_tree@boost@@@exception_detail@boost@@@exception_detail@boost@@WBA@AEPAXI@Z 0041859c f i eqmap.obj
 0001:000175a4       ??_E?$error_info_injector@Vptree_bad_path@property_tree@boost@@@exception_detail@boost@@WBA@AEPAXI@Z 004185a4 f i eqmap.obj
 0001:000175ac       ?clone@?$clone_impl@U?$error_info_injector@Vbad_function_call@boost@@@exception_detail@boost@@@exception_detail@boost@@$0PPPPPPPM@A@BEPBVclone_base@23@XZ 004185ac f i eqmap.obj
 0001:000175b4       ?rethrow@?$clone_impl@U?$error_info_injector@Vptree_bad_path@property_tree@boost@@@exception_detail@boost@@@exception_detail@boost@@$0PPPPPPPM@A@BEXXZ 004185b4 f i eqmap.obj
 0001:000175bc       ?_Add_vtordisp2@?$basic_ostream@DU?$char_traits@D@std@@@std@@$4PPPPPPPM@FA@AEXXZ 004185bc f i eqmap.obj
 0001:000175c8       ?clone@?$clone_impl@U?$error_info_injector@Vbad_lexical_cast@boost@@@exception_detail@boost@@@exception_detail@boost@@$0PPPPPPPM@A@BEPBVclone_base@23@XZ 004185c8 f i eqmap.obj
 0001:000175d0       ?_Add_vtordisp1@?$basic_istream@DU?$char_traits@D@std@@@std@@$4PPPPPPPM@FA@AEXXZ 004185d0 f i eqmap.obj
 0001:000175dc       ??_E?$clone_impl@U?$error_info_injector@Vbad_function_call@boost@@@exception_detail@boost@@@exception_detail@boost@@$4PPPPPPPM@CI@AEPAXI@Z 004185dc f i eqmap.obj
 0001:000175e7       ??_E?$clone_impl@U?$error_info_injector@Vini_parser_error@ini_parser@property_tree@boost@@@exception_detail@boost@@@exception_detail@boost@@$4PPPPPPPM@FM@AEPAXI@Z 004185e7 f i eqmap.obj
 0001:000175f2       ??_E?$basic_istringstream@DU?$char_traits@D@std@@V?$allocator@D@2@@std@@$4PPPPPPPM@A@AEPAXI@Z 004185f2 f i eqmap.obj
 0001:000175fa       ??_E?$error_info_injector@Vbad_lexical_cast@boost@@@exception_detail@boost@@WBE@AEPAXI@Z 004185fa f i eqmap.obj
 0001:00017602       ??1_Fac_node@std@@QAE@XZ   00418602 f i msvcprt:locale0_implib.obj
 0001:00017617       ??1_Fac_tidy_reg_t@std@@QAE@XZ 00418617 f i msvcprt:locale0_implib.obj
 0001:0001763b       ?_Facet_Register@std@@YAXPAV_Facet_base@1@@Z 0041863b f   msvcprt:locale0_implib.obj
 0001:00017663       ??_U@YAPAXI@Z              00418663 f   msvcprt:newaop_s.obj
 0001:0001766c       ?_Add_vtordisp2@?$basic_ios@DU?$char_traits@D@std@@@std@@UAEXXZ 0041866c f   msvcprt:MSVCP110.dll
 0001:00017672       ?imbue@?$basic_streambuf@DU?$char_traits@D@std@@@std@@MAEXABVlocale@2@@Z 00418672 f   msvcprt:MSVCP110.dll
 0001:00017678       ?sync@?$basic_streambuf@DU?$char_traits@D@std@@@std@@MAEHXZ 00418678 f   msvcprt:MSVCP110.dll
 0001:0001767e       ?setbuf@?$basic_streambuf@DU?$char_traits@D@std@@@std@@MAEPAV12@PAD_J@Z 0041867e f   msvcprt:MSVCP110.dll
 0001:00017684       ?xsputn@?$basic_streambuf@DU?$char_traits@D@std@@@std@@MAE_JPBD_J@Z 00418684 f   msvcprt:MSVCP110.dll
 0001:0001768a       ?xsgetn@?$basic_streambuf@DU?$char_traits@D@std@@@std@@MAE_JPAD_J@Z 0041868a f   msvcprt:MSVCP110.dll
 0001:00017690       ?uflow@?$basic_streambuf@DU?$char_traits@D@std@@@std@@MAEHXZ 00418690 f   msvcprt:MSVCP110.dll
 0001:00017696       ?showmanyc@?$basic_streambuf@DU?$char_traits@D@std@@@std@@MAE_JXZ 00418696 f   msvcprt:MSVCP110.dll
 0001:0001769c       ?_Unlock@?$basic_streambuf@DU?$char_traits@D@std@@@std@@UAEXXZ 0041869c f   msvcprt:MSVCP110.dll
 0001:000176a2       ?_Lock@?$basic_streambuf@DU?$char_traits@D@std@@@std@@UAEXXZ 004186a2 f   msvcprt:MSVCP110.dll
 0001:000176a8       ?_Decref@facet@locale@std@@UAEPAV_Facet_base@3@XZ 004186a8 f   msvcprt:MSVCP110.dll
 0001:000176ae       ?_Incref@facet@locale@std@@UAEXXZ 004186ae f   msvcprt:MSVCP110.dll
 0001:0001791d       _mainCRTStartup            0041891d f   MSVCRT:crtexe.obj
 0001:00017927       @__security_check_cookie@4 00418927 f   MSVCRT:secchk.obj
 0001:00017936       ??1bad_cast@std@@UAE@XZ    00418936 f   MSVCRT:MSVCR110.dll
 0001:0001793c       ??0bad_cast@std@@QAE@ABV01@@Z 0041893c f   MSVCRT:MSVCR110.dll
 0001:00017942       ?what@exception@std@@UBEPBDXZ 00418942 f   MSVCRT:MSVCR110.dll
 0001:00017948       ??0exception@std@@QAE@ABV01@@Z 00418948 f   MSVCRT:MSVCR110.dll
 0001:0001794e       ___atonexitinit            0041894e f   MSVCRT:atonexit.obj
 0001:0001798a       __onexit                   0041898a f   MSVCRT:atonexit.obj
 0001:00017a2f       _atexit                    00418a2f f   MSVCRT:atonexit.obj
 0001:00017a44       __purecall                 00418a44 f   MSVCRT:MSVCR110.dll
 0001:00017a4a       ??3@YAXPAX@Z               00418a4a f   MSVCRT:MSVCR110.dll
 0001:00017a50       ??_Etype_info@@UAEPAXI@Z   00418a50 f i MSVCRT:ti_inst.obj
 0001:00017a9a       ??2@YAPAXI@Z               00418a9a f   MSVCRT:MSVCR110.dll
 0001:00017aa0       ?__CxxUnhandledExceptionFilter@@YGJPAU_EXCEPTION_POINTERS@@@Z 00418aa0 f   MSVCRT:unhandld.obj
 0001:00017ae1       ___CxxSetUnhandledExceptionFilter 00418ae1 f   MSVCRT:unhandld.obj
 0001:00017af0       __XcptFilter               00418af0 f   MSVCRT:MSVCR110.dll
 0001:00017af6       __amsg_exit                00418af6 f   MSVCRT:MSVCR110.dll
 0001:00017afc       __setargv                  00418afc f   MSVCRT:dllargv.obj
 0001:00017afc       __matherr                  00418afc f   MSVCRT:merr.obj
 0001:00017b00       __FindPESection            00418b00 f   MSVCRT:pesect.obj
 0001:00017b50       __IsNonwritableInCurrentImage 00418b50 f   MSVCRT:pesect.obj
 0001:00017c10       __ValidateImageBase        00418c10 f   MSVCRT:pesect.obj
 0001:00017c41       ___security_init_cookie    00418c41 f   MSVCRT:gs_support.obj
 0001:00017cdb       __RTC_Initialize           00418cdb f   MSVCRT:initsect.obj
 0001:00017cfb       __RTC_Terminate            00418cfb f   MSVCRT:initsect.obj
 0001:00017d1b       __setdefaultprecision      00418d1b f   MSVCRT:fp8.obj
 0001:00017d42       __initterm_e               00418d42 f   MSVCRT:MSVCR110.dll
 0001:00017d48       __initterm                 00418d48 f   MSVCRT:MSVCR110.dll
 0001:00017d50       __SEH_prolog4              00418d50 f   MSVCRT:sehprolg4.obj
 0001:00017d95       __SEH_epilog4              00418d95 f   MSVCRT:sehprolg4.obj
 0001:00017da9       __except_handler4          00418da9 f   MSVCRT:chandler4gs.obj
 0001:00017dcc       ___raise_securityfailure   00418dcc f   MSVCRT:gs_report.obj
 0001:00017e09       ___report_gsfailure        00418e09 f   MSVCRT:gs_report.obj
 0001:00017f02       __lock                     00418f02 f   MSVCRT:MSVCR110.dll
 0001:00017f08       __unlock                   00418f08 f   MSVCRT:MSVCR110.dll
 0001:00017f0e       ___dllonexit               00418f0e f   MSVCRT:MSVCR110.dll
 0001:00017f14       ??_M@YGXPAXIHP6EX0@Z@Z     00418f14 f   MSVCRT:ehvecdtr.obj
 0001:00017f83       ?__ArrayUnwind@@YGXPAXIHP6EX0@Z@Z 00418f83 f   MSVCRT:ehvecdtr.obj
 0001:00017fe2       ??1type_info@@UAE@XZ       00418fe2 f   MSVCRT:MSVCR110.dll
 0001:00017fe8       ?terminate@@YAXXZ          00418fe8 f   MSVCRT:MSVCR110.dll
 0001:00017fee       ___crtSetUnhandledExceptionFilter 00418fee f   MSVCRT:MSVCR110.dll
 0001:00017ff4       __invoke_watson            00418ff4 f   MSVCRT:MSVCR110.dll
 0001:00017ffa       __controlfp_s              00418ffa f   MSVCRT:MSVCR110.dll
 0001:00018000       __except_handler4_common   00419000 f   MSVCRT:MSVCR110.dll
 0001:00018006       __crt_debugger_hook        00419006 f   MSVCRT:MSVCR110.dll
 0001:0001800c       ___crtUnhandledException   0041900c f   MSVCRT:MSVCR110.dll
 0001:00018012       ___crtTerminateProcess     00419012 f   MSVCRT:MSVCR110.dll
 0001:00018018       _IsProcessorFeaturePresent@4 00419018 f   kernel32:KERNEL32.dll
 0001:0001801e       __CxxThrowException@8      0041901e f   MSVCRT:MSVCR110.dll
 0001:00018024       ___CxxFrameHandler3        00419024 f   MSVCRT:MSVCR110.dll
 0001:0001802a       _memcpy                    0041902a f   MSVCRT:MSVCR110.dll
 0001:00018030       _memset                    00419030 f   MSVCRT:MSVCR110.dll
 0002:00000000       __imp__TwDefine@4          0041c000     AntTweakBar:AntTweakBar.dll
 0002:00000004       __imp__TwEventMouseButtonGLUT 0041c004     AntTweakBar:AntTweakBar.dll
 0002:00000008       __imp__TwCopyStdStringToClientFunc@4 0041c008     AntTweakBar:AntTweakBar.dll
 0002:0000000c       __imp__TwDraw@0            0041c00c     AntTweakBar:AntTweakBar.dll
 0002:00000010       __imp__TwTerminate@0       0041c010     AntTweakBar:AntTweakBar.dll
 0002:00000014       __imp__TwAddVarRO@20       0041c014     AntTweakBar:AntTweakBar.dll
 0002:00000018       __imp__TwDeleteBar@4       0041c018     AntTweakBar:AntTweakBar.dll
 0002:0000001c       __imp__TwHandleErrors@4    0041c01c     AntTweakBar:AntTweakBar.dll
 0002:00000020       __imp__TwAddSeparator@12   0041c020     AntTweakBar:AntTweakBar.dll
 0002:00000024       __imp__TwEventSpecialGLUT  0041c024     AntTweakBar:AntTweakBar.dll
 0002:00000028       __imp__TwNewBar@4          0041c028     AntTweakBar:AntTweakBar.dll
 0002:0000002c       __imp__TwEventKeyboardGLUT 0041c02c     AntTweakBar:AntTweakBar.dll
 0002:00000030       __imp__TwEventMouseMotionGLUT 0041c030     AntTweakBar:AntTweakBar.dll
 0002:00000034       __imp__TwAddButton@20      0041c034     AntTweakBar:AntTweakBar.dll
 0002:00000038       __imp__TwWindowSize@8      0041c038     AntTweakBar:AntTweakBar.dll
 0002:0000003c       __imp__TwGLUTModifiersFunc@4 0041c03c     AntTweakBar:AntTweakBar.dll
 0002:00000040       __imp__TwAddVarRW@20       0041c040     AntTweakBar:AntTweakBar.dll
 0002:00000044       __imp__TwInit@8            0041c044     AntTweakBar:AntTweakBar.dll
 0002:00000048       \177AntTweakBar_NULL_THUNK_DATA 0041c048     AntTweakBar:AntTweakBar.dll
 0002:0000004c       __imp__EncodePointer@4     0041c04c     kernel32:KERNEL32.dll
 0002:00000050       __imp__DecodePointer@4     0041c050     kernel32:KERNEL32.dll
 0002:00000054       __imp__QueryPerformanceCounter@4 0041c054     kernel32:KERNEL32.dll
 0002:00000058       __imp__GetCurrentThreadId@0 0041c058     kernel32:KERNEL32.dll
 0002:0000005c       __imp__GetSystemTimeAsFileTime@4 0041c05c     kernel32:KERNEL32.dll
 0002:00000060       __imp__GetTickCount64@0    0041c060     kernel32:KERNEL32.dll
 0002:00000064       __imp__IsDebuggerPresent@0 0041c064     kernel32:KERNEL32.dll
 0002:00000068       __imp__IsProcessorFeaturePresent@4 0041c068     kernel32:KERNEL32.dll
 0002:0000006c       __imp__GetTickCount@0      0041c06c     kernel32:KERNEL32.dll
 0002:00000070       \177KERNEL32_NULL_THUNK_DATA 0041c070     kernel32:KERNEL32.dll
 0002:00000074       __imp_?tolower@?$ctype@D@std@@QBEDD@Z 0041c074     msvcprt:MSVCP110.dll
 0002:00000078       __imp_?_Getcat@?$ctype@D@std@@SAIPAPBVfacet@locale@2@PBV42@@Z 0041c078     msvcprt:MSVCP110.dll
 0002:0000007c       __imp_?getloc@ios_base@std@@QBE?AVlocale@2@XZ 0041c07c     msvcprt:MSVCP110.dll
 0002:00000080       __imp_?ws@std@@YAAAV?$basic_istream@DU?$char_traits@D@std@@@1@AAV21@@Z 0041c080     msvcprt:MSVCP110.dll
 0002:00000084       __imp_?always_noconv@codecvt_base@std@@QBE_NXZ 0041c084     msvcprt:MSVCP110.dll
 0002:00000088       __imp_??1facet@locale@std@@MAE@XZ 0041c088     msvcprt:MSVCP110.dll
 0002:0000008c       __imp_??0facet@locale@std@@IAE@I@Z 0041c08c     msvcprt:MSVCP110.dll
 0002:00000090       __imp_?_Decref@facet@locale@std@@UAEPAV_Facet_base@3@XZ 0041c090     msvcprt:MSVCP110.dll
 0002:00000094       __imp_?_Incref@facet@locale@std@@UAEXXZ 0041c094     msvcprt:MSVCP110.dll
 0002:00000098       __imp_??Bid@locale@std@@QAEIXZ 0041c098     msvcprt:MSVCP110.dll
 0002:0000009c       __imp_?_Gettrue@_Locinfo@std@@QBEPBDXZ 0041c09c     msvcprt:MSVCP110.dll
 0002:000000a0       __imp_?_Getfalse@_Locinfo@std@@QBEPBDXZ 0041c0a0     msvcprt:MSVCP110.dll
 0002:000000a4       __imp_?_Getlconv@_Locinfo@std@@QBEPBUlconv@@XZ 0041c0a4     msvcprt:MSVCP110.dll
 0002:000000a8       __imp_?_Getcvt@_Locinfo@std@@QBE?AU_Cvtvec@@XZ 0041c0a8     msvcprt:MSVCP110.dll
 0002:000000ac       __imp_??1_Locinfo@std@@QAE@XZ 0041c0ac     msvcprt:MSVCP110.dll
 0002:000000b0       __imp_??0_Locinfo@std@@QAE@PBD@Z 0041c0b0     msvcprt:MSVCP110.dll
 0002:000000b4       __imp_?sputc@?$basic_streambuf@DU?$char_traits@D@std@@@std@@QAEHD@Z 0041c0b4     msvcprt:MSVCP110.dll
 0002:000000b8       __imp_??1?$basic_streambuf@DU?$char_traits@D@std@@@std@@UAE@XZ 0041c0b8     msvcprt:MSVCP110.dll
 0002:000000bc       __imp_?sgetc@?$basic_streambuf@DU?$char_traits@D@std@@@std@@QAEHXZ 0041c0bc     msvcprt:MSVCP110.dll
 0002:000000c0       __imp_?snextc@?$basic_streambuf@DU?$char_traits@D@std@@@std@@QAEHXZ 0041c0c0     msvcprt:MSVCP110.dll
 0002:000000c4       __imp_?_Lock@?$basic_streambuf@DU?$char_traits@D@std@@@std@@UAEXXZ 0041c0c4     msvcprt:MSVCP110.dll
 0002:000000c8       __imp_?_Unlock@?$basic_streambuf@DU?$char_traits@D@std@@@std@@UAEXXZ 0041c0c8     msvcprt:MSVCP110.dll
 0002:000000cc       __imp_?showmanyc@?$basic_streambuf@DU?$char_traits@D@std@@@std@@MAE_JXZ 0041c0cc     msvcprt:MSVCP110.dll
 0002:000000d0       __imp_?uflow@?$basic_streambuf@DU?$char_traits@D@std@@@std@@MAEHXZ 0041c0d0     msvcprt:MSVCP110.dll
 0002:000000d4       __imp_?xsgetn@?$basic_streambuf@DU?$char_traits@D@std@@@std@@MAE_JPAD_J@Z 0041c0d4     msvcprt:MSVCP110.dll
 0002:000000d8       __imp_?xsputn@?$basic_streambuf@DU?$char_traits@D@std@@@std@@MAE_JPBD_J@Z 0041c0d8     msvcprt:MSVCP110.dll
 0002:000000dc       __imp_?setbuf@?$basic_streambuf@DU?$char_traits@D@std@@@std@@MAEPAV12@PAD_J@Z 0041c0dc     msvcprt:MSVCP110.dll
 0002:000000e0       __imp_?sync@?$basic_streambuf@DU?$char_traits@D@std@@@std@@MAEHXZ 0041c0e0     msvcprt:MSVCP110.dll
 0002:000000e4       __imp_?_Winerror_map@std@@YAPBDH@Z 0041c0e4     msvcprt:MSVCP110.dll
 0002:000000e8       __imp_?id@?$numpunct@D@std@@2V0locale@2@A 0041c0e8     msvcprt:MSVCP110.dll
 0002:000000ec       __imp_?_Syserror_map@std@@YAPBDH@Z 0041c0ec     msvcprt:MSVCP110.dll
 0002:000000f0       __imp_?_BADOFF@std@@3_JB   0041c0f0     msvcprt:MSVCP110.dll
 0002:000000f4       __imp_?_Xbad_alloc@std@@YAXXZ 0041c0f4     msvcprt:MSVCP110.dll
 0002:000000f8       __imp_?setprecision@std@@YA?AU?$_Smanip@_J@1@_J@Z 0041c0f8     msvcprt:MSVCP110.dll
 0002:000000fc       __imp_?id@?$ctype@D@std@@2V0locale@2@A 0041c0fc     msvcprt:MSVCP110.dll
 0002:00000100       __imp_?_Xout_of_range@std@@YAXPBD@Z 0041c100     msvcprt:MSVCP110.dll
 0002:00000104       __imp_??1_Lockit@std@@QAE@XZ 0041c104     msvcprt:MSVCP110.dll
 0002:00000108       __imp_??0_Lockit@std@@QAE@H@Z 0041c108     msvcprt:MSVCP110.dll
 0002:0000010c       __imp_?_Xlength_error@std@@YAXPBD@Z 0041c10c     msvcprt:MSVCP110.dll
 0002:00000110       __imp_?uncaught_exception@std@@YA_NXZ 0041c110     msvcprt:MSVCP110.dll
 0002:00000114       __imp_?_Getgloballocale@locale@std@@CAPAV_Locimp@12@XZ 0041c114     msvcprt:MSVCP110.dll
 0002:00000118       __imp_?_Init@locale@std@@CAPAV_Locimp@12@_N@Z 0041c118     msvcprt:MSVCP110.dll
 0002:0000011c       __imp_?classic@locale@std@@SAABV12@XZ 0041c11c     msvcprt:MSVCP110.dll
 0002:00000120       __imp_?_Fiopen@std@@YAPAU_iobuf@@PBDHH@Z 0041c120     msvcprt:MSVCP110.dll
 0002:00000124       __imp_?id@?$codecvt@DDH@std@@2V0locale@2@A 0041c124     msvcprt:MSVCP110.dll
 0002:00000128       __imp_??_7facet@locale@std@@6B@ 0041c128     msvcprt:MSVCP110.dll
 0002:0000012c       __imp___FInf               0041c12c     msvcprt:MSVCP110.dll
 0002:00000130       __imp_??_7?$basic_istream@DU?$char_traits@D@std@@@std@@6B@ 0041c130     msvcprt:MSVCP110.dll
 0002:00000134       __imp_??_7_Facet_base@std@@6B@ 0041c134     msvcprt:MSVCP110.dll
 0002:00000138       __imp___FNan               0041c138     msvcprt:MSVCP110.dll
 0002:0000013c       __imp_??5?$basic_istream@DU?$char_traits@D@std@@@std@@QAEAAV01@AAH@Z 0041c13c     msvcprt:MSVCP110.dll
 0002:00000140       __imp_??5?$basic_istream@DU?$char_traits@D@std@@@std@@QAEAAV01@AA_N@Z 0041c140     msvcprt:MSVCP110.dll
 0002:00000144       __imp_??5?$basic_istream@DU?$char_traits@D@std@@@std@@QAEAAV01@P6AAAV01@AAV01@@Z@Z 0041c144     msvcprt:MSVCP110.dll
 0002:00000148       __imp_?get@?$basic_istream@DU?$char_traits@D@std@@@std@@QAEHXZ 0041c148     msvcprt:MSVCP110.dll
 0002:0000014c       __imp_?imbue@?$basic_ios@DU?$char_traits@D@std@@@std@@QAE?AVlocale@2@ABV32@@Z 0041c14c     msvcprt:MSVCP110.dll
 0002:00000150       __imp_?sputn@?$basic_streambuf@DU?$char_traits@D@std@@@std@@QAE_JPBD_J@Z 0041c150     msvcprt:MSVCP110.dll
 0002:00000154       __imp_?_Getcat@?$codecvt@DDH@std@@SAIPAPBVfacet@locale@2@PBV42@@Z 0041c154     msvcprt:MSVCP110.dll
 0002:00000158       __imp_?_Osfx@?$basic_ostream@DU?$char_traits@D@std@@@std@@QAEXXZ 0041c158     msvcprt:MSVCP110.dll
 0002:0000015c       __imp_?widen@?$basic_ios@DU?$char_traits@D@std@@@std@@QBEDD@Z 0041c15c     msvcprt:MSVCP110.dll
 0002:00000160       __imp_?_Init@?$basic_streambuf@DU?$char_traits@D@std@@@std@@IAEXXZ 0041c160     msvcprt:MSVCP110.dll
 0002:00000164       __imp_?getloc@?$basic_streambuf@DU?$char_traits@D@std@@@std@@QBE?AVlocale@2@XZ 0041c164     msvcprt:MSVCP110.dll
 0002:00000168       __imp_??0?$basic_streambuf@DU?$char_traits@D@std@@@std@@IAE@XZ 0041c168     msvcprt:MSVCP110.dll
 0002:0000016c       __imp_?unshift@?$codecvt@DDH@std@@QBEHAAHPAD1AAPAD@Z 0041c16c     msvcprt:MSVCP110.dll
 0002:00000170       __imp_??0?$basic_iostream@DU?$char_traits@D@std@@@std@@QAE@PAV?$basic_streambuf@DU?$char_traits@D@std@@@1@@Z 0041c170     msvcprt:MSVCP110.dll
 0002:00000174       __imp_?_Ipfx@?$basic_istream@DU?$char_traits@D@std@@@std@@QAE_N_N@Z 0041c174     msvcprt:MSVCP110.dll
 0002:00000178       __imp_??0?$basic_istream@DU?$char_traits@D@std@@@std@@QAE@PAV?$basic_streambuf@DU?$char_traits@D@std@@@1@_N@Z 0041c178     msvcprt:MSVCP110.dll
 0002:0000017c       __imp_??0?$basic_ios@DU?$char_traits@D@std@@@std@@IAE@XZ 0041c17c     msvcprt:MSVCP110.dll
 0002:00000180       __imp_?clear@?$basic_ios@DU?$char_traits@D@std@@@std@@QAEXH_N@Z 0041c180     msvcprt:MSVCP110.dll
 0002:00000184       __imp_?_Pninc@?$basic_streambuf@DU?$char_traits@D@std@@@std@@IAEPADXZ 0041c184     msvcprt:MSVCP110.dll
 0002:00000188       __imp_?setp@?$basic_streambuf@DU?$char_traits@D@std@@@std@@IAEXPAD0@Z 0041c188     msvcprt:MSVCP110.dll
 0002:0000018c       __imp_?epptr@?$basic_streambuf@DU?$char_traits@D@std@@@std@@IBEPADXZ 0041c18c     msvcprt:MSVCP110.dll
 0002:00000190       __imp_?setg@?$basic_streambuf@DU?$char_traits@D@std@@@std@@IAEXPAD00@Z 0041c190     msvcprt:MSVCP110.dll
 0002:00000194       __imp_?egptr@?$basic_streambuf@DU?$char_traits@D@std@@@std@@IBEPADXZ 0041c194     msvcprt:MSVCP110.dll
 0002:00000198       __imp_?pptr@?$basic_streambuf@DU?$char_traits@D@std@@@std@@IBEPADXZ 0041c198     msvcprt:MSVCP110.dll
 0002:0000019c       __imp_?eback@?$basic_streambuf@DU?$char_traits@D@std@@@std@@IBEPADXZ 0041c19c     msvcprt:MSVCP110.dll
 0002:000001a0       __imp_?imbue@?$basic_streambuf@DU?$char_traits@D@std@@@std@@MAEXABVlocale@2@@Z 0041c1a0     msvcprt:MSVCP110.dll
 0002:000001a4       __imp_?sbumpc@?$basic_streambuf@DU?$char_traits@D@std@@@std@@QAEHXZ 0041c1a4     msvcprt:MSVCP110.dll
 0002:000001a8       __imp_?out@?$codecvt@DDH@std@@QBEHAAHPBD1AAPBDPAD3AAPAD@Z 0041c1a8     msvcprt:MSVCP110.dll
 0002:000001ac       __imp_?in@?$codecvt@DDH@std@@QBEHAAHPBD1AAPBDPAD3AAPAD@Z 0041c1ac     msvcprt:MSVCP110.dll
 0002:000001b0       __imp_??1?$basic_iostream@DU?$char_traits@D@std@@@std@@UAE@XZ 0041c1b0     msvcprt:MSVCP110.dll
 0002:000001b4       __imp_?seekg@?$basic_istream@DU?$char_traits@D@std@@@std@@QAEAAV12@_JH@Z 0041c1b4     msvcprt:MSVCP110.dll
 0002:000001b8       __imp_?_Add_vtordisp1@?$basic_istream@DU?$char_traits@D@std@@@std@@UAEXXZ 0041c1b8     msvcprt:MSVCP110.dll
 0002:000001bc       __imp_??1?$basic_istream@DU?$char_traits@D@std@@@std@@UAE@XZ 0041c1bc     msvcprt:MSVCP110.dll
 0002:000001c0       __imp_?flush@?$basic_ostream@DU?$char_traits@D@std@@@std@@QAEAAV12@XZ 0041c1c0     msvcprt:MSVCP110.dll
 0002:000001c4       __imp_??6?$basic_ostream@DU?$char_traits@D@std@@@std@@QAEAAV01@M@Z 0041c1c4     msvcprt:MSVCP110.dll
 0002:000001c8       __imp_??6?$basic_ostream@DU?$char_traits@D@std@@@std@@QAEAAV01@K@Z 0041c1c8     msvcprt:MSVCP110.dll
 0002:000001cc       __imp_??6?$basic_ostream@DU?$char_traits@D@std@@@std@@QAEAAV01@H@Z 0041c1cc     msvcprt:MSVCP110.dll
 0002:000001d0       __imp_??6?$basic_ostream@DU?$char_traits@D@std@@@std@@QAEAAV01@P6AAAVios_base@1@AAV21@@Z@Z 0041c1d0     msvcprt:MSVCP110.dll
 0002:000001d4       __imp_?_Add_vtordisp2@?$basic_ostream@DU?$char_traits@D@std@@@std@@UAEXXZ 0041c1d4     msvcprt:MSVCP110.dll
 0002:000001d8       __imp_?setstate@?$basic_ios@DU?$char_traits@D@std@@@std@@QAEXH_N@Z 0041c1d8     msvcprt:MSVCP110.dll
 0002:000001dc       __imp_?_Add_vtordisp2@?$basic_ios@DU?$char_traits@D@std@@@std@@UAEXXZ 0041c1dc     msvcprt:MSVCP110.dll
 0002:000001e0       __imp_??1?$basic_ios@DU?$char_traits@D@std@@@std@@UAE@XZ 0041c1e0     msvcprt:MSVCP110.dll
 0002:000001e4       \177MSVCP110_NULL_THUNK_DATA 0041c1e4     msvcprt:MSVCP110.dll
 0002:000001e8       __imp__ungetc              0041c1e8     MSVCRT:MSVCR110.dll
 0002:000001ec       __imp__fgetpos             0041c1ec     MSVCRT:MSVCR110.dll
 0002:000001f0       __imp___fseeki64           0041c1f0     MSVCRT:MSVCR110.dll
 0002:000001f4       __imp__memchr              0041c1f4     MSVCRT:MSVCR110.dll
 0002:000001f8       __imp__fflush              0041c1f8     MSVCRT:MSVCR110.dll
 0002:000001fc       __imp__fgetc               0041c1fc     MSVCRT:MSVCR110.dll
 0002:00000200       __imp__fsetpos             0041c200     MSVCRT:MSVCR110.dll
 0002:00000204       __imp__setvbuf             0041c204     MSVCRT:MSVCR110.dll
 0002:00000208       __imp___lock_file          0041c208     MSVCRT:MSVCR110.dll
 0002:0000020c       __imp_??_V@YAXPAX@Z        0041c20c     MSVCRT:MSVCR110.dll
 0002:00000210       __imp___purecall           0041c210     MSVCRT:MSVCR110.dll
 0002:00000214       __imp_??3@YAXPAX@Z         0041c214     MSVCRT:MSVCR110.dll
 0002:00000218       __imp__memcpy_s            0041c218     MSVCRT:MSVCR110.dll
 0002:0000021c       __imp__fwrite              0041c21c     MSVCRT:MSVCR110.dll
 0002:00000220       __imp__fclose              0041c220     MSVCRT:MSVCR110.dll
 0002:00000224       __imp__exit                0041c224     MSVCRT:MSVCR110.dll
 0002:00000228       __imp_??2@YAPAXI@Z         0041c228     MSVCRT:MSVCR110.dll
 0002:0000022c       __imp___XcptFilter         0041c22c     MSVCRT:MSVCR110.dll
 0002:00000230       __imp___amsg_exit          0041c230     MSVCRT:MSVCR110.dll
 0002:00000234       __imp____getmainargs       0041c234     MSVCRT:MSVCR110.dll
 0002:00000238       __imp____set_app_type      0041c238     MSVCRT:MSVCR110.dll
 0002:0000023c       __imp___exit               0041c23c     MSVCRT:MSVCR110.dll
 0002:00000240       __imp___cexit              0041c240     MSVCRT:MSVCR110.dll
 0002:00000244       __imp___configthreadlocale 0041c244     MSVCRT:MSVCR110.dll
 0002:00000248       __imp____setusermatherr    0041c248     MSVCRT:MSVCR110.dll
 0002:0000024c       __imp___initterm_e         0041c24c     MSVCRT:MSVCR110.dll
 0002:00000250       __imp___initterm           0041c250     MSVCRT:MSVCR110.dll
 0002:00000254       __imp____initenv           0041c254     MSVCRT:MSVCR110.dll
 0002:00000258       __imp___fmode              0041c258     MSVCRT:MSVCR110.dll
 0002:0000025c       __imp___commode            0041c25c     MSVCRT:MSVCR110.dll
 0002:00000260       __imp___lock               0041c260     MSVCRT:MSVCR110.dll
 0002:00000264       __imp___unlock             0041c264     MSVCRT:MSVCR110.dll
 0002:00000268       __imp___calloc_crt         0041c268     MSVCRT:MSVCR110.dll
 0002:0000026c       __imp____dllonexit         0041c26c     MSVCRT:MSVCR110.dll
 0002:00000270       __imp___onexit             0041c270     MSVCRT:MSVCR110.dll
 0002:00000274       __imp_??1type_info@@UAE@XZ 0041c274     MSVCRT:MSVCR110.dll
 0002:00000278       __imp_?terminate@@YAXXZ    0041c278     MSVCRT:MSVCR110.dll
 0002:0000027c       __imp____crtSetUnhandledExceptionFilter 0041c27c     MSVCRT:MSVCR110.dll
 0002:00000280       __imp___invoke_watson      0041c280     MSVCRT:MSVCR110.dll
 0002:00000284       __imp___controlfp_s        0041c284     MSVCRT:MSVCR110.dll
 0002:00000288       __imp___except_handler4_common 0041c288     MSVCRT:MSVCR110.dll
 0002:0000028c       __imp___crt_debugger_hook  0041c28c     MSVCRT:MSVCR110.dll
 0002:00000290       __imp____crtUnhandledException 0041c290     MSVCRT:MSVCR110.dll
 0002:00000294       __imp____crtTerminateProcess 0041c294     MSVCRT:MSVCR110.dll
 0002:00000298       __imp___CxxThrowException@8 0041c298     MSVCRT:MSVCR110.dll
 0002:0000029c       __imp____CxxFrameHandler3  0041c29c     MSVCRT:MSVCR110.dll
 0002:000002a0       __imp__memcpy              0041c2a0     MSVCRT:MSVCR110.dll
 0002:000002a4       __imp__memset              0041c2a4     MSVCRT:MSVCR110.dll
 0002:000002a8       __imp__fputc               0041c2a8     MSVCRT:MSVCR110.dll
 0002:000002ac       __imp_??1bad_cast@std@@UAE@XZ 0041c2ac     MSVCRT:MSVCR110.dll
 0002:000002b0       __imp_??0bad_cast@std@@QAE@PBD@Z 0041c2b0     MSVCRT:MSVCR110.dll
 0002:000002b4       __imp_??0bad_cast@std@@QAE@ABV01@@Z 0041c2b4     MSVCRT:MSVCR110.dll
 0002:000002b8       __imp_?what@exception@std@@UBEPBDXZ 0041c2b8     MSVCRT:MSVCR110.dll
 0002:000002bc       __imp_??1exception@std@@UAE@XZ 0041c2bc     MSVCRT:MSVCR110.dll
 0002:000002c0       __imp_??0exception@std@@QAE@ABQBD@Z 0041c2c0     MSVCRT:MSVCR110.dll
 0002:000002c4       __imp_??0exception@std@@QAE@ABV01@@Z 0041c2c4     MSVCRT:MSVCR110.dll
 0002:000002c8       __imp_??8type_info@@QBE_NABV0@@Z 0041c2c8     MSVCRT:MSVCR110.dll
 0002:000002cc       __imp__memmove             0041c2cc     MSVCRT:MSVCR110.dll
 0002:000002d0       __imp___unlock_file        0041c2d0     MSVCRT:MSVCR110.dll
 0002:000002d4       \177MSVCR110_NULL_THUNK_DATA 0041c2d4     MSVCRT:MSVCR110.dll
 0002:000002d8       __imp__glVertex2f@8        0041c2d8     opengl32:OPENGL32.dll
 0002:000002dc       __imp__glLoadIdentity@0    0041c2dc     opengl32:OPENGL32.dll
 0002:000002e0       __imp__glColor3f@12        0041c2e0     opengl32:OPENGL32.dll
 0002:000002e4       __imp__glFrontFace@4       0041c2e4     opengl32:OPENGL32.dll
 0002:000002e8       __imp__glEnable@4          0041c2e8     opengl32:OPENGL32.dll
 0002:000002ec       __imp__glClear@4           0041c2ec     opengl32:OPENGL32.dll
 0002:000002f0       __imp__glClearColor@16     0041c2f0     opengl32:OPENGL32.dll
 0002:000002f4       __imp__glOrtho@48          0041c2f4     opengl32:OPENGL32.dll
 0002:000002f8       __imp__glColor3ub@12       0041c2f8     opengl32:OPENGL32.dll
 0002:000002fc       __imp__glPointSize@4       0041c2fc     opengl32:OPENGL32.dll
 0002:00000300       __imp__glEnd@0             0041c300     opengl32:OPENGL32.dll
 0002:00000304       __imp__glRasterPos2f@8     0041c304     opengl32:OPENGL32.dll
 0002:00000308       __imp__glLineStipple@8     0041c308     opengl32:OPENGL32.dll
 0002:0000030c       __imp__glDisable@4         0041c30c     opengl32:OPENGL32.dll
 0002:00000310       __imp__glBegin@4           0041c310     opengl32:OPENGL32.dll
 0002:00000314       __imp__glMatrixMode@4      0041c314     opengl32:OPENGL32.dll
 0002:00000318       __imp__glViewport@16       0041c318     opengl32:OPENGL32.dll
 0002:0000031c       \177OPENGL32_NULL_THUNK_DATA 0041c31c     opengl32:OPENGL32.dll
 0002:00000320       __imp__DragQueryFileW@16   0041c320     shell32:SHELL32.dll
 0002:00000324       __imp__DragFinish@4        0041c324     shell32:SHELL32.dll
 0002:00000328       __imp__DragAcceptFiles@8   0041c328     shell32:SHELL32.dll
 0002:0000032c       __imp__DragQueryFileA@16   0041c32c     shell32:SHELL32.dll
 0002:00000330       \177SHELL32_NULL_THUNK_DATA 0041c330     shell32:SHELL32.dll
 0002:00000334       __imp__GetWindowLongW@8    0041c334     user32:USER32.dll
 0002:00000338       __imp__SetWindowLongW@12   0041c338     user32:USER32.dll
 0002:0000033c       __imp__ShowWindow@8        0041c33c     user32:USER32.dll
 0002:00000340       __imp__FindWindowA@8       0041c340     user32:USER32.dll
 0002:00000344       __imp__CallWindowProcW@20  0041c344     user32:USER32.dll
 0002:00000348       __imp__MessageBoxA@16      0041c348     user32:USER32.dll
 0002:0000034c       \177USER32_NULL_THUNK_DATA 0041c34c     user32:USER32.dll
 0002:00000350       __imp__glutSwapBuffers@0   0041c350     freeglut:freeglut.dll
 0002:00000354       __imp__glutGetModifiers@0  0041c354     freeglut:freeglut.dll
 0002:00000358       __imp__glutBitmapString@8  0041c358     freeglut:freeglut.dll
 0002:0000035c       __imp__glutMotionFunc@4    0041c35c     freeglut:freeglut.dll
 0002:00000360       __imp__glutBitmapLength@8  0041c360     freeglut:freeglut.dll
 0002:00000364       __imp__glutFullScreen@0    0041c364     freeglut:freeglut.dll
 0002:00000368       __imp__glutInitWindowPosition@8 0041c368     freeglut:freeglut.dll
 0002:0000036c       __imp____glutInitWithExit@12 0041c36c     freeglut:freeglut.dll
 0002:00000370       __imp____glutCreateWindowWithExit@8 0041c370     freeglut:freeglut.dll
 0002:00000374       __imp__glutReshapeFunc@4   0041c374     freeglut:freeglut.dll
 0002:00000378       __imp__glutFullScreenToggle@0 0041c378     freeglut:freeglut.dll
 0002:0000037c       __imp__glutKeyboardFunc@4  0041c37c     freeglut:freeglut.dll
 0002:00000380       __imp__glutSetWindowTitle@4 0041c380     freeglut:freeglut.dll
 0002:00000384       __imp__glutMainLoop@0      0041c384     freeglut:freeglut.dll
 0002:00000388       __imp__glutInitWindowSize@8 0041c388     freeglut:freeglut.dll
 0002:0000038c       __imp__glutPostRedisplay@0 0041c38c     freeglut:freeglut.dll
 0002:00000390       __imp__glutDisplayFunc@4   0041c390     freeglut:freeglut.dll
 0002:00000394       __imp__glutMouseFunc@4     0041c394     freeglut:freeglut.dll
 0002:00000398       __imp__glutGet@4           0041c398     freeglut:freeglut.dll
 0002:0000039c       __imp__glutSetCursor@4     0041c39c     freeglut:freeglut.dll
 0002:000003a0       __imp__glutInitDisplayMode@4 0041c3a0     freeglut:freeglut.dll
 0002:000003a4       __imp__glutLeaveMainLoop@0 0041c3a4     freeglut:freeglut.dll
 0002:000003a8       __imp__glutPassiveMotionFunc@4 0041c3a8     freeglut:freeglut.dll
 0002:000003ac       __imp__glutSpecialFunc@4   0041c3ac     freeglut:freeglut.dll
 0002:000003b0       __imp__glutMouseWheelFunc@4 0041c3b0     freeglut:freeglut.dll
 0002:000003b4       \177freeglut_NULL_THUNK_DATA 0041c3b4     freeglut:freeglut.dll
 0002:000003b8       ___xc_a                    0041c3b8     MSVCRT:cinitexe.obj
 0002:00000404       ___xc_z                    0041c404     MSVCRT:cinitexe.obj
 0002:00000408       ___xi_a                    0041c408     MSVCRT:cinitexe.obj
 0002:00000418       ___xi_z                    0041c418     MSVCRT:cinitexe.obj
 0002:0000045c       ??_7type_info@@6B@         0041c45c     MSVCRT:ti_inst.obj
 0002:00000468       ??_C@_01NBENCBCI@?$CK?$AA@ 0041c468     eqmap.obj
 0002:0000046a       ??_C@_00CNPNBAHC@?$AA@     0041c46a     eqmap.obj
 0002:0000046c       ??_C@_07DCLBNMLN@generic?$AA@ 0041c46c     eqmap.obj
 0002:00000474       ??_C@_0O@BFJCFAAK@unknown?5error?$AA@ 0041c474     eqmap.obj
 0002:00000484       ??_C@_08LLGCOLLL@iostream?$AA@ 0041c484     eqmap.obj
 0002:00000490       ??_C@_0BG@PADBLCHM@iostream?5stream?5error?$AA@ 0041c490     eqmap.obj
 0002:000004a8       ??_C@_06FHFOAHML@system?$AA@ 0041c4a8     eqmap.obj
 0002:000004b0       ??_C@_08EPJLHIJG@bad?5cast?$AA@ 0041c4b0     eqmap.obj
 0002:000004c0       ??_C@_0EH@FFMEKAOB@bad?5lexical?5cast?3?5source?5type?5va@ 0041c4c0     eqmap.obj
 0002:00000508       ??_C@_0BO@HKHPGMPA@call?5to?5empty?5boost?3?3function?$AA@ 0041c508     eqmap.obj
 0002:00000528       ??_C@_0BD@DNDIGOFF@?$DMunspecified?5file?$DO?$AA@ 0041c528     eqmap.obj
 0002:0000053c       ??_C@_02LMMGGCAJ@?3?5?$AA@ 0041c53c     eqmap.obj
 0002:00000540       ??_C@_09GPMHGPPJ@eqmap?4ini?$AA@ 0041c540     eqmap.obj
 0002:0000054c       ??_C@_09CBDEHNCB@zones?4ini?$AA@ 0041c54c     eqmap.obj
 0002:00000558       ??_C@_04ILAGGJBN@maps?$AA@ 0041c558     eqmap.obj
 0002:00000560       ??_C@_06BIBHMBFB@qeynos?$AA@ 0041c560     eqmap.obj
 0002:00000568       ??_C@_05BBOGGNLJ@Other?$AA@ 0041c568     eqmap.obj
 0002:00000570       ??_C@_04HPMIDMKH@True?$AA@ 0041c570     eqmap.obj
 0002:00000578       ??_C@_05MKDOIIA@False?$AA@ 0041c578     eqmap.obj
 0002:00000580       ??_C@_05HNNAPOPF@eqmap?$AA@ 0041c580     eqmap.obj
 0002:00000588       ??_C@_01CLKCMJKC@?5?$AA@   0041c588     eqmap.obj
 0002:0000058c       ??_C@_01IHBHIGKO@?0?$AA@   0041c58c     eqmap.obj
 0002:00000590       ??_C@_0M@EDEGELFF@Line?5From?5X?$AA@ 0041c590     eqmap.obj
 0002:0000059c       ??_C@_0M@FKFNHKBE@Line?5From?5Y?$AA@ 0041c59c     eqmap.obj
 0002:000005a8       ??_C@_0M@HBHACJNH@Line?5From?5Z?$AA@ 0041c5a8     eqmap.obj
 0002:000005b4       ??_C@_09JHIJIMEH@Line?5To?5X?$AA@ 0041c5b4     eqmap.obj
 0002:000005c0       ??_C@_09IOJCLNAG@Line?5To?5Y?$AA@ 0041c5c0     eqmap.obj
 0002:000005cc       ??_C@_09KFLPOOMF@Line?5To?5Z?$AA@ 0041c5cc     eqmap.obj
 0002:000005d8       ??_C@_08ICAMEGMG@Line?5Red?$AA@ 0041c5d8     eqmap.obj
 0002:000005e4       ??_C@_0L@IOBKOGFM@Line?5Green?$AA@ 0041c5e4     eqmap.obj
 0002:000005f0       ??_C@_09GKADOFGO@Line?5Blue?$AA@ 0041c5f0     eqmap.obj
 0002:000005fc       ??_C@_07BFIONOJF@Point?5X?$AA@ 0041c5fc     eqmap.obj
 0002:00000604       ??_C@_07MJFOPNE@Point?5Y?$AA@ 0041c604     eqmap.obj
 0002:0000060c       ??_C@_07CHLILMBH@Point?5Z?$AA@ 0041c60c     eqmap.obj
 0002:00000614       ??_C@_09ENGNNDAO@Point?5Red?$AA@ 0041c614     eqmap.obj
 0002:00000620       ??_C@_0M@NFMBDLA@Point?5Green?$AA@ 0041c620     eqmap.obj
 0002:0000062c       ??_C@_0L@PPHDMOHJ@Point?5Blue?$AA@ 0041c62c     eqmap.obj
 0002:00000638       ??_C@_0L@JOHBMHEE@Point?5Size?$AA@ 0041c638     eqmap.obj
 0002:00000644       ??_C@_01IDAFKMJL@_?$AA@    0041c644     eqmap.obj
 0002:00000648       ??_C@_01KICIPPFI@?2?$AA@   0041c648     eqmap.obj
 0002:0000064c       ??_C@_01KMDKNFGN@?1?$AA@   0041c64c     eqmap.obj
 0002:00000650       ??_C@_04LCMACLFG@?4txt?$AA@ 0041c650     eqmap.obj
 0002:00000658       ??_C@_03NLJIHOMM@?5?9?5?$AA@ 0041c658     eqmap.obj
 0002:0000065c       ??_C@_01IPJKGB@?$CD?$AA@   0041c65c     eqmap.obj
 0002:00000660       ??_C@_02CBLDBPFN@?1?1?$AA@ 0041c660     eqmap.obj
 0002:00000664       ??_C@_01OHGJGJJP@?$FL?$AA@ 0041c664     eqmap.obj
 0002:00000668       ??_C@_01LBDDMOBJ@?$FN?$AA@ 0041c668     eqmap.obj
 0002:0000066c       ??_C@_02GPECMEKF@?$FL?$FN?$AA@ 0041c66c     eqmap.obj
 0002:00000670       ??_C@_01NEMOKFLO@?$DN?$AA@ 0041c670     eqmap.obj
 0002:00000674       ??_C@_01GBGANLPD@0?$AA@    0041c674     eqmap.obj
 0002:00000678       ??_C@_01JOAMLHOP@?9?$AA@   0041c678     eqmap.obj
 0002:0000067c       ??_C@_01PKGAHCOL@?$CJ?$AA@ 0041c67c     eqmap.obj
 0002:00000680       ??_C@_02KEGNLNML@?0?5?$AA@ 0041c680     eqmap.obj
 0002:00000684       ??_C@_01ODHLEDKK@?$CI?$AA@ 0041c684     eqmap.obj
 0002:00000688       ??_C@_0O@FDPGKJBO@Origin?5?$CI0?0?50?$CJ?$AA@ 0041c688     eqmap.obj
 0002:00000698       ??_C@_05MKOPJMEO@FPS?3?5?$AA@ 0041c698     eqmap.obj
 0002:000006a0       ??_C@_01FJMABOPO@x?$AA@    0041c6a0     eqmap.obj
 0002:000006a4       ??_C@_0N@HLFICIPG@Resolution?3?5?$AA@ 0041c6a4     eqmap.obj
 0002:000006b4       ??_C@_06HCMCKAFB@Zoom?3?5?$AA@ 0041c6b4     eqmap.obj
 0002:000006bc       ??_C@_07FMBPCDID@Lines?3?5?$AA@ 0041c6bc     eqmap.obj
 0002:000006c4       ??_C@_08IHBPHCLF@Points?3?5?$AA@ 0041c6c4     eqmap.obj
 0002:000006d0       ??_C@_06HMFNEBOE@Base?3?5?$AA@ 0041c6d0     eqmap.obj
 0002:000006d8       ??_C@_09MKLOFEFH@Layer?51?3?5?$AA@ 0041c6d8     eqmap.obj
 0002:000006e4       ??_C@_09NIALPLLJ@Layer?52?3?5?$AA@ 0041c6e4     eqmap.obj
 0002:000006f0       ??_C@_09GALHJMNM@Layer?53?3?5?$AA@ 0041c6f0     eqmap.obj
 0002:000006fc       ??_C@_0BI@CMKPPFLD@?5Zones?5iconified?$DNfalse?5?$AA@ 0041c6fc     eqmap.obj
 0002:00000714       ??_C@_05GJLNDGJP@Zones?$AA@ 0041c714     eqmap.obj
 0002:00000720       ??_C@_0FE@FOCNNLNN@?5Zones?5iconified?$DNtrue?5refresh?$DN0?4@ 0041c720     eqmap.obj
 0002:00000778       ??_C@_0EB@LEEPCEAG@?5label?$DN?8File?3?5?8?5help?$DN?8File?5that?5@ 0041c778     eqmap.obj
 0002:000007bc       ??_C@_09GIBKNJBP@ZonesFile?$AA@ 0041c7bc     eqmap.obj
 0002:000007c8       ??_C@_0EB@JCBAKKJN@?5label?$DN?8Search?3?5?8?5help?$DN?8Filter?5o@ 0041c7c8     eqmap.obj
 0002:0000080c       ??_C@_0M@KCJKEAKH@ZonesSearch?$AA@ 0041c80c     eqmap.obj
 0002:00000818       ??_C@_0FO@DOKBIGE@?5label?$DN?8Refresh?5Zones?5List?8?5help@ 0041c818     eqmap.obj
 0002:00000878       ??_C@_0N@MIIDBBFI@RefreshZones?$AA@ 0041c878     eqmap.obj
 0002:00000888       ??_C@_0M@BNLGGKAL@ZoneButton_?$AA@ 0041c888     eqmap.obj
 0002:00000894       ??_C@_08HHHBCIBA@?8?5group?$DN?$AA@ 0041c894     eqmap.obj
 0002:000008a0       ??_C@_08KCOKEBCG@?5label?$DN?8?$AA@ 0041c8a0     eqmap.obj
 0002:000008ac       ??_C@_02KIDIFCCK@?8?5?$AA@ 0041c8ac     eqmap.obj
 0002:000008b0       ??_C@_07HDPNGJMP@?5Zones?1?$AA@ 0041c8b0     eqmap.obj
 0002:000008b8       ??_C@_07KHIHFBFN@Options?$AA@ 0041c8b8     eqmap.obj
 0002:000008c0       ??_C@_0FG@BPDCPHKF@?5Options?5iconified?$DNfalse?5refresh@ 0041c8c0     eqmap.obj
 0002:00000918       ??_C@_0GE@KACJPMGA@?5label?$DN?8Information?5Text?8?5help?$DN?8@ 0041c918     eqmap.obj
 0002:0000097c       ??_C@_08GPLIMDPE@InfoText?$AA@ 0041c97c     eqmap.obj
 0002:00000988       ??_C@_0DO@FEAACNMK@?5group?$DNWindow?5label?$DN?8Width?3?5?8?5he@ 0041c988     eqmap.obj
 0002:000009c8       ??_C@_0M@MGMEPGHD@WindowWidth?$AA@ 0041c9c8     eqmap.obj
 0002:000009d8       ??_C@_0EA@GNDHKLAE@?5group?$DNWindow?5label?$DN?8Height?3?5?8?5h@ 0041c9d8     eqmap.obj
 0002:00000a18       ??_C@_0N@NOPBEIBO@WindowHeight?$AA@ 0041ca18     eqmap.obj
 0002:00000a28       ??_C@_0GL@GDLOOFEO@?5group?$DNWindow?5label?$DN?8Toggle?5Full@ 0041ca28     eqmap.obj
 0002:00000a94       ??_C@_0BB@NGNFDOBO@ToggleFullscreen?$AA@ 0041ca94     eqmap.obj
 0002:00000aa8       ??_C@_0EH@MOBGPDDC@?5group?$DNMap?5label?$DN?8Folder?3?5?8?5help@ 0041caa8     eqmap.obj
 0002:00000af0       ??_C@_09PFJDAKIF@MapFolder?$AA@ 0041caf0     eqmap.obj
 0002:00000afc       ??_C@_0DE@PCPNKGBJ@?5group?$DNZone?5label?$DN?8Name?3?5?8?5help?$DN@ 0041cafc     eqmap.obj
 0002:00000b30       ??_C@_08EICNIKCA@ZoneName?$AA@ 0041cb30     eqmap.obj
 0002:00000b40       ??_C@_0EK@EOIBEJHF@?5group?$DNZone?5label?$DN?8Load?5Zone?8?5he@ 0041cb40     eqmap.obj
 0002:00000b8c       ??_C@_08NNBKOKLP@LoadZone?$AA@ 0041cb8c     eqmap.obj
 0002:00000b98       ??_C@_0BJ@FAGHAMKC@?5Options?1Zone?5group?$DNMap?5?$AA@ 0041cb98     eqmap.obj
 0002:00000bb8       ??_C@_0GE@HLHHMMBH@?5group?$DNMap?5label?$DN?8FPS?3?5?8?5help?$DN?8T@ 0041cbb8     eqmap.obj
 0002:00000c1c       ??_C@_0BA@LKNDKANA@FramesPerSecond?$AA@ 0041cc1c     eqmap.obj
 0002:00000c30       ??_C@_0HN@PNEJJNJO@?5group?$DNMap?5label?$DN?8Zoom?3?5?8?5help?$DN?8@ 0041cc30     eqmap.obj
 0002:00000cb0       ??_C@_07IMJIBEPC@MapZoom?$AA@ 0041ccb0     eqmap.obj
 0002:00000cb8       ??_C@_0HH@IKDBIMHB@?5group?$DNMap?5label?$DN?8Zoom?5Multiplie@ 0041ccb8     eqmap.obj
 0002:00000d30       ??_C@_0BC@JFECKDHI@MapZoomMultiplier?$AA@ 0041cd30     eqmap.obj
 0002:00000d44       ??_C@_0DP@DDMGDNJK@?5group?$DNMap?5label?$DN?8Lines?3?5?8?5help?$DN@ 0041cd44     eqmap.obj
 0002:00000d84       ??_C@_0O@OHNPABHK@MapLinesTotal?$AA@ 0041cd84     eqmap.obj
 0002:00000d98       ??_C@_0EB@LPDDCMB@?5group?$DNMap?5label?$DN?8Points?3?5?8?5help@ 0041cd98     eqmap.obj
 0002:00000ddc       ??_C@_0P@OOBMOHBK@MapPointsTotal?$AA@ 0041cddc     eqmap.obj
 0002:00000df0       ??_C@_0EN@BFBIGAOG@?5group?$DNMap?5label?$DN?8Lines?5Visible?3@ 0041cdf0     eqmap.obj
 0002:00000e40       ??_C@_0BA@BHMPNFJO@MapLinesVisible?$AA@ 0041ce40     eqmap.obj
 0002:00000e50       ??_C@_0EP@LGAHNNFJ@?5group?$DNMap?5label?$DN?8Points?5Visible@ 0041ce50     eqmap.obj
 0002:00000ea0       ??_C@_0BB@DLFLPALH@MapPointsVisible?$AA@ 0041cea0     eqmap.obj
 0002:00000eb8       ??_C@_0FO@PCIAEFII@?5group?$DNMap?5label?$DN?8Offset?5X?3?5?8?5he@ 0041ceb8     eqmap.obj
 0002:00000f18       ??_C@_0L@BCEEHJEH@MapOffsetX?$AA@ 0041cf18     eqmap.obj
 0002:00000f28       ??_C@_0FO@CGDAMEOJ@?5group?$DNMap?5label?$DN?8Offset?5Y?3?5?8?5he@ 0041cf28     eqmap.obj
 0002:00000f88       ??_C@_0L@LFPEIAG@MapOffsetY?$AA@ 0041cf88     eqmap.obj
 0002:00000f98       ??_C@_0EE@GMMHAEPD@?5group?$DNDraw?5label?$DN?8Lines?8?5help?$DN?8@ 0041cf98     eqmap.obj
 0002:00000fdc       ??_C@_0N@EGDKEENA@MapDrawLines?$AA@ 0041cfdc     eqmap.obj
 0002:00000ff0       ??_C@_0FF@KBIKIIAJ@?5group?$DNDraw?5label?$DN?8Points?8?5help?$DN@ 0041cff0     eqmap.obj
 0002:00001048       ??_C@_0O@JEMOJKJG@MapDrawPoints?$AA@ 0041d048     eqmap.obj
 0002:00001058       ??_C@_0FG@BPDGMLEA@?5group?$DNDraw?5label?$DN?8Origin?8?5help?$DN@ 0041d058     eqmap.obj
 0002:000010b0       ??_C@_0O@CMIKHEEB@MapDrawOrigin?$AA@ 0041d0b0     eqmap.obj
 0002:000010c0       ??_C@_0BJ@KMGBIOLD@?5Options?1Draw?5group?$DNMap?5?$AA@ 0041d0c0     eqmap.obj
 0002:000010e0       ??_C@_0EE@FPAFFEGG@?5group?$DNLayers?5label?$DN?8Base?8?5help?$DN@ 0041d0e0     eqmap.obj
 0002:00001124       ??_C@_09KAHDNDFO@MapLayer0?$AA@ 0041d124     eqmap.obj
 0002:00001130       ??_C@_0EI@BBDJJII@?5group?$DNLayers?5label?$DN?8Layer?51?8?5he@ 0041d130     eqmap.obj
 0002:00001178       ??_C@_09LJGIOCBP@MapLayer1?$AA@ 0041d178     eqmap.obj
 0002:00001188       ??_C@_0EJ@EINHPOCC@?5group?$DNLayers?5label?$DN?8Layer?52?8?5he@ 0041d188     eqmap.obj
 0002:000011d4       ??_C@_09JCEFLBNM@MapLayer2?$AA@ 0041d1d4     eqmap.obj
 0002:000011e0       ??_C@_0EI@JCJANNHL@?5group?$DNLayers?5label?$DN?8Layer?53?8?5he@ 0041d1e0     eqmap.obj
 0002:00001228       ??_C@_09ILFOIAJN@MapLayer3?$AA@ 0041d228     eqmap.obj
 0002:00001234       ??_C@_0BL@FFLDLGGP@?5Options?1Layers?5group?$DNMap?5?$AA@ 0041d234     eqmap.obj
 0002:00001250       ??_C@_0GM@KHNFKGK@?5group?$DNPoints?5label?$DN?8Ignore?5Size@ 0041d250     eqmap.obj
 0002:000012bc       ??_C@_0BE@PJEBGHLN@MapPointsIgnoreSize?$AA@ 0041d2bc     eqmap.obj
 0002:000012d0       ??_C@_0HL@LNDMJPMN@?5group?$DNPoints?5label?$DN?8Show?5?1loc?5C@ 0041d2d0     eqmap.obj
 0002:0000134c       ??_C@_0BJ@DEPMHBCD@MapDrawPointsCoordinates?$AA@ 0041d34c     eqmap.obj
 0002:00001368       ??_C@_0HC@HFPFNNGP@?5group?$DNPoints?5label?$DN?8Opaque?5Back@ 0041d368     eqmap.obj
 0002:000013dc       ??_C@_0BE@LIABOHPK@MapDrawPointsOpaque?$AA@ 0041d3dc     eqmap.obj
 0002:000013f0       ??_C@_0P@GJJKBMGB@?5group?$DNPoints?5?$AA@ 0041d3f0     eqmap.obj
 0002:00001400       ??_C@_0FI@LKBPPIIA@?5group?$DNPoints?5label?$DN?8Base?8?5help?$DN@ 0041d400     eqmap.obj
 0002:00001458       ??_C@_0BE@MALIPEG@MapDrawPointsLayer0?$AA@ 0041d458     eqmap.obj
 0002:00001470       ??_C@_0FM@IMEMPID@?5group?$DNPoints?5label?$DN?8Layer?51?8?5he@ 0041d470     eqmap.obj
 0002:000014cc       ??_C@_0BE@BFBALOAH@MapDrawPointsLayer1?$AA@ 0041d4cc     eqmap.obj
 0002:000014e0       ??_C@_0FN@CBKBFJKM@?5group?$DNPoints?5label?$DN?8Layer?52?8?5he@ 0041d4e0     eqmap.obj
 0002:00001540       ??_C@_0BE@DODNONME@MapDrawPointsLayer2?$AA@ 0041d540     eqmap.obj
 0002:00001558       ??_C@_0FM@BNAFGCHB@?5group?$DNPoints?5label?$DN?8Layer?53?8?5he@ 0041d558     eqmap.obj
 0002:000015b4       ??_C@_0BE@CHCGNMIF@MapDrawPointsLayer3?$AA@ 0041d5b4     eqmap.obj
 0002:000015c8       ??_C@_0BL@OGNMLIDN@?5Options?1Points?5group?$DNMap?5?$AA@ 0041d5c8     eqmap.obj
 0002:000015e8       ??_C@_0IM@EDKBPANJ@?5group?$DNHeightFilter?5label?$DN?8Minim@ 0041d5e8     eqmap.obj
 0002:00001674       ??_C@_04NNINHPGH@MinZ?$AA@ 0041d674     eqmap.obj
 0002:00001680       ??_C@_0JI@EIGIEEJO@?5group?$DNHeightFilter?5label?$DN?8Maxim@ 0041d680     eqmap.obj
 0002:00001718       ??_C@_04JCIIEK@MaxZ?$AA@   0041d718     eqmap.obj
 0002:00001720       ??_C@_0GP@IGNNMEID@?5group?$DNHeightFilter?5label?$DN?8Reset@ 0041d720     eqmap.obj
 0002:00001790       ??_C@_0BC@JJFHPPED@ResetHeightFilter?$AA@ 0041d790     eqmap.obj
 0002:000017a4       ??_C@_0DH@NAKFLKHL@?5Options?1HeightFilter?5label?$DN?8Hei@ 0041d7a4     eqmap.obj
 0002:000017e0       ??_C@_0FE@LNILLLHI@?5group?$DNBounds?5label?$DN?8Width?3?5?8?5he@ 0041d7e0     eqmap.obj
 0002:00001834       ??_C@_08JDDBDAL@MapWidth?$AA@ 0041d834     eqmap.obj
 0002:00001840       ??_C@_0FF@MPPOGGOA@?5group?$DNBounds?5label?$DN?8Height?3?5?8?5h@ 0041d840     eqmap.obj
 0002:00001898       ??_C@_09IAOAEGPF@MapHeight?$AA@ 0041d898     eqmap.obj
 0002:000018a8       ??_C@_0FE@BNOCBOMJ@?5group?$DNBounds?5label?$DN?8Depth?3?5?8?5he@ 0041d8a8     eqmap.obj
 0002:000018fc       ??_C@_08JGPKEOPH@MapDepth?$AA@ 0041d8fc     eqmap.obj
 0002:00001908       ??_C@_0P@HDAJLPEI@?5group?$DNBounds?5?$AA@ 0041d908     eqmap.obj
 0002:00001918       ??_C@_0EP@FPLIJLID@?5group?$DNBounds?5label?$DN?8Minimum?5X?9A@ 0041d918     eqmap.obj
 0002:00001968       ??_C@_07NIMAKIDN@MapMinX?$AA@ 0041d968     eqmap.obj
 0002:00001970       ??_C@_0FA@MDJFBDFF@?5group?$DNBounds?5label?$DN?8Maximum?5X?9A@ 0041d970     eqmap.obj
 0002:000019c0       ??_C@_07FNPFPBA@MapMaxX?$AA@ 0041d9c0     eqmap.obj
 0002:000019c8       ??_C@_0EP@LFAFJJDD@?5group?$DNBounds?5label?$DN?8Minimum?5Y?9A@ 0041d9c8     eqmap.obj
 0002:00001a18       ??_C@_07MBNLJJHM@MapMinY?$AA@ 0041da18     eqmap.obj
 0002:00001a20       ??_C@_0FA@GHCHPLIH@?5group?$DNBounds?5label?$DN?8Maximum?5Y?9A@ 0041da20     eqmap.obj
 0002:00001a70       ??_C@_07BMMEGOFB@MapMaxY?$AA@ 0041da70     eqmap.obj
 0002:00001a78       ??_C@_0HA@DNODMEGI@?5group?$DNBounds?5label?$DN?8Midpoint?5X?9@ 0041da78     eqmap.obj
 0002:00001ae8       ??_C@_07NFFHCNOL@MapMidX?$AA@ 0041dae8     eqmap.obj
 0002:00001af0       ??_C@_0HA@PFDHNIDA@?5group?$DNBounds?5label?$DN?8Midpoint?5Y?9@ 0041daf0     eqmap.obj
 0002:00001b60       ??_C@_07MMEMBMKK@MapMidY?$AA@ 0041db60     eqmap.obj
 0002:00001b68       ??_C@_0BL@OKBMFOJM@?5Options?1Bounds?5group?$DNMap?5?$AA@ 0041db68     eqmap.obj
 0002:00001b84       ??_C@_0BO@HBMPDJIK@?5Options?1Bounds?5opened?$DNfalse?5?$AA@ 0041db84     eqmap.obj
 0002:00001ba8       ??_C@_0EA@LBGEOOKH@?5group?$DNGrid?5label?$DN?8Enabled?8?5help@ 0041dba8     eqmap.obj
 0002:00001be8       ??_C@_0M@HGGKEPGC@MapDrawGrid?$AA@ 0041dbe8     eqmap.obj
 0002:00001bf8       ??_C@_0EK@DBKLBHCF@?5group?$DNGrid?5label?$DN?8Coordinates?8?5@ 0041dbf8     eqmap.obj
 0002:00001c44       ??_C@_0BH@MMGDNADM@MapDrawGridCoordinates?$AA@ 0041dc44     eqmap.obj
 0002:00001c5c       ??_C@_0BM@OCMJEKIL@?5group?$DNGrid?5label?$DN?8Size?3?5?8?5?$AA@ 0041dc5c     eqmap.obj
 0002:00001c78       ??_C@_0M@OMEJIAEB@MapGridSize?$AA@ 0041dc78     eqmap.obj
 0002:00001c88       ??_C@_0EB@KDEEPKIK@?5group?$DNGrid?5label?$DN?8Color?3?5?8?5help@ 0041dc88     eqmap.obj
 0002:00001ccc       ??_C@_0N@OIENFJFM@MapGridColor?$AA@ 0041dccc     eqmap.obj
 0002:00001cdc       ??_C@_0BJ@LPDNOOGD@?5Options?1Grid?5group?$DNMap?5?$AA@ 0041dcdc     eqmap.obj
 0002:00001cf8       ??_C@_0HF@PKEGGFEN@?5group?$DNMap?5label?$DN?8Zoom?5Map?5to?5Fi@ 0041dcf8     eqmap.obj
 0002:00001d70       ??_C@_09OMGELBIO@ZoomToFit?$AA@ 0041dd70     eqmap.obj
 0002:00001d80       ??_C@_0GP@LANJJCKF@?5group?$DNMap?5label?$DN?8Reset?5Zoom?5and@ 0041dd80     eqmap.obj
 0002:00001df0       ??_C@_0BG@MKKMKKHC@ResetZoomAndCenterMap?$AA@ 0041ddf0     eqmap.obj
 0002:00001e08       ??_C@_0DK@EPHJHCHP@?5label?$DN?8Exit?8?5help?$DN?8Close?5this?5a@ 0041de08     eqmap.obj
 0002:00001e44       ??_C@_04LBABLPF@Exit?$AA@  0041de44     eqmap.obj
 0002:00001e4c       ??_C@_0N@JONLDPMA@Window?4Width?$AA@ 0041de4c     eqmap.obj
 0002:00001e5c       ??_C@_0O@IMMBLFOB@Window?4Height?$AA@ 0041de5c     eqmap.obj
 0002:00001e6c       ??_C@_0BB@FKIOHHA@Window?4Maximized?$AA@ 0041de6c     eqmap.obj
 0002:00001e80       ??_C@_0BC@LIBOMBDO@Window?4Fullscreen?$AA@ 0041de80     eqmap.obj
 0002:00001e94       ??_C@_0L@KNDHGJB@Zones?4File?$AA@ 0041de94     eqmap.obj
 0002:00001ea0       ??_C@_0L@MODENDGP@Map?4Folder?$AA@ 0041dea0     eqmap.obj
 0002:00001eac       ??_C@_08LAIBFCLO@Map?4Zone?$AA@ 0041deac     eqmap.obj
 0002:00001eb8       ??_C@_0BI@DKPLEBK@InformationText?4Enabled?$AA@ 0041deb8     eqmap.obj
 0002:00001ed0       ??_C@_0L@PBFECJB@Draw?4Lines?$AA@ 0041ded0     eqmap.obj
 0002:00001edc       ??_C@_0M@JFFMMEJG@Draw?4Points?$AA@ 0041dedc     eqmap.obj
 0002:00001ee8       ??_C@_0M@CNBICKEB@Draw?4Origin?$AA@ 0041dee8     eqmap.obj
 0002:00001ef4       ??_C@_0M@NNHGAKBJ@Layers?4Base?$AA@ 0041def4     eqmap.obj
 0002:00001f00       ??_C@_0O@PAHCEFAA@Layers?4Layer1?$AA@ 0041df00     eqmap.obj
 0002:00001f10       ??_C@_0O@NLFPBGMD@Layers?4Layer2?$AA@ 0041df10     eqmap.obj
 0002:00001f20       ??_C@_0O@MCEECHIC@Layers?4Layer3?$AA@ 0041df20     eqmap.obj
 0002:00001f30       ??_C@_0BC@KPMMHCHD@Points?4IgnoreSize?$AA@ 0041df30     eqmap.obj
 0002:00001f44       ??_C@_0BH@FMGOBPJO@Points?4ShowCoordinates?$AA@ 0041df44     eqmap.obj
 0002:00001f5c       ??_C@_0BI@LNMFMBBE@Points?4OpaqueBackground?$AA@ 0041df5c     eqmap.obj
 0002:00001f74       ??_C@_0M@OFIGJHNA@Points?4Base?$AA@ 0041df74     eqmap.obj
 0002:00001f80       ??_C@_0O@GEPEPOAO@Points?4Layer1?$AA@ 0041df80     eqmap.obj
 0002:00001f90       ??_C@_0O@EPNJKNMN@Points?4Layer2?$AA@ 0041df90     eqmap.obj
 0002:00001fa0       ??_C@_0O@FGMCJMIM@Points?4Layer3?$AA@ 0041dfa0     eqmap.obj
 0002:00001fb0       ??_C@_0N@OFHBIIFD@Grid?4Enabled?$AA@ 0041dfb0     eqmap.obj
 0002:00001fc0       ??_C@_0BB@PDLPKELJ@Grid?4Coordinates?$AA@ 0041dfc0     eqmap.obj
 0002:00001fd4       ??_C@_0O@CCABFHKD@Grid?4ColorRed?$AA@ 0041dfd4     eqmap.obj
 0002:00001fe4       ??_C@_0BA@PMCAPJEB@Grid?4ColorGreen?$AA@ 0041dfe4     eqmap.obj
 0002:00001ff4       ??_C@_0P@FHHLHNKI@Grid?4ColorBlue?$AA@ 0041dff4     eqmap.obj
 0002:00002004       ??_C@_0CP@BBGEPFMA@Drag?5and?5drop?5multiple?5files?5is?5@ 0041e004     eqmap.obj
 0002:00002034       ??_C@_04PHHEBHMK@?4ini?$AA@ 0041e034     eqmap.obj
 0002:0000203c       ??_C@_08GFGKLDLB@FREEGLUT?$AA@ 0041e03c     eqmap.obj
 0002:00002048       ??_C@_0DP@CGEEMFAB@?5GLOBAL?5fontsize?$DN2?5contained?$DNtru@ 0041e048     eqmap.obj
 0002:00002088       ??_C@_0CL@OFPMBNGL@?5TW_HELP?5position?$DN?8512?516?8?5size?$DN@ 0041e088     eqmap.obj
 0002:000020b4       ??_C@_0BI@CFPLBAOH@invalid?5string?5position?$AA@ 0041e0b4     eqmap.obj
 0002:000020cc       ??_C@_0BM@NMJKDPPO@invalid?5vector?$DMT?$DO?5subscript?$AA@ 0041e0cc     eqmap.obj
 0002:000020e8       ??_C@_0BA@JFNIOLAK@string?5too?5long?$AA@ 0041e0e8     eqmap.obj
 0002:000020f8       ??_C@_0BD@OLBABOEK@vector?$DMT?$DO?5too?5long?$AA@ 0041e0f8     eqmap.obj
 0002:0000210c       ??_C@_04FMMHFHOO@?$AN?6?$AN?6?$AA@ 0041e10c     eqmap.obj
 0002:00002114       ??_C@_06GECNACHD@Name?3?5?$AA@ 0041e114     eqmap.obj
 0002:0000211c       ??_C@_02PCIJFNDE@?$AN?6?$AA@ 0041e11c     eqmap.obj
 0002:00002120       ??_C@_07NKNBHOMN@Value?3?5?$AA@ 0041e120     eqmap.obj
 0002:00002128       ??_C@_07KHMCLHAO@Index?3?5?$AA@ 0041e128     eqmap.obj
 0002:00002130       ??_C@_06FIEBOLOH@Line?3?5?$AA@ 0041e130     eqmap.obj
 0002:00002138       ??_C@_06IGPBOHMJ@File?3?5?$AA@ 0041e138     eqmap.obj
 0002:00002140       ??_C@_0BI@LEHDLAGG@Error?5while?5parsing?5map?$AA@ 0041e140     eqmap.obj
 0002:00002158       ??_C@_0CL@OENPGCMA@Unknown?5exception?5caught?5while?5p@ 0041e158     eqmap.obj
 0002:00002188       ??_C@_0ED@BNKAKFFN@D?3?2Code?2_libraries?2boost_1_54_0?2@ 0041e188     eqmap.obj
 0002:000021d0       ??_C@_0DEA@GDCJDNNB@void?5__cdecl?5boost?3?3property_tre@ 0041e1d0     eqmap.obj
 0002:00002510       ??_C@_0BB@HMGEDEGN@cannot?5open?5file?$AA@ 0041e510     eqmap.obj
 0002:00002528       ??_C@_0DAG@OIJEKPKC@void?5__cdecl?5boost?3?3property_tre@ 0041e528     eqmap.obj
 0002:00002830       ??_C@_0L@JBGDLKBH@read?5error?$AA@ 0041e830     eqmap.obj
 0002:0000283c       ??_C@_0O@GJLGPNE@unmatched?5?8?$FL?8?$AA@ 0041e83c     eqmap.obj
 0002:0000284c       ??_C@_0BH@FMFPNBLC@duplicate?5section?5name?$AA@ 0041e84c     eqmap.obj
 0002:00002864       ??_C@_0CA@NHLMMDON@?8?$DN?8?5character?5not?5found?5in?5line?$AA@ 0041e864     eqmap.obj
 0002:00002884       ??_C@_0N@MLCADFAM@key?5expected?$AA@ 0041e884     eqmap.obj
 0002:00002894       ??_C@_0BD@OLCNADOK@duplicate?5key?5name?$AA@ 0041e894     eqmap.obj
 0002:000028a8       ??_C@_08CGODDKPM@infinity?$AA@ 0041e8a8     eqmap.obj
 0002:000028b4       ??_C@_08FJEPAENL@INFINITY?$AA@ 0041e8b4     eqmap.obj
 0002:000028c0       ??_C@_03LHCJEHON@nan?$AA@  0041e8c0     eqmap.obj
 0002:000028c4       ??_C@_03LKNCIKJB@NAN?$AA@  0041e8c4     eqmap.obj
 0002:000028c8       ??_C@_0EE@HHCAOHKO@D?3?2Code?2_libraries?2boost_1_54_0?2@ 0041e8c8     eqmap.obj
 0002:00002910       ??_C@_0BHC@KHPAJCGG@class?5std?3?3basic_string?$DMchar?0str@ 0041e910     eqmap.obj
 0002:00002a84       ??_C@_0BC@EPFPEJDA@Path?5syntax?5error?$AA@ 0041ea84     eqmap.obj
 0002:00002a98       ??_C@_0BC@KBDMBKEH@deque?$DMT?$DO?5too?5long?$AA@ 0041ea98     eqmap.obj
 0002:00002aac       ??_C@_02GFKOMOKH@?5?$CI?$AA@ 0041eaac     eqmap.obj
 0002:00002ab4       ??_7?$basic_ifstream@DU?$char_traits@D@std@@@std@@6B@ 0041eab4     eqmap.obj
 0002:00002ac4       ??_7?$clone_impl@U?$error_info_injector@Vbad_function_call@boost@@@exception_detail@boost@@@exception_detail@boost@@6B@ 0041eac4     eqmap.obj
 0002:00002ad0       ??_8?$clone_impl@U?$error_info_injector@Vbad_function_call@boost@@@exception_detail@boost@@@exception_detail@boost@@7B@ 0041ead0     eqmap.obj
 0002:00002adc       ??_7file_parser_error@property_tree@boost@@6B@ 0041eadc     eqmap.obj
 0002:00002ae8       ??_7runtime_error@std@@6B@ 0041eae8     eqmap.obj
 0002:00002af4       ??_7bad_lexical_cast@boost@@6B@ 0041eaf4     eqmap.obj
 0002:00002b04       ??_7?$basic_stringbuf@DU?$char_traits@D@std@@V?$allocator@D@2@@std@@6B@ 0041eb04     eqmap.obj
 0002:00002b44       ??_7?$clone_impl@U?$error_info_injector@Vptree_bad_path@property_tree@boost@@@exception_detail@boost@@@exception_detail@boost@@6Bexception@2@@ 0041eb44     eqmap.obj
 0002:00002b4c       ??_7?$error_info_injector@Vbad_lexical_cast@boost@@@exception_detail@boost@@6Bexception@2@@ 0041eb4c     eqmap.obj
 0002:00002b5c       ??_7clone_base@exception_detail@boost@@6B@ 0041eb5c     eqmap.obj
 0002:00002b68       ??_8?$clone_impl@U?$error_info_injector@Vptree_bad_path@property_tree@boost@@@exception_detail@boost@@@exception_detail@boost@@7B@ 0041eb68     eqmap.obj
 0002:00002b74       ??_7_Generic_error_category@std@@6B@ 0041eb74     eqmap.obj
 0002:00002b8c       ?stored_vtable@?1???$assign_to@U?$token_finderF@U?$is_any_ofF@D@detail@algorithm@boost@@@detail@algorithm@boost@@@?$function2@V?$iterator_range@V?$_String_iterator@V?$_String_val@U?$_Simple_types@D@std@@@std@@@std@@@boost@@V?$_String_iterator@V?$_String_val@U?$_Simple_types@D@std@@@std@@@std@@V34@@boost@@AAEXU?$token_finderF@U?$is_any_ofF@D@detail@algorithm@boost@@@detail@algorithm@2@@Z@4U?$basic_vtable2@V?$iterator_range@V?$_String_iterator@V?$_String_val@U?$_Simple_types@D@std@@@std@@@std@@@boost@@V?$_String_iterator@V?$_String_val@U?$_Simple_types@D@std@@@std@@@std@@V34@@function@42@B 0041eb8c     eqmap.obj
 0002:00002b98       ??_7?$clone_impl@U?$error_info_injector@Vbad_function_call@boost@@@exception_detail@boost@@@exception_detail@boost@@6Bexception@2@@ 0041eb98     eqmap.obj
 0002:00002ba0       ??_7?$error_info_injector@Vbad_lexical_cast@boost@@@exception_detail@boost@@6Bbad_lexical_cast@2@@ 0041eba0     eqmap.obj
 0002:00002bac       ??_7?$numpunct@D@std@@6B@  0041ebac     eqmap.obj
 0002:00002bd0       ??_7?$error_info_injector@Vini_parser_error@ini_parser@property_tree@boost@@@exception_detail@boost@@6Bexception@2@@ 0041ebd0     eqmap.obj
 0002:00002bd8       ??_7ini_parser_error@ini_parser@property_tree@boost@@6B@ 0041ebd8     eqmap.obj
 0002:00002be0       ??_8?$clone_impl@U?$error_info_injector@Vbad_lexical_cast@boost@@@exception_detail@boost@@@exception_detail@boost@@7B@ 0041ebe0     eqmap.obj
 0002:00002bec       ??_7?$clone_impl@U?$error_info_injector@Vbad_lexical_cast@boost@@@exception_detail@boost@@@exception_detail@boost@@6B@ 0041ebec     eqmap.obj
 0002:00002bf8       ??_8?$basic_ifstream@DU?$char_traits@D@std@@@std@@7B@ 0041ebf8     eqmap.obj
 0002:00002c04       ??_7placeholder@any@boost@@6B@ 0041ec04     eqmap.obj
 0002:00002c14       ??_7?$clone_impl@U?$error_info_injector@Vbad_lexical_cast@boost@@@exception_detail@boost@@@exception_detail@boost@@6Bbad_lexical_cast@2@@ 0041ec14     eqmap.obj
 0002:00002c20       ??_7ptree_error@property_tree@boost@@6B@ 0041ec20     eqmap.obj
 0002:00002c2c       ??_7?$error_info_injector@Vbad_function_call@boost@@@exception_detail@boost@@6Bexception@2@@ 0041ec2c     eqmap.obj
 0002:00002c34       ??_7?$clone_impl@U?$error_info_injector@Vptree_bad_path@property_tree@boost@@@exception_detail@boost@@@exception_detail@boost@@6Bptree_bad_path@property_tree@2@@ 0041ec34     eqmap.obj
 0002:00002c40       ??_7?$basic_stringstream@DU?$char_traits@D@std@@V?$allocator@D@2@@std@@6B@ 0041ec40     eqmap.obj
 0002:00002c50       ??_7?$error_info_injector@Vini_parser_error@ini_parser@property_tree@boost@@@exception_detail@boost@@6Bini_parser_error@ini_parser@property_tree@2@@ 0041ec50     eqmap.obj
 0002:00002c5c       ??_7ptree_bad_path@property_tree@boost@@6B@ 0041ec5c     eqmap.obj
 0002:00002c68       ??_7bad_function_call@boost@@6B@ 0041ec68     eqmap.obj
 0002:00002c74       ??_7?$clone_impl@U?$error_info_injector@Vbad_function_call@boost@@@exception_detail@boost@@@exception_detail@boost@@6Bbad_function_call@2@@ 0041ec74     eqmap.obj
 0002:00002c80       ??_7?$error_info_injector@Vptree_bad_path@property_tree@boost@@@exception_detail@boost@@6Bptree_bad_path@property_tree@2@@ 0041ec80     eqmap.obj
 0002:00002c88       ??_8?$basic_stringstream@DU?$char_traits@D@std@@V?$allocator@D@2@@std@@7B?$basic_istream@DU?$char_traits@D@std@@@1@@ 0041ec88     eqmap.obj
 0002:00002c94       ??_7_System_error_category@std@@6B@ 0041ec94     eqmap.obj
 0002:00002cb0       ??_7_Iostream_error_category@std@@6B@ 0041ecb0     eqmap.obj
 0002:00002ccc       ??_7?$error_info_injector@Vbad_function_call@boost@@@exception_detail@boost@@6Bbad_function_call@2@@ 0041eccc     eqmap.obj
 0002:00002cd4       ??_8?$basic_stringstream@DU?$char_traits@D@std@@V?$allocator@D@2@@std@@7B?$basic_ostream@DU?$char_traits@D@std@@@1@@ 0041ecd4     eqmap.obj
 0002:00002ce0       ??_7error_category@std@@6B@ 0041ece0     eqmap.obj
 0002:00002cfc       ??_7?$holder@V?$string_path@V?$basic_string@DU?$char_traits@D@std@@V?$allocator@D@2@@std@@U?$id_translator@V?$basic_string@DU?$char_traits@D@std@@V?$allocator@D@2@@std@@@property_tree@boost@@@property_tree@boost@@@any@boost@@6B@ 0041ecfc     eqmap.obj
 0002:00002d0c       ??_7?$clone_impl@U?$error_info_injector@Vini_parser_error@ini_parser@property_tree@boost@@@exception_detail@boost@@@exception_detail@boost@@6Bexception@2@@ 0041ed0c     eqmap.obj
 0002:00002d10       ??_8?$clone_impl@U?$error_info_injector@Vini_parser_error@ini_parser@property_tree@boost@@@exception_detail@boost@@@exception_detail@boost@@7B@ 0041ed10     eqmap.obj
 0002:00002d1c       ??_7?$clone_impl@U?$error_info_injector@Vbad_lexical_cast@boost@@@exception_detail@boost@@@exception_detail@boost@@6Bexception@2@@ 0041ed1c     eqmap.obj
 0002:00002d24       ??_7exception@boost@@6B@   0041ed24     eqmap.obj
 0002:00002d2c       ??_7?$clone_impl@U?$error_info_injector@Vini_parser_error@ini_parser@property_tree@boost@@@exception_detail@boost@@@exception_detail@boost@@6B@ 0041ed2c     eqmap.obj
 0002:00002d3c       ??_7?$error_info_injector@Vptree_bad_path@property_tree@boost@@@exception_detail@boost@@6Bexception@2@@ 0041ed3c     eqmap.obj
 0002:00002d44       ??_7?$basic_istringstream@DU?$char_traits@D@std@@V?$allocator@D@2@@std@@6B@ 0041ed44     eqmap.obj
 0002:00002d50       ??_8?$basic_istringstream@DU?$char_traits@D@std@@V?$allocator@D@2@@std@@7B@ 0041ed50     eqmap.obj
 0002:00002d5c       ??_7?$basic_filebuf@DU?$char_traits@D@std@@@std@@6B@ 0041ed5c     eqmap.obj
 0002:00002d9c       ??_7?$clone_impl@U?$error_info_injector@Vini_parser_error@ini_parser@property_tree@boost@@@exception_detail@boost@@@exception_detail@boost@@6Bini_parser_error@ini_parser@property_tree@2@@ 0041ed9c     eqmap.obj
 0002:00002da8       ??_7?$clone_impl@U?$error_info_injector@Vptree_bad_path@property_tree@boost@@@exception_detail@boost@@@exception_detail@boost@@6B@ 0041eda8     eqmap.obj
 0002:00002db4       __real@3b800000            0041edb4     eqmap.obj
 0002:00002db8       __real@3c23d70a            0041edb8     eqmap.obj
 0002:00002dbc       __real@3f000000            0041edbc     eqmap.obj
 0002:00002dc0       __real@3f800000            0041edc0     eqmap.obj
 0002:00002dc4       __real@3fc00000            0041edc4     eqmap.obj
 0002:00002dc8       __real@3ff0000000000000    0041edc8     eqmap.obj
 0002:00002dd0       __real@40000000            0041edd0     eqmap.obj
 0002:00002dd8       __real@4024000000000000    0041edd8     eqmap.obj
 0002:00002de0       __real@40800000            0041ede0     eqmap.obj
 0002:00002de4       __real@40a00000            0041ede4     eqmap.obj
 0002:00002de8       __real@41200000            0041ede8     eqmap.obj
 0002:00002dec       __real@41700000            0041edec     eqmap.obj
 0002:00002df0       __real@42c80000            0041edf0     eqmap.obj
 0002:00002df4       __real@447a0000            0041edf4     eqmap.obj
 0002:00002df8       __real@44fa0000            0041edf8     eqmap.obj
 0002:00002e00       __xmm@41f00000000000000000000000000000 0041ee00     eqmap.obj
 0002:00002e10       __xmm@7fffffffffffffff7fffffffffffffff 0041ee10     eqmap.obj
 0002:00002e20       __load_config_used         0041ee20     MSVCRT:loadcfg.obj
 0002:00002ebc       ??_R4type_info@@6B@        0041eebc     MSVCRT:ti_inst.obj
 0002:00002ed0       ??_R3type_info@@8          0041eed0     MSVCRT:ti_inst.obj
 0002:00002ee0       ??_R2type_info@@8          0041eee0     MSVCRT:ti_inst.obj
 0002:00002ee8       ??_R1A@?0A@EA@type_info@@8 0041eee8     MSVCRT:ti_inst.obj
 0002:00002f04       ??_R17?0A@EA@?$_Iosb@H@std@@8 0041ef04     eqmap.obj
 0002:00002f20       ??_R1A@?0A@EA@?$error_info_injector@Vptree_bad_path@property_tree@boost@@@exception_detail@boost@@8 0041ef20     eqmap.obj
 0002:00002f3c       ??_R4?$error_info_injector@Vptree_bad_path@property_tree@boost@@@exception_detail@boost@@6Bexception@2@@ 0041ef3c     eqmap.obj
 0002:00002f50       ??_R4?$basic_stringbuf@DU?$char_traits@D@std@@V?$allocator@D@2@@std@@6B@ 0041ef50     eqmap.obj
 0002:00002f64       ??_R2?$basic_ifstream@DU?$char_traits@D@std@@@std@@8 0041ef64     eqmap.obj
 0002:00002f7c       ??_R2ptree_error@property_tree@boost@@8 0041ef7c     eqmap.obj
 0002:00002f8c       ??_R3?$basic_streambuf@DU?$char_traits@D@std@@@std@@8 0041ef8c     eqmap.obj
 0002:00002f9c       ??_R4?$basic_ifstream@DU?$char_traits@D@std@@@std@@6B@ 0041ef9c     eqmap.obj
 0002:00002fb0       ??_R3ios_base@std@@8       0041efb0     eqmap.obj
 0002:00002fc0       ??_R1A@?0A@EA@?$basic_streambuf@DU?$char_traits@D@std@@@std@@8 0041efc0     eqmap.obj
 0002:00002fdc       ??_R3exception@boost@@8    0041efdc     eqmap.obj
 0002:00002fec       ??_R3error_category@std@@8 0041efec     eqmap.obj
 0002:00002ffc       ??_R4?$error_info_injector@Vini_parser_error@ini_parser@property_tree@boost@@@exception_detail@boost@@6Bini_parser_error@ini_parser@property_tree@2@@ 0041effc     eqmap.obj
 0002:00003010       ??_R3ini_parser_error@ini_parser@property_tree@boost@@8 0041f010     eqmap.obj
 0002:00003020       ??_R1A@?0A@EA@ini_parser_error@ini_parser@property_tree@boost@@8 0041f020     eqmap.obj
 0002:0000303c       ??_R1A@A@3FA@?$basic_ios@DU?$char_traits@D@std@@@std@@8 0041f03c     eqmap.obj
 0002:00003058       ??_R4?$error_info_injector@Vbad_lexical_cast@boost@@@exception_detail@boost@@6Bbad_lexical_cast@2@@ 0041f058     eqmap.obj
 0002:0000306c       ??_R3?$basic_ostream@DU?$char_traits@D@std@@@std@@8 0041f06c     eqmap.obj
 0002:0000307c       ??_R1A@?0A@EA@?$basic_istream@DU?$char_traits@D@std@@@std@@8 0041f07c     eqmap.obj
 0002:00003098       ??_R1A@?0A@EA@placeholder@any@boost@@8 0041f098     eqmap.obj
 0002:000030b4       ??_R4?$clone_impl@U?$error_info_injector@Vptree_bad_path@property_tree@boost@@@exception_detail@boost@@@exception_detail@boost@@6Bptree_bad_path@property_tree@2@@ 0041f0b4     eqmap.obj
 0002:000030c8       ??_R2?$basic_ostream@DU?$char_traits@D@std@@@std@@8 0041f0c8     eqmap.obj
 0002:000030dc       ??_R3?$error_info_injector@Vbad_function_call@boost@@@exception_detail@boost@@8 0041f0dc     eqmap.obj
 0002:000030ec       ??_R2facet@locale@std@@8   0041f0ec     eqmap.obj
 0002:000030f8       ??_R1A@?0A@EA@exception@std@@8 0041f0f8     eqmap.obj
 0002:00003114       ??_R1A@?0A@EA@?$clone_impl@U?$error_info_injector@Vbad_function_call@boost@@@exception_detail@boost@@@exception_detail@boost@@8 0041f114     eqmap.obj
 0002:00003130       ??_R4?$error_info_injector@Vbad_lexical_cast@boost@@@exception_detail@boost@@6Bexception@2@@ 0041f130     eqmap.obj
 0002:00003144       ??_R3?$basic_filebuf@DU?$char_traits@D@std@@@std@@8 0041f144     eqmap.obj
 0002:00003154       ??_R4?$error_info_injector@Vbad_function_call@boost@@@exception_detail@boost@@6Bbad_function_call@2@@ 0041f154     eqmap.obj
 0002:00003168       ??_R3bad_lexical_cast@boost@@8 0041f168     eqmap.obj
 0002:00003178       ??_R3?$clone_impl@U?$error_info_injector@Vbad_lexical_cast@boost@@@exception_detail@boost@@@exception_detail@boost@@8 0041f178     eqmap.obj
 0002:00003188       ??_R4ini_parser_error@ini_parser@property_tree@boost@@6B@ 0041f188     eqmap.obj
 0002:0000319c       ??_R2?$numpunct@D@std@@8   0041f19c     eqmap.obj
 0002:000031ac       ??_R1A@?0A@EA@?$basic_stringstream@DU?$char_traits@D@std@@V?$allocator@D@2@@std@@8 0041f1ac     eqmap.obj
 0002:000031c8       ??_R2runtime_error@std@@8  0041f1c8     eqmap.obj
 0002:000031d4       ??_R1A@?0A@EA@error_category@std@@8 0041f1d4     eqmap.obj
 0002:000031f0       ??_R3?$clone_impl@U?$error_info_injector@Vbad_function_call@boost@@@exception_detail@boost@@@exception_detail@boost@@8 0041f1f0     eqmap.obj
 0002:00003200       ??_R4placeholder@any@boost@@6B@ 0041f200     eqmap.obj
 0002:00003214       ??_R4?$clone_impl@U?$error_info_injector@Vbad_function_call@boost@@@exception_detail@boost@@@exception_detail@boost@@6Bbad_function_call@2@@ 0041f214     eqmap.obj
 0002:00003228       ??_R3_System_error_category@std@@8 0041f228     eqmap.obj
 0002:00003238       ??_R1A@?0A@EA@?$basic_filebuf@DU?$char_traits@D@std@@@std@@8 0041f238     eqmap.obj
 0002:00003254       ??_R3ptree_error@property_tree@boost@@8 0041f254     eqmap.obj
 0002:00003264       ??_R1A@A@3EA@ios_base@std@@8 0041f264     eqmap.obj
 0002:00003280       ??_R2_System_error_category@std@@8 0041f280     eqmap.obj
 0002:00003290       ??_R4ptree_error@property_tree@boost@@6B@ 0041f290     eqmap.obj
 0002:000032a4       ??_R4?$numpunct@D@std@@6B@ 0041f2a4     eqmap.obj
 0002:000032b8       ??_R2_Facet_base@std@@8    0041f2b8     eqmap.obj
 0002:000032c0       ??_R4?$clone_impl@U?$error_info_injector@Vbad_lexical_cast@boost@@@exception_detail@boost@@@exception_detail@boost@@6Bexception@2@@ 0041f2c0     eqmap.obj
 0002:000032d4       ??_R4_Generic_error_category@std@@6B@ 0041f2d4     eqmap.obj
 0002:000032e8       ??_R1A@?0A@EA@?$error_info_injector@Vini_parser_error@ini_parser@property_tree@boost@@@exception_detail@boost@@8 0041f2e8     eqmap.obj
 0002:00003304       ??_R2?$error_info_injector@Vptree_bad_path@property_tree@boost@@@exception_detail@boost@@8 0041f304     eqmap.obj
 0002:00003320       ??_R1A@?0A@EA@bad_cast@std@@8 0041f320     eqmap.obj
 0002:0000333c       ??_R3?$basic_ifstream@DU?$char_traits@D@std@@@std@@8 0041f33c     eqmap.obj
 0002:0000334c       ??_R2bad_cast@std@@8       0041f34c     eqmap.obj
 0002:00003358       ??_R2?$error_info_injector@Vini_parser_error@ini_parser@property_tree@boost@@@exception_detail@boost@@8 0041f358     eqmap.obj
 0002:00003378       ??_R4?$basic_filebuf@DU?$char_traits@D@std@@@std@@6B@ 0041f378     eqmap.obj
 0002:0000338c       ??_R2?$clone_impl@U?$error_info_injector@Vptree_bad_path@property_tree@boost@@@exception_detail@boost@@@exception_detail@boost@@8 0041f38c     eqmap.obj
 0002:000033b0       ??_R1A@?0A@EA@?$_Iosb@H@std@@8 0041f3b0     eqmap.obj
 0002:000033cc       ??_R3?$basic_stringstream@DU?$char_traits@D@std@@V?$allocator@D@2@@std@@8 0041f3cc     eqmap.obj
 0002:000033dc       ??_R3?$error_info_injector@Vini_parser_error@ini_parser@property_tree@boost@@@exception_detail@boost@@8 0041f3dc     eqmap.obj
 0002:000033ec       ??_R1A@?0A@EA@_Generic_error_category@std@@8 0041f3ec     eqmap.obj
 0002:00003408       ??_R3?$_Iosb@H@std@@8      0041f408     eqmap.obj
 0002:00003418       ??_R2?$error_info_injector@Vbad_lexical_cast@boost@@@exception_detail@boost@@8 0041f418     eqmap.obj
 0002:00003430       ??_R1A@?0A@EA@ptree_bad_path@property_tree@boost@@8 0041f430     eqmap.obj
 0002:0000344c       ??_R1A@?0A@EA@_Iostream_error_category@std@@8 0041f44c     eqmap.obj
 0002:00003468       ??_R1A@?0A@EA@?$basic_ifstream@DU?$char_traits@D@std@@@std@@8 0041f468     eqmap.obj
 0002:00003484       ??_R4error_category@std@@6B@ 0041f484     eqmap.obj
 0002:00003498       ??_R2?$basic_streambuf@DU?$char_traits@D@std@@@std@@8 0041f498     eqmap.obj
 0002:000034a0       ??_R4_Iostream_error_category@std@@6B@ 0041f4a0     eqmap.obj
 0002:000034b4       ??_R2?$holder@V?$string_path@V?$basic_string@DU?$char_traits@D@std@@V?$allocator@D@2@@std@@U?$id_translator@V?$basic_string@DU?$char_traits@D@std@@V?$allocator@D@2@@std@@@property_tree@boost@@@property_tree@boost@@@any@boost@@8 0041f4b4     eqmap.obj
 0002:000034c0       ??_R3facet@locale@std@@8   0041f4c0     eqmap.obj
 0002:000034d0       ??_R1A@CA@3FA@clone_base@exception_detail@boost@@8 0041f4d0     eqmap.obj
 0002:000034ec       ??_R1A@FE@3FA@clone_base@exception_detail@boost@@8 0041f4ec     eqmap.obj
 0002:00003508       ??_R3runtime_error@std@@8  0041f508     eqmap.obj
 0002:00003518       ??_R1BA@?0A@EA@exception@boost@@8 0041f518     eqmap.obj
 0002:00003534       ??_R4file_parser_error@property_tree@boost@@6B@ 0041f534     eqmap.obj
 0002:00003548       ??_R3_Facet_base@std@@8    0041f548     eqmap.obj
 0002:00003558       ??_R3?$error_info_injector@Vptree_bad_path@property_tree@boost@@@exception_detail@boost@@8 0041f558     eqmap.obj
 0002:00003568       ??_R2bad_function_call@boost@@8 0041f568     eqmap.obj
 0002:00003578       ??_R2placeholder@any@boost@@8 0041f578     eqmap.obj
 0002:00003580       ??_R1M@?0A@EA@exception@boost@@8 0041f580     eqmap.obj
 0002:0000359c       ??_R4?$clone_impl@U?$error_info_injector@Vptree_bad_path@property_tree@boost@@@exception_detail@boost@@@exception_detail@boost@@6B@ 0041f59c     eqmap.obj
 0002:000035b0       ??_R4?$clone_impl@U?$error_info_injector@Vptree_bad_path@property_tree@boost@@@exception_detail@boost@@@exception_detail@boost@@6Bexception@2@@ 0041f5b0     eqmap.obj
 0002:000035c4       ??_R3file_parser_error@property_tree@boost@@8 0041f5c4     eqmap.obj
 0002:000035d4       ??_R1A@?0A@EA@?$basic_ostream@DU?$char_traits@D@std@@@std@@8 0041f5d4     eqmap.obj
 0002:000035f0       ??_R1BA@?0A@EA@?$basic_ostream@DU?$char_traits@D@std@@@std@@8 0041f5f0     eqmap.obj
 0002:0000360c       ??_R4?$basic_stringstream@DU?$char_traits@D@std@@V?$allocator@D@2@@std@@6B@ 0041f60c     eqmap.obj
 0002:00003620       ??_R4clone_base@exception_detail@boost@@6B@ 0041f620     eqmap.obj
 0002:00003634       ??_R1A@?0A@EA@?$basic_istringstream@DU?$char_traits@D@std@@V?$allocator@D@2@@std@@8 0041f634     eqmap.obj
 0002:00003650       ??_R2ini_parser_error@ini_parser@property_tree@boost@@8 0041f650     eqmap.obj
 0002:00003668       ??_R2?$clone_impl@U?$error_info_injector@Vbad_lexical_cast@boost@@@exception_detail@boost@@@exception_detail@boost@@8 0041f668     eqmap.obj
 0002:00003688       ??_R4?$clone_impl@U?$error_info_injector@Vini_parser_error@ini_parser@property_tree@boost@@@exception_detail@boost@@@exception_detail@boost@@6Bexception@2@@ 0041f688     eqmap.obj
 0002:0000369c       ??_R1A@CE@3FA@clone_base@exception_detail@boost@@8 0041f69c     eqmap.obj
 0002:000036b8       ??_R1EA@?0A@EA@exception@boost@@8 0041f6b8     eqmap.obj
 0002:000036d4       ??_R2file_parser_error@property_tree@boost@@8 0041f6d4     eqmap.obj
 0002:000036e8       ??_R2error_category@std@@8 0041f6e8     eqmap.obj
 0002:000036f0       ??_R3bad_cast@std@@8       0041f6f0     eqmap.obj
 0002:00003700       ??_R1A@?0A@EA@?$error_info_injector@Vbad_function_call@boost@@@exception_detail@boost@@8 0041f700     eqmap.obj
 0002:0000371c       ??_R4?$error_info_injector@Vini_parser_error@ini_parser@property_tree@boost@@@exception_detail@boost@@6Bexception@2@@ 0041f71c     eqmap.obj
 0002:00003730       ??_R2ios_base@std@@8       0041f730     eqmap.obj
 0002:0000373c       ??_R1A@?0A@EA@ptree_error@property_tree@boost@@8 0041f73c     eqmap.obj
 0002:00003758       ??_R1A@?0A@EA@?$basic_ios@DU?$char_traits@D@std@@@std@@8 0041f758     eqmap.obj
 0002:00003774       ??_R2?$basic_stringbuf@DU?$char_traits@D@std@@V?$allocator@D@2@@std@@8 0041f774     eqmap.obj
 0002:00003780       ??_R3?$basic_istream@DU?$char_traits@D@std@@@std@@8 0041f780     eqmap.obj
 0002:00003790       ??_R2?$clone_impl@U?$error_info_injector@Vbad_function_call@boost@@@exception_detail@boost@@@exception_detail@boost@@8 0041f790     eqmap.obj
 0002:000037b0       ??_R1A@?0A@EA@_System_error_category@std@@8 0041f7b0     eqmap.obj
 0002:000037cc       ??_R3_Iostream_error_category@std@@8 0041f7cc     eqmap.obj
 0002:000037dc       ??_R4bad_lexical_cast@boost@@6B@ 0041f7dc     eqmap.obj
 0002:000037f0       ??_R4bad_function_call@boost@@6B@ 0041f7f0     eqmap.obj
 0002:00003804       ??_R1A@?0A@EA@?$clone_impl@U?$error_info_injector@Vini_parser_error@ini_parser@property_tree@boost@@@exception_detail@boost@@@exception_detail@boost@@8 0041f804     eqmap.obj
 0002:00003820       ??_R2?$_Iosb@H@std@@8      0041f820     eqmap.obj
 0002:00003828       ??_R1A@?0A@EA@?$holder@V?$string_path@V?$basic_string@DU?$char_traits@D@std@@V?$allocator@D@2@@std@@U?$id_translator@V?$basic_string@DU?$char_traits@D@std@@V?$allocator@D@2@@std@@@property_tree@boost@@@property_tree@boost@@@any@boost@@8 0041f828     eqmap.obj
 0002:00003844       ??_R4?$clone_impl@U?$error_info_injector@Vini_parser_error@ini_parser@property_tree@boost@@@exception_detail@boost@@@exception_detail@boost@@6B@ 0041f844     eqmap.obj
 0002:00003858       ??_R3placeholder@any@boost@@8 0041f858     eqmap.obj
 0002:00003868       ??_R2clone_base@exception_detail@boost@@8 0041f868     eqmap.obj
 0002:00003870       ??_R2exception@std@@8      0041f870     eqmap.obj
 0002:00003878       ??_R1A@?0A@EA@runtime_error@std@@8 0041f878     eqmap.obj
 0002:00003894       ??_R2?$basic_filebuf@DU?$char_traits@D@std@@@std@@8 0041f894     eqmap.obj
 0002:000038a0       ??_R4exception@boost@@6B@  0041f8a0     eqmap.obj
 0002:000038b4       ??_R2?$basic_iostream@DU?$char_traits@D@std@@@std@@8 0041f8b4     eqmap.obj
 0002:000038dc       ??_R3exception@std@@8      0041f8dc     eqmap.obj
 0002:000038ec       ??_R4?$error_info_injector@Vbad_function_call@boost@@@exception_detail@boost@@6Bexception@2@@ 0041f8ec     eqmap.obj
 0002:00003900       ??_R4ptree_bad_path@property_tree@boost@@6B@ 0041f900     eqmap.obj
 0002:00003914       ??_R1A@?0A@EA@?$basic_iostream@DU?$char_traits@D@std@@@std@@8 0041f914     eqmap.obj
 0002:00003930       ??_R4?$basic_istringstream@DU?$char_traits@D@std@@V?$allocator@D@2@@std@@6B@ 0041f930     eqmap.obj
 0002:00003944       ??_R3?$basic_istringstream@DU?$char_traits@D@std@@V?$allocator@D@2@@std@@8 0041f944     eqmap.obj
 0002:00003954       ??_R1A@?0A@EA@?$clone_impl@U?$error_info_injector@Vbad_lexical_cast@boost@@@exception_detail@boost@@@exception_detail@boost@@8 0041f954     eqmap.obj
 0002:00003970       ??_R3?$basic_ios@DU?$char_traits@D@std@@@std@@8 0041f970     eqmap.obj
 0002:00003980       ??_R3bad_function_call@boost@@8 0041f980     eqmap.obj
 0002:00003990       ??_R4_System_error_category@std@@6B@ 0041f990     eqmap.obj
 0002:000039a4       ??_R1A@?0A@EA@facet@locale@std@@8 0041f9a4     eqmap.obj
 0002:000039c0       ??_R3clone_base@exception_detail@boost@@8 0041f9c0     eqmap.obj
 0002:000039d0       ??_R1A@?0A@EA@_Facet_base@std@@8 0041f9d0     eqmap.obj
 0002:000039ec       ??_R2ptree_bad_path@property_tree@boost@@8 0041f9ec     eqmap.obj
 0002:00003a00       ??_R17A@3EA@?$_Iosb@H@std@@8 0041fa00     eqmap.obj
 0002:00003a1c       ??_R4?$clone_impl@U?$error_info_injector@Vbad_lexical_cast@boost@@@exception_detail@boost@@@exception_detail@boost@@6Bbad_lexical_cast@2@@ 0041fa1c     eqmap.obj
 0002:00003a30       ??_R2?$basic_stringstream@DU?$char_traits@D@std@@V?$allocator@D@2@@std@@8 0041fa30     eqmap.obj
 0002:00003a5c       ??_R2exception@boost@@8    0041fa5c     eqmap.obj
 0002:00003a64       ??_R4?$clone_impl@U?$error_info_injector@Vbad_lexical_cast@boost@@@exception_detail@boost@@@exception_detail@boost@@6B@ 0041fa64     eqmap.obj
 0002:00003a78       ??_R3?$clone_impl@U?$error_info_injector@Vini_parser_error@ini_parser@property_tree@boost@@@exception_detail@boost@@@exception_detail@boost@@8 0041fa78     eqmap.obj
 0002:00003a88       ??_R4?$clone_impl@U?$error_info_injector@Vbad_function_call@boost@@@exception_detail@boost@@@exception_detail@boost@@6Bexception@2@@ 0041fa88     eqmap.obj
 0002:00003a9c       ??_R1A@?0A@EA@?$error_info_injector@Vbad_lexical_cast@boost@@@exception_detail@boost@@8 0041fa9c     eqmap.obj
 0002:00003ab8       ??_R4?$clone_impl@U?$error_info_injector@Vini_parser_error@ini_parser@property_tree@boost@@@exception_detail@boost@@@exception_detail@boost@@6Bini_parser_error@ini_parser@property_tree@2@@ 0041fab8     eqmap.obj
 0002:00003acc       ??_R1A@?0A@EA@clone_base@exception_detail@boost@@8 0041facc     eqmap.obj
 0002:00003ae8       ??_R4?$error_info_injector@Vptree_bad_path@property_tree@boost@@@exception_detail@boost@@6Bptree_bad_path@property_tree@2@@ 0041fae8     eqmap.obj
 0002:00003afc       ??_R2_Generic_error_category@std@@8 0041fafc     eqmap.obj
 0002:00003b08       ??_R1BE@?0A@EA@exception@boost@@8 0041fb08     eqmap.obj
 0002:00003b24       ??_R1A@CI@3FA@clone_base@exception_detail@boost@@8 0041fb24     eqmap.obj
 0002:00003b40       ??_R2bad_lexical_cast@boost@@8 0041fb40     eqmap.obj
 0002:00003b50       ??_R3?$basic_iostream@DU?$char_traits@D@std@@@std@@8 0041fb50     eqmap.obj
 0002:00003b60       ??_R3?$basic_stringbuf@DU?$char_traits@D@std@@V?$allocator@D@2@@std@@8 0041fb60     eqmap.obj
 0002:00003b70       ??_R1A@?0A@EA@?$numpunct@D@std@@8 0041fb70     eqmap.obj
 0002:00003b8c       ??_R1A@?0A@EA@ios_base@std@@8 0041fb8c     eqmap.obj
 0002:00003ba8       ??_R1A@?0A@EA@?$clone_impl@U?$error_info_injector@Vptree_bad_path@property_tree@boost@@@exception_detail@boost@@@exception_detail@boost@@8 0041fba8     eqmap.obj
 0002:00003bc4       ??_R1A@?0A@EA@exception@boost@@8 0041fbc4     eqmap.obj
 0002:00003be0       ??_R2?$basic_ios@DU?$char_traits@D@std@@@std@@8 0041fbe0     eqmap.obj
 0002:00003bf0       ??_R3?$numpunct@D@std@@8   0041fbf0     eqmap.obj
 0002:00003c00       ??_R3_Generic_error_category@std@@8 0041fc00     eqmap.obj
 0002:00003c10       ??_R1A@?0A@EA@bad_function_call@boost@@8 0041fc10     eqmap.obj
 0002:00003c2c       ??_R2?$clone_impl@U?$error_info_injector@Vini_parser_error@ini_parser@property_tree@boost@@@exception_detail@boost@@@exception_detail@boost@@8 0041fc2c     eqmap.obj
 0002:00003c54       ??_R2?$basic_istream@DU?$char_traits@D@std@@@std@@8 0041fc54     eqmap.obj
 0002:00003c68       ??_R2?$basic_istringstream@DU?$char_traits@D@std@@V?$allocator@D@2@@std@@8 0041fc68     eqmap.obj
 0002:00003c80       ??_R1A@?0A@EA@bad_lexical_cast@boost@@8 0041fc80     eqmap.obj
 0002:00003c9c       ??_R3ptree_bad_path@property_tree@boost@@8 0041fc9c     eqmap.obj
 0002:00003cac       ??_R4?$holder@V?$string_path@V?$basic_string@DU?$char_traits@D@std@@V?$allocator@D@2@@std@@U?$id_translator@V?$basic_string@DU?$char_traits@D@std@@V?$allocator@D@2@@std@@@property_tree@boost@@@property_tree@boost@@@any@boost@@6B@ 0041fcac     eqmap.obj
 0002:00003cc0       ??_R1A@?0A@EA@file_parser_error@property_tree@boost@@8 0041fcc0     eqmap.obj
 0002:00003cdc       ??_R2?$error_info_injector@Vbad_function_call@boost@@@exception_detail@boost@@8 0041fcdc     eqmap.obj
 0002:00003cf4       ??_R4runtime_error@std@@6B@ 0041fcf4     eqmap.obj
 0002:00003d08       ??_R3?$holder@V?$string_path@V?$basic_string@DU?$char_traits@D@std@@V?$allocator@D@2@@std@@U?$id_translator@V?$basic_string@DU?$char_traits@D@std@@V?$allocator@D@2@@std@@@property_tree@boost@@@property_tree@boost@@@any@boost@@8 0041fd08     eqmap.obj
 0002:00003d18       ??_R3?$clone_impl@U?$error_info_injector@Vptree_bad_path@property_tree@boost@@@exception_detail@boost@@@exception_detail@boost@@8 0041fd18     eqmap.obj
 0002:00003d28       ??_R1A@?0A@EA@?$basic_stringbuf@DU?$char_traits@D@std@@V?$allocator@D@2@@std@@8 0041fd28     eqmap.obj
 0002:00003d44       ??_R3?$error_info_injector@Vbad_lexical_cast@boost@@@exception_detail@boost@@8 0041fd44     eqmap.obj
 0002:00003d54       ??_R2_Iostream_error_category@std@@8 0041fd54     eqmap.obj
 0002:00003d64       ??_R4?$clone_impl@U?$error_info_injector@Vbad_function_call@boost@@@exception_detail@boost@@@exception_detail@boost@@6B@ 0041fd64     eqmap.obj
 0002:00003d80       ___safe_se_handler_table   0041fd80     <linker-defined>
 0002:00003f6c       ___rtc_iaa                 0041ff6c     MSVCRT:initsect.obj
 0002:00003f70       ___rtc_izz                 0041ff70     MSVCRT:initsect.obj
 0002:00003f74       ___rtc_taa                 0041ff74     MSVCRT:initsect.obj
 0002:00003f78       ___rtc_tzz                 0041ff78     MSVCRT:initsect.obj
 0002:0000401c       __TI2?AVbad_cast@std@@     0042001c     eqmap.obj
 0002:0000402c       __TI7?AV?$clone_impl@U?$error_info_injector@Vbad_function_call@boost@@@exception_detail@boost@@@exception_detail@boost@@ 0042002c     eqmap.obj
 0002:0000403c       __CT??_R0?AVexception@boost@@@8??0exception@boost@@QAE@ABV01@@Z2020 0042003c     eqmap.obj
 0002:00004058       __CT??_R0?AU?$error_info_injector@Vptree_bad_path@property_tree@boost@@@exception_detail@boost@@@8??0?$error_info_injector@Vptree_bad_path@property_tree@boost@@@exception_detail@boost@@QAE@ABU012@@Z36 00420058     eqmap.obj
 0002:00004074       __CT??_R0?AV?$clone_impl@U?$error_info_injector@Vbad_lexical_cast@boost@@@exception_detail@boost@@@exception_detail@boost@@@8??0?$clone_impl@U?$error_info_injector@Vbad_lexical_cast@boost@@@exception_detail@boost@@@exception_detail@boost@@QAE@ABV012@@Z52 00420074     eqmap.obj
 0002:00004090       __CT??_R0?AU?$error_info_injector@Vbad_function_call@boost@@@exception_detail@boost@@@8??0?$error_info_injector@Vbad_function_call@boost@@@exception_detail@boost@@QAE@ABU012@@Z32 00420090     eqmap.obj
 0002:000040ac       __CT??_R0?AVptree_error@property_tree@boost@@@8??0ptree_error@property_tree@boost@@QAE@ABV012@@Z12 004200ac     eqmap.obj
 0002:000040c8       __CT??_R0?AVexception@std@@@8??0exception@std@@QAE@ABV01@@Z12 004200c8     eqmap.obj
 0002:000040e4       __CT??_R0?AVclone_base@exception_detail@boost@@@8??0clone_base@exception_detail@boost@@QAE@ABV012@@Z40404 004200e4     eqmap.obj
 0002:00004100       __CT??_R0?AU?$error_info_injector@Vini_parser_error@ini_parser@property_tree@boost@@@exception_detail@boost@@@8??0?$error_info_injector@Vini_parser_error@ini_parser@property_tree@boost@@@exception_detail@boost@@QAE@ABU012@@Z84 00420100     eqmap.obj
 0002:0000411c       __CT??_R0?AU?$error_info_injector@Vbad_lexical_cast@boost@@@exception_detail@boost@@@8??0?$error_info_injector@Vbad_lexical_cast@boost@@@exception_detail@boost@@QAE@ABU012@@Z40 0042011c     eqmap.obj
 0002:00004138       __CT??_R0?AVptree_bad_path@property_tree@boost@@@8??0ptree_bad_path@property_tree@boost@@QAE@ABV012@@Z16 00420138     eqmap.obj
 0002:00004154       __CT??_R0?AVclone_base@exception_detail@boost@@@8??0clone_base@exception_detail@boost@@QAE@ABV012@@Z40364 00420154     eqmap.obj
 0002:00004170       __CT??_R0?AVbad_lexical_cast@boost@@@8??0bad_lexical_cast@boost@@QAE@ABV01@@Z20 00420170     eqmap.obj
 0002:0000418c       __CT??_R0?AVfile_parser_error@property_tree@boost@@@8??0file_parser_error@property_tree@boost@@QAE@ABV012@@Z64 0042018c     eqmap.obj
 0002:000041a8       __TI7?AV?$clone_impl@U?$error_info_injector@Vbad_lexical_cast@boost@@@exception_detail@boost@@@exception_detail@boost@@ 004201a8     eqmap.obj
 0002:000041b8       __CT??_R0?AVexception@boost@@@8??0exception@boost@@QAE@ABV01@@Z2012 004201b8     eqmap.obj
 0002:000041d4       __TI8?AV?$clone_impl@U?$error_info_injector@Vptree_bad_path@property_tree@boost@@@exception_detail@boost@@@exception_detail@boost@@ 004201d4     eqmap.obj
 0002:000041e4       __CT??_R0?AVbad_cast@std@@@8??0bad_cast@std@@QAE@ABV01@@Z12 004201e4     eqmap.obj
 0002:00004200       __CT??_R0?AV?$clone_impl@U?$error_info_injector@Vini_parser_error@ini_parser@property_tree@boost@@@exception_detail@boost@@@exception_detail@boost@@@8??0?$clone_impl@U?$error_info_injector@Vini_parser_error@ini_parser@property_tree@boost@@@exception_detail@boost@@@exception_detail@boost@@QAE@ABV012@@Z96 00420200     eqmap.obj
 0002:0000421c       __CT??_R0?AV?$clone_impl@U?$error_info_injector@Vptree_bad_path@property_tree@boost@@@exception_detail@boost@@@exception_detail@boost@@@8??0?$clone_impl@U?$error_info_injector@Vptree_bad_path@property_tree@boost@@@exception_detail@boost@@@exception_detail@boost@@QAE@ABV012@@Z48 0042021c     eqmap.obj
 0002:00004238       __CT??_R0?AVbad_function_call@boost@@@8??0bad_function_call@boost@@QAE@ABV01@@Z12 00420238     eqmap.obj
 0002:00004254       __TI9?AV?$clone_impl@U?$error_info_injector@Vini_parser_error@ini_parser@property_tree@boost@@@exception_detail@boost@@@exception_detail@boost@@ 00420254     eqmap.obj
 0002:00004264       __CTA7?AV?$clone_impl@U?$error_info_injector@Vbad_lexical_cast@boost@@@exception_detail@boost@@@exception_detail@boost@@ 00420264     eqmap.obj
 0002:00004284       __CTA9?AV?$clone_impl@U?$error_info_injector@Vini_parser_error@ini_parser@property_tree@boost@@@exception_detail@boost@@@exception_detail@boost@@ 00420284     eqmap.obj
 0002:000042ac       __CT??_R0?AVruntime_error@std@@@8??0runtime_error@std@@QAE@ABV01@@Z12 004202ac     eqmap.obj
 0002:000042c8       __CT??_R0?AVexception@boost@@@8??0exception@boost@@QAE@ABV01@@Z2016 004202c8     eqmap.obj
 0002:000042e4       __CTA8?AV?$clone_impl@U?$error_info_injector@Vptree_bad_path@property_tree@boost@@@exception_detail@boost@@@exception_detail@boost@@ 004202e4     eqmap.obj
 0002:00004308       __CT??_R0?AVclone_base@exception_detail@boost@@@8??0clone_base@exception_detail@boost@@QAE@ABV012@@Z40324 00420308     eqmap.obj
 0002:00004324       __CTA7?AV?$clone_impl@U?$error_info_injector@Vbad_function_call@boost@@@exception_detail@boost@@@exception_detail@boost@@ 00420324     eqmap.obj
 0002:00004344       __CT??_R0?AV?$clone_impl@U?$error_info_injector@Vbad_function_call@boost@@@exception_detail@boost@@@exception_detail@boost@@@8??0?$clone_impl@U?$error_info_injector@Vbad_function_call@boost@@@exception_detail@boost@@@exception_detail@boost@@QAE@ABV012@@Z44 00420344     eqmap.obj
 0002:00004360       __CT??_R0?AVclone_base@exception_detail@boost@@@8??0clone_base@exception_detail@boost@@QAE@ABV012@@Z40844 00420360     eqmap.obj
 0002:0000437c       __CT??_R0?AVexception@boost@@@8??0exception@boost@@QAE@ABV01@@Z2064 0042037c     eqmap.obj
 0002:00004398       __CT??_R0?AVini_parser_error@ini_parser@property_tree@boost@@@8??0ini_parser_error@ini_parser@property_tree@boost@@QAE@ABV0123@@Z64 00420398     eqmap.obj
 0002:000043b4       __CTA2?AVbad_cast@std@@    004203b4     eqmap.obj
 0002:00006600       __IMPORT_DESCRIPTOR_OPENGL32 00422600     opengl32:OPENGL32.dll
 0002:00006614       __IMPORT_DESCRIPTOR_freeglut 00422614     freeglut:freeglut.dll
 0002:00006628       __IMPORT_DESCRIPTOR_AntTweakBar 00422628     AntTweakBar:AntTweakBar.dll
 0002:0000663c       __IMPORT_DESCRIPTOR_KERNEL32 0042263c     kernel32:KERNEL32.dll
 0002:00006650       __IMPORT_DESCRIPTOR_USER32 00422650     user32:USER32.dll
 0002:00006664       __IMPORT_DESCRIPTOR_SHELL32 00422664     shell32:SHELL32.dll
 0002:00006678       __IMPORT_DESCRIPTOR_MSVCP110 00422678     msvcprt:MSVCP110.dll
 0002:0000668c       __IMPORT_DESCRIPTOR_MSVCR110 0042268c     MSVCRT:MSVCR110.dll
 0002:000066a0       __NULL_IMPORT_DESCRIPTOR   004226a0     opengl32:OPENGL32.dll
 0003:00000000       ??_R0?AVtype_info@@@8      00425000     MSVCRT:ti_inst.obj
 0003:00000018       ___defaultmatherr          00425018     MSVCRT:merr.obj
 0003:00000020       ___globallocalestatus      00425020     MSVCRT:xthdloc.obj
 0003:00000024       ___native_dllmain_reason   00425024     MSVCRT:natstart.obj
 0003:00000028       ___security_cookie         00425028     MSVCRT:gs_cookie.obj
 0003:0000002c       ___security_cookie_complement 0042502c     MSVCRT:gs_cookie.obj
 0003:00000030       ?map_draw_grid_coordinates@@3_NA 00425030     eqmap.obj
 0003:00000031       ?map_draw_origin@@3_NA     00425031     eqmap.obj
 0003:00000032       ?map_draw_points_layer2@@3_NA 00425032     eqmap.obj
 0003:00000033       ?map_draw_info_text@@3_NA  00425033     eqmap.obj
 0003:00000034       ?window_height@@3HA        00425034     eqmap.obj
 0003:00000038       ?map_grid_size@@3MA        00425038     eqmap.obj
 0003:0000003c       ?font_name@@3PAXA          0042503c     eqmap.obj
 0003:00000040       ?window_width@@3HA         00425040     eqmap.obj
 0003:00000044       ?map_draw_layer3@@3_NA     00425044     eqmap.obj
 0003:00000045       ?map_draw_layer2@@3_NA     00425045     eqmap.obj
 0003:00000046       ?map_draw_lines@@3_NA      00425046     eqmap.obj
 0003:00000047       ?map_draw_layer0@@3_NA     00425047     eqmap.obj
 0003:00000048       ?map_grid_color@@3PAMA     00425048     eqmap.obj
 0003:00000054       ?map_offset_multiplier@@3MA 00425054     eqmap.obj
 0003:00000058       ?map_zoom_multiplier@@3MA  00425058     eqmap.obj
 0003:0000005c       ?font_size@@3HA            0042505c     eqmap.obj
 0003:00000060       ?map_draw_points_layer0@@3_NA 00425060     eqmap.obj
 0003:00000061       ?map_draw_points@@3_NA     00425061     eqmap.obj
 0003:00000062       ?map_draw_layer1@@3_NA     00425062     eqmap.obj
 0003:00000063       ?map_draw_points_layer3@@3_NA 00425063     eqmap.obj
 0003:00000064       ?font_offset_y@@3MA        00425064     eqmap.obj
 0003:00000068       ?map_draw_points_layer1@@3_NA 00425068     eqmap.obj
 0003:0000006c       ?zone_info_group@@3V?$basic_string@DU?$char_traits@D@std@@V?$allocator@D@2@@std@@A 0042506c     eqmap.obj
 0003:00000084       ?zones_file@@3V?$basic_string@DU?$char_traits@D@std@@V?$allocator@D@2@@std@@A 00425084     eqmap.obj
 0003:0000009c       ?map_zoom@@3MA             0042509c     eqmap.obj
 0003:000000a0       ?map_zone_name@@3V?$basic_string@DU?$char_traits@D@std@@V?$allocator@D@2@@std@@A 004250a0     eqmap.obj
 0003:000000b8       ?map_folder@@3V?$basic_string@DU?$char_traits@D@std@@V?$allocator@D@2@@std@@A 004250b8     eqmap.obj
 0003:000000d0       ?zones_search@@3V?$basic_string@DU?$char_traits@D@std@@V?$allocator@D@2@@std@@A 004250d0     eqmap.obj
 0003:000000e8       ?ini_file@@3V?$basic_string@DU?$char_traits@D@std@@V?$allocator@D@2@@std@@A 004250e8     eqmap.obj
 0003:00000100       ??_R0?AVfile_parser_error@property_tree@boost@@@8 00425100     eqmap.obj
 0003:00000134       ??_R0?AV?$basic_iostream@DU?$char_traits@D@std@@@std@@@8 00425134     eqmap.obj
 0003:00000170       ??_R0?AVbad_cast@std@@@8   00425170     eqmap.obj
 0003:00000190       ??_R0?AV?$clone_impl@U?$error_info_injector@Vbad_function_call@boost@@@exception_detail@boost@@@exception_detail@boost@@@8 00425190     eqmap.obj
 0003:00000210       ??_R0?AU?$error_info_injector@Vini_parser_error@ini_parser@property_tree@boost@@@exception_detail@boost@@@8 00425210     eqmap.obj
 0003:00000280       ??_R0?AVplaceholder@any@boost@@@8 00425280     eqmap.obj
 0003:000002a8       ??_R0?AV?$clone_impl@U?$error_info_injector@Vini_parser_error@ini_parser@property_tree@boost@@@exception_detail@boost@@@exception_detail@boost@@@8 004252a8     eqmap.obj
 0003:00000340       ??_R0?AV?$basic_stringstream@DU?$char_traits@D@std@@V?$allocator@D@2@@std@@@8 00425340     eqmap.obj
 0003:00000390       ??_R0?AV?$clone_impl@U?$error_info_injector@Vbad_lexical_cast@boost@@@exception_detail@boost@@@exception_detail@boost@@@8 00425390     eqmap.obj
 0003:0000040c       ??_R0?AVini_parser_error@ini_parser@property_tree@boost@@@8 0042540c     eqmap.obj
 0003:0000044c       ??_R0?AVexception@std@@@8  0042544c     eqmap.obj
 0003:00000468       ??_R0?AV?$basic_istream@DU?$char_traits@D@std@@@std@@@8 00425468     eqmap.obj
 0003:000004a4       ??_R0?AVios_base@std@@@8   004254a4     eqmap.obj
 0003:000004c0       ??_R0?AV_Iostream_error_category@std@@@8 004254c0     eqmap.obj
 0003:000004f0       ??_R0?AV?$clone_impl@U?$error_info_injector@Vptree_bad_path@property_tree@boost@@@exception_detail@boost@@@exception_detail@boost@@@8 004254f0     eqmap.obj
 0003:00000578       ??_R0M@8                   00425578     eqmap.obj
 0003:00000588       ??_R0?AV?$holder@V?$string_path@V?$basic_string@DU?$char_traits@D@std@@V?$allocator@D@2@@std@@U?$id_translator@V?$basic_string@DU?$char_traits@D@std@@V?$allocator@D@2@@std@@@property_tree@boost@@@property_tree@boost@@@any@boost@@@8 00425588     eqmap.obj
 0003:00000678       ??_R0?AV?$string_path@V?$basic_string@DU?$char_traits@D@std@@V?$allocator@D@2@@std@@U?$id_translator@V?$basic_string@DU?$char_traits@D@std@@V?$allocator@D@2@@std@@@property_tree@boost@@@property_tree@boost@@@8 00425678     eqmap.obj
 0003:0000074c       ??_R0?AVruntime_error@std@@@8 0042574c     eqmap.obj
 0003:00000770       ??_R0?AU?$error_info_injector@Vptree_bad_path@property_tree@boost@@@exception_detail@boost@@@8 00425770     eqmap.obj
 0003:000007d4       ??_R0?AVptree_error@property_tree@boost@@@8 004257d4     eqmap.obj
 0003:00000808       ??_R0?AU?$error_info_injector@Vbad_lexical_cast@boost@@@exception_detail@boost@@@8 00425808     eqmap.obj
 0003:00000860       ??_R0?AVexception@boost@@@8 00425860     eqmap.obj
 0003:00000880       ??_R0?AVbad_lexical_cast@boost@@@8 00425880     eqmap.obj
 0003:000008a8       ??_R0?AV_System_error_category@std@@@8 004258a8     eqmap.obj
 0003:000008d4       ??_R0?AV?$basic_filebuf@DU?$char_traits@D@std@@@std@@@8 004258d4     eqmap.obj
 0003:00000910       ??_R0?AV?$basic_ios@DU?$char_traits@D@std@@@std@@@8 00425910     eqmap.obj
 0003:00000948       ??_R0?AVclone_base@exception_detail@boost@@@8 00425948     eqmap.obj
 0003:00000978       ??_R0?AVbad_function_call@boost@@@8 00425978     eqmap.obj
 0003:000009a0       ??_R0?AV?$numpunct@D@std@@@8 004259a0     eqmap.obj
 0003:000009c0       ??_R0?AV?$basic_ifstream@DU?$char_traits@D@std@@@std@@@8 004259c0     eqmap.obj
 0003:000009fc       ??_R0?AVptree_bad_path@property_tree@boost@@@8 004259fc     eqmap.obj
 0003:00000a30       ??_R0?AV?$basic_stringbuf@DU?$char_traits@D@std@@V?$allocator@D@2@@std@@@8 00425a30     eqmap.obj
 0003:00000a80       ??_R0?AV?$_Iosb@H@std@@@8  00425a80     eqmap.obj
 0003:00000aa0       ??_R0?AV?$basic_istringstream@DU?$char_traits@D@std@@V?$allocator@D@2@@std@@@8 00425aa0     eqmap.obj
 0003:00000af4       ??_R0?AVerror_category@std@@@8 00425af4     eqmap.obj
 0003:00000b18       ??_R0?AU?$error_info_injector@Vbad_function_call@boost@@@exception_detail@boost@@@8 00425b18     eqmap.obj
 0003:00000b70       ??_R0H@8                   00425b70     eqmap.obj
 0003:00000b7c       ??_R0?AV_Generic_error_category@std@@@8 00425b7c     eqmap.obj
 0003:00000ba8       ??_R0?AV_Facet_base@std@@@8 00425ba8     eqmap.obj
 0003:00000bc8       ??_R0?AU?$token_finderF@U?$is_any_ofF@D@detail@algorithm@boost@@@detail@algorithm@boost@@@8 00425bc8     eqmap.obj
 0003:00000c28       ??_R0?AV?$basic_string@DU?$char_traits@D@std@@V?$allocator@D@2@@std@@@8 00425c28     eqmap.obj
 0003:00000c74       ??_R0?AV?$basic_ostream@DU?$char_traits@D@std@@@std@@@8 00425c74     eqmap.obj
 0003:00000cb0       ??_R0?AVfacet@locale@std@@@8 00425cb0     eqmap.obj
 0003:00000cd0       ??_R0?AV?$basic_streambuf@DU?$char_traits@D@std@@@std@@@8 00425cd0     eqmap.obj
 0003:00000d0c       ?_System_object@?$_Error_objects@H@std@@2V_System_error_category@2@A 00425d0c     eqmap.obj
 0003:00000d10       ?_Generic_object@?$_Error_objects@H@std@@2V_Generic_error_category@2@A 00425d10     eqmap.obj
 0003:00000d14       ?_Iostream_object@?$_Error_objects@H@std@@2V_Iostream_error_category@2@A 00425d14     eqmap.obj
 0003:00000d48       __commode                  00425d48     MSVCRT:xncommod.obj
 0003:00000d4c       __dowildcard               00425d4c     MSVCRT:wildcard.obj
 0003:00000d50       __newmode                  00425d50     MSVCRT:_newmode.obj
 0003:00000d54       __fmode                    00425d54     MSVCRT:xtxtmode.obj
 0003:00001078       ?map_points_visible@@3HA   00426078     eqmap.obj
 0003:0000107c       ?map_max_y@@3MA            0042607c     eqmap.obj
 0003:00001080       ?map_draw_grid@@3_NA       00426080     eqmap.obj
 0003:00001081       ?map_draw_points_coordinates@@3_NA 00426081     eqmap.obj
 0003:00001082       ?mouse_dragging@@3_NA      00426082     eqmap.obj
 0003:00001083       ?map_zoom_to_fit@@3_NA     00426083     eqmap.obj
 0003:00001084       ?map_lines_visible_ex@@3HA 00426084     eqmap.obj
 0003:00001088       ?map_min_y@@3MA            00426088     eqmap.obj
 0003:0000108c       ?window_hwnd@@3PAUHWND__@@A 0042608c     eqmap.obj
 0003:00001090       ?map_depth@@3MA            00426090     eqmap.obj
 0003:00001094       ?map_max_z@@3MA            00426094     eqmap.obj
 0003:00001098       ?map_draw_y@@3MA           00426098     eqmap.obj
 0003:0000109c       ?map_offset_y@@3MA         0042609c     eqmap.obj
 0003:000010a0       ?map_points_total@@3HA     004260a0     eqmap.obj
 0003:000010a4       ?map_lines_total@@3HA      004260a4     eqmap.obj
 0003:000010a8       ?bar_options@@3PAUCTwBar@@A 004260a8     eqmap.obj
 0003:000010ac       ?map_max_x@@3MA            004260ac     eqmap.obj
 0003:000010b0       ?mouse_dragging_start_y@@3HA 004260b0     eqmap.obj
 0003:000010b4       ?map_mid_x@@3MA            004260b4     eqmap.obj
 0003:000010b8       ?map_points_visible_ex@@3HA 004260b8     eqmap.obj
 0003:000010bc       ?map_height@@3MA           004260bc     eqmap.obj
 0003:000010c0       ?map_draw_x@@3MA           004260c0     eqmap.obj
 0003:000010c4       ?map_draw_points_opaque@@3_NA 004260c4     eqmap.obj
 0003:000010c5       ?window_start_fullscreen@@3_NA 004260c5     eqmap.obj
 0003:000010c6       ?map_points_ignore_size@@3_NA 004260c6     eqmap.obj
 0003:000010c7       ?window_start_maximized@@3_NA 004260c7     eqmap.obj
 0003:000010c8       ?mouse_dragging_start_x@@3HA 004260c8     eqmap.obj
 0003:000010cc       ?map_width@@3MA            004260cc     eqmap.obj
 0003:000010d0       ?window_id@@3HA            004260d0     eqmap.obj
 0003:000010d4       ?window_proc_freeglut@@3P6GJPAUHWND__@@IIJ@ZA 004260d4     eqmap.obj
 0003:000010d8       ?map_min_x@@3MA            004260d8     eqmap.obj
 0003:000010dc       ?map_offset_x@@3MA         004260dc     eqmap.obj
 0003:000010e0       ?frame_count@@3HA          004260e0     eqmap.obj
 0003:000010e4       ?map_lines_visible@@3HA    004260e4     eqmap.obj
 0003:000010e8       ?map_min_z@@3MA            004260e8     eqmap.obj
 0003:000010ec       ?bar_zones@@3PAUCTwBar@@A  004260ec     eqmap.obj
 0003:000010f0       ?last_tick@@3HA            004260f0     eqmap.obj
 0003:000010f4       ?map_mid_y@@3MA            004260f4     eqmap.obj
 0003:000010f8       ?frames_per_second@@3MA    004260f8     eqmap.obj
 0003:00001104       ?zone_infos@@3V?$vector@Uzone_info_t@@V?$allocator@Uzone_info_t@@@std@@@std@@A 00426104     eqmap.obj
 0003:00001110       ?map_points@@3V?$vector@Umap_point_t@@V?$allocator@Umap_point_t@@@std@@@std@@A 00426110     eqmap.obj
 0003:00001124       ?map_points_it@@3V?$_Vector_iterator@V?$_Vector_val@U?$_Simple_types@Umap_point_t@@@std@@@std@@@std@@A 00426124     eqmap.obj
 0003:00001128       ?map_origin_y@@3MA         00426128     eqmap.obj
 0003:0000112c       ?map_origin_x@@3MA         0042612c     eqmap.obj
 0003:00001130       ?map_lines_it@@3V?$_Vector_iterator@V?$_Vector_val@U?$_Simple_types@Umap_line_t@@@std@@@std@@@std@@A 00426130     eqmap.obj
 0003:00001134       ?map_lines@@3V?$vector@Umap_line_t@@V?$allocator@Umap_line_t@@@std@@@std@@A 00426134     eqmap.obj
 0003:00001140       ?zone_infos_it@@3V?$_Vector_iterator@V?$_Vector_val@U?$_Simple_types@Uzone_info_t@@@std@@@std@@@std@@A 00426140     eqmap.obj
 0003:00001144       ?_Psave@?$_Facetptr@V?$ctype@D@std@@@std@@2PBVfacet@locale@2@B 00426144     eqmap.obj
 0003:00001148       ?_Psave@?$_Facetptr@V?$codecvt@DDH@std@@@std@@2PBVfacet@locale@2@B 00426148     eqmap.obj
 0003:0000114c       ?_Psave@?$_Facetptr@V?$numpunct@D@std@@@std@@2PBVfacet@locale@2@B 0042614c     eqmap.obj
 0003:00001150       ?id@?$num_put@_WV?$back_insert_iterator@V?$basic_string@_WU?$char_traits@_W@std@@V?$allocator@_W@2@@std@@@std@@@std@@2V0locale@2@A 00426150     eqmap.obj
 0003:00001154       ?id@?$num_put@DV?$back_insert_iterator@V?$basic_string@DU?$char_traits@D@std@@V?$allocator@D@2@@std@@@std@@@std@@2V0locale@2@A 00426154     eqmap.obj
 0003:00001158       ?_Stinit@?1??_Init@?$basic_filebuf@DU?$char_traits@D@std@@@std@@IAEXPAU_iobuf@@W4_Initfl@23@@Z@4HA 00426158     eqmap.obj
 0003:0000115c       ___native_startup_lock     0042615c     <common>
 0003:00001160       ___native_startup_state    00426160     <common>
 0003:00001164       ___onexitend               00426164     <common>
 0003:00001168       ___onexitbegin             00426168     <common>
 0003:0000116c       ___dyn_tls_init_callback   0042616c     <common>

 entry point at        0001:0001791d

 Static symbols

 0000:fffd5000       .debug$S                   00400000     MSVCRT:MSVCR110.dll
 0000:fffd5000       .debug$S                   00400000     MSVCRT:MSVCR110.dll
 0000:fffd5000       .debug$S                   00400000     opengl32:OPENGL32.dll
 0000:fffd5000       .debug$S                   00400000     opengl32:OPENGL32.dll
 0000:fffd5000       .debug$S                   00400000     opengl32:OPENGL32.dll
 0000:fffd5000       .debug$S                   00400000     opengl32:OPENGL32.dll
 0000:fffd5000       .debug$S                   00400000     opengl32:OPENGL32.dll
 0000:fffd5000       .debug$S                   00400000     opengl32:OPENGL32.dll
 0000:fffd5000       .debug$S                   00400000     opengl32:OPENGL32.dll
 0000:fffd5000       .debug$S                   00400000     opengl32:OPENGL32.dll
 0000:fffd5000       .debug$S                   00400000     opengl32:OPENGL32.dll
 0000:fffd5000       .debug$S                   00400000     opengl32:OPENGL32.dll
 0000:fffd5000       .debug$S                   00400000     opengl32:OPENGL32.dll
 0000:fffd5000       .debug$S                   00400000     opengl32:OPENGL32.dll
 0000:fffd5000       .debug$S                   00400000     opengl32:OPENGL32.dll
 0000:fffd5000       .debug$S                   00400000     opengl32:OPENGL32.dll
 0000:fffd5000       .debug$S                   00400000     opengl32:OPENGL32.dll
 0000:fffd5000       .debug$S                   00400000     opengl32:OPENGL32.dll
 0000:fffd5000       .debug$S                   00400000     opengl32:OPENGL32.dll
 0000:fffd5000       .debug$S                   00400000     freeglut:freeglut.dll
 0000:fffd5000       .debug$S                   00400000     freeglut:freeglut.dll
 0000:fffd5000       .debug$S                   00400000     freeglut:freeglut.dll
 0000:fffd5000       .debug$S                   00400000     freeglut:freeglut.dll
 0000:fffd5000       .debug$S                   00400000     freeglut:freeglut.dll
 0000:fffd5000       .debug$S                   00400000     freeglut:freeglut.dll
 0000:fffd5000       .debug$S                   00400000     freeglut:freeglut.dll
 0000:fffd5000       .debug$S                   00400000     freeglut:freeglut.dll
 0000:fffd5000       .debug$S                   00400000     freeglut:freeglut.dll
 0000:fffd5000       .debug$S                   00400000     freeglut:freeglut.dll
 0000:fffd5000       .debug$S                   00400000     freeglut:freeglut.dll
 0000:fffd5000       .debug$S                   00400000     msvcprt:MSVCP110.dll
 0000:fffd5000       .debug$S                   00400000     msvcprt:MSVCP110.dll
 0000:fffd5000       .debug$S                   00400000     msvcprt:MSVCP110.dll
 0000:fffd5000       .debug$S                   00400000     msvcprt:MSVCP110.dll
 0000:fffd5000       .debug$S                   00400000     msvcprt:MSVCP110.dll
 0000:fffd5000       .debug$S                   00400000     msvcprt:MSVCP110.dll
 0000:fffd5000       .debug$S                   00400000     msvcprt:MSVCP110.dll
 0000:fffd5000       .debug$S                   00400000     msvcprt:MSVCP110.dll
 0000:fffd5000       .debug$S                   00400000     msvcprt:MSVCP110.dll
 0000:fffd5000       .debug$S                   00400000     msvcprt:MSVCP110.dll
 0000:fffd5000       .debug$S                   00400000     msvcprt:MSVCP110.dll
 0000:fffd5000       .debug$S                   00400000     msvcprt:MSVCP110.dll
 0000:fffd5000       .debug$S                   00400000     msvcprt:MSVCP110.dll
 0000:fffd5000       .debug$S                   00400000     msvcprt:MSVCP110.dll
 0000:fffd5000       .debug$S                   00400000     msvcprt:MSVCP110.dll
 0000:fffd5000       .debug$S                   00400000     msvcprt:MSVCP110.dll
 0000:fffd5000       .debug$S                   00400000     msvcprt:MSVCP110.dll
 0000:fffd5000       .debug$S                   00400000     msvcprt:MSVCP110.dll
 0000:fffd5000       .debug$S                   00400000     msvcprt:MSVCP110.dll
 0000:fffd5000       .debug$S                   00400000     freeglut:freeglut.dll
 0000:fffd5000       .debug$S                   00400000     freeglut:freeglut.dll
 0000:fffd5000       .debug$S                   00400000     msvcprt:MSVCP110.dll
 0000:fffd5000       .debug$S                   00400000     msvcprt:MSVCP110.dll
 0000:fffd5000       .debug$S                   00400000     msvcprt:MSVCP110.dll
 0000:fffd5000       .debug$S                   00400000     msvcprt:MSVCP110.dll
 0000:fffd5000       .debug$S                   00400000     msvcprt:MSVCP110.dll
 0000:fffd5000       .debug$S                   00400000     msvcprt:MSVCP110.dll
 0000:fffd5000       .debug$S                   00400000     msvcprt:MSVCP110.dll
 0000:fffd5000       .debug$S                   00400000     msvcprt:MSVCP110.dll
 0000:fffd5000       .debug$S                   00400000     msvcprt:MSVCP110.dll
 0000:fffd5000       .debug$S                   00400000     msvcprt:MSVCP110.dll
 0000:fffd5000       .debug$S                   00400000     msvcprt:MSVCP110.dll
 0000:fffd5000       .debug$S                   00400000     msvcprt:MSVCP110.dll
 0000:fffd5000       .debug$S                   00400000     msvcprt:MSVCP110.dll
 0000:fffd5000       .debug$S                   00400000     msvcprt:MSVCP110.dll
 0000:fffd5000       .debug$S                   00400000     msvcprt:MSVCP110.dll
 0000:fffd5000       .debug$S                   00400000     msvcprt:MSVCP110.dll
 0000:fffd5000       .debug$S                   00400000     msvcprt:MSVCP110.dll
 0000:fffd5000       .debug$S                   00400000     msvcprt:MSVCP110.dll
 0000:fffd5000       .debug$S                   00400000     msvcprt:MSVCP110.dll
 0000:fffd5000       .debug$S                   00400000     msvcprt:MSVCP110.dll
 0000:fffd5000       .debug$S                   00400000     msvcprt:MSVCP110.dll
 0000:fffd5000       .debug$S                   00400000     msvcprt:MSVCP110.dll
 0000:fffd5000       .debug$S                   00400000     msvcprt:MSVCP110.dll
 0000:fffd5000       .debug$S                   00400000     msvcprt:MSVCP110.dll
 0000:fffd5000       .debug$S                   00400000     msvcprt:MSVCP110.dll
 0000:fffd5000       .debug$S                   00400000     msvcprt:MSVCP110.dll
 0000:fffd5000       .debug$S                   00400000     msvcprt:MSVCP110.dll
 0000:fffd5000       .debug$S                   00400000     msvcprt:MSVCP110.dll
 0000:fffd5000       .debug$S                   00400000     MSVCRT:MSVCR110.dll
 0000:fffd5000       .debug$S                   00400000     MSVCRT:MSVCR110.dll
 0000:fffd5000       .debug$S                   00400000     MSVCRT:MSVCR110.dll
 0000:fffd5000       .debug$S                   00400000     MSVCRT:MSVCR110.dll
 0000:fffd5000       .debug$S                   00400000     MSVCRT:MSVCR110.dll
 0000:fffd5000       .debug$S                   00400000     MSVCRT:MSVCR110.dll
 0000:fffd5000       .debug$S                   00400000     MSVCRT:MSVCR110.dll
 0000:fffd5000       .debug$S                   00400000     MSVCRT:MSVCR110.dll
 0000:fffd5000       .debug$S                   00400000     MSVCRT:MSVCR110.dll
 0000:fffd5000       .debug$S                   00400000     MSVCRT:MSVCR110.dll
 0000:fffd5000       .debug$S                   00400000     MSVCRT:MSVCR110.dll
 0000:fffd5000       .debug$S                   00400000     MSVCRT:MSVCR110.dll
 0000:fffd5000       .debug$S                   00400000     MSVCRT:MSVCR110.dll
 0000:fffd5000       .debug$S                   00400000     MSVCRT:MSVCR110.dll
 0000:fffd5000       .debug$S                   00400000     MSVCRT:MSVCR110.dll
 0000:fffd5000       .debug$S                   00400000     MSVCRT:MSVCR110.dll
 0000:fffd5000       .debug$S                   00400000     MSVCRT:MSVCR110.dll
 0000:fffd5000       .debug$S                   00400000     MSVCRT:MSVCR110.dll
 0000:fffd5000       .debug$S                   00400000     MSVCRT:MSVCR110.dll
 0000:fffd5000       .debug$S                   00400000     MSVCRT:MSVCR110.dll
 0000:fffd5000       .debug$S                   00400000     MSVCRT:MSVCR110.dll
 0000:fffd5000       .debug$S                   00400000     MSVCRT:MSVCR110.dll
 0000:fffd5000       .debug$S                   00400000     MSVCRT:MSVCR110.dll
 0000:fffd5000       .debug$S                   00400000     MSVCRT:MSVCR110.dll
 0000:fffd5000       .debug$S                   00400000     MSVCRT:MSVCR110.dll
 0000:fffd5000       .debug$S                   00400000     MSVCRT:MSVCR110.dll
 0000:fffd5000       .debug$S                   00400000     MSVCRT:MSVCR110.dll
 0000:fffd5000       .debug$S                   00400000     MSVCRT:MSVCR110.dll
 0000:fffd5000       .debug$S                   00400000     MSVCRT:MSVCR110.dll
 0000:fffd5000       .debug$S                   00400000     freeglut:freeglut.dll
 0000:fffd5000       .debug$S                   00400000     freeglut:freeglut.dll
 0000:fffd5000       .debug$S                   00400000     freeglut:freeglut.dll
 0000:fffd5000       .debug$S                   00400000     freeglut:freeglut.dll
 0000:fffd5000       .debug$S                   00400000     freeglut:freeglut.dll
 0000:fffd5000       .debug$S                   00400000     MSVCRT:MSVCR110.dll
 0000:fffd5000       .debug$S                   00400000     MSVCRT:MSVCR110.dll
 0000:fffd5000       .debug$S                   00400000     MSVCRT:MSVCR110.dll
 0000:fffd5000       .debug$S                   00400000     MSVCRT:MSVCR110.dll
 0000:fffd5000       .debug$S                   00400000     MSVCRT:MSVCR110.dll
 0000:fffd5000       .debug$S                   00400000     MSVCRT:MSVCR110.dll
 0000:fffd5000       .debug$S                   00400000     msvcprt:MSVCP110.dll
 0000:fffd5000       .debug$S                   00400000     MSVCRT:MSVCR110.dll
 0000:fffd5000       .debug$S                   00400000     MSVCRT:MSVCR110.dll
 0000:fffd5000       .debug$S                   00400000     MSVCRT:MSVCR110.dll
 0000:fffd5000       .debug$S                   00400000     MSVCRT:MSVCR110.dll
 0000:fffd5000       .debug$S                   00400000     MSVCRT:MSVCR110.dll
 0000:fffd5000       .debug$S                   00400000     MSVCRT:MSVCR110.dll
 0000:fffd5000       .debug$S                   00400000     MSVCRT:MSVCR110.dll
 0000:fffd5000       .debug$S                   00400000     MSVCRT:MSVCR110.dll
 0000:fffd5000       .debug$S                   00400000     MSVCRT:MSVCR110.dll
 0000:fffd5000       .debug$S                   00400000     MSVCRT:MSVCR110.dll
 0000:fffd5000       .debug$S                   00400000     MSVCRT:MSVCR110.dll
 0000:fffd5000       .debug$S                   00400000     MSVCRT:MSVCR110.dll
 0000:fffd5000       .debug$S                   00400000     MSVCRT:MSVCR110.dll
 0000:fffd5000       .debug$S                   00400000     MSVCRT:MSVCR110.dll
 0000:fffd5000       .debug$S                   00400000     MSVCRT:MSVCR110.dll
 0000:fffd5000       .debug$S                   00400000     MSVCRT:MSVCR110.dll
 0000:fffd5000       .debug$S                   00400000     MSVCRT:MSVCR110.dll
 0000:fffd5000       .debug$S                   00400000     MSVCRT:MSVCR110.dll
 0000:fffd5000       .debug$S                   00400000     MSVCRT:MSVCR110.dll
 0000:fffd5000       .debug$S                   00400000     MSVCRT:MSVCR110.dll
 0000:fffd5000       .debug$S                   00400000     MSVCRT:MSVCR110.dll
 0000:fffd5000       .debug$S                   00400000     MSVCRT:MSVCR110.dll
 0000:fffd5000       .debug$S                   00400000     msvcprt:MSVCP110.dll
 0000:fffd5000       .debug$S                   00400000     msvcprt:MSVCP110.dll
 0000:fffd5000       .debug$S                   00400000     msvcprt:MSVCP110.dll
 0000:fffd5000       .debug$S                   00400000     msvcprt:MSVCP110.dll
 0000:fffd5000       .debug$S                   00400000     msvcprt:MSVCP110.dll
 0000:fffd5000       .debug$S                   00400000     msvcprt:MSVCP110.dll
 0000:fffd5000       .debug$S                   00400000     msvcprt:MSVCP110.dll
 0000:fffd5000       .debug$S                   00400000     msvcprt:MSVCP110.dll
 0000:fffd5000       .debug$S                   00400000     msvcprt:MSVCP110.dll
 0000:fffd5000       .debug$S                   00400000     msvcprt:MSVCP110.dll
 0000:fffd5000       .debug$S                   00400000     msvcprt:MSVCP110.dll
 0000:fffd5000       .debug$S                   00400000     msvcprt:MSVCP110.dll
 0000:fffd5000       .debug$S                   00400000     msvcprt:MSVCP110.dll
 0000:fffd5000       .debug$S                   00400000     msvcprt:MSVCP110.dll
 0000:fffd5000       .debug$S                   00400000     msvcprt:MSVCP110.dll
 0000:fffd5000       .debug$S                   00400000     msvcprt:MSVCP110.dll
 0000:fffd5000       .debug$S                   00400000     msvcprt:MSVCP110.dll
 0000:fffd5000       .debug$S                   00400000     msvcprt:MSVCP110.dll
 0000:fffd5000       .debug$S                   00400000     msvcprt:MSVCP110.dll
 0000:fffd5000       .debug$S                   00400000     msvcprt:MSVCP110.dll
 0000:fffd5000       .debug$S                   00400000     msvcprt:MSVCP110.dll
 0000:fffd5000       .debug$S                   00400000     msvcprt:MSVCP110.dll
 0000:fffd5000       .debug$S                   00400000     msvcprt:MSVCP110.dll
 0000:fffd5000       .debug$S                   00400000     msvcprt:MSVCP110.dll
 0000:fffd5000       .debug$S                   00400000     msvcprt:MSVCP110.dll
 0000:fffd5000       .debug$S                   00400000     msvcprt:MSVCP110.dll
 0000:fffd5000       .debug$S                   00400000     msvcprt:MSVCP110.dll
 0000:fffd5000       .debug$S                   00400000     msvcprt:MSVCP110.dll
 0000:fffd5000       .debug$S                   00400000     msvcprt:MSVCP110.dll
 0000:fffd5000       .debug$S                   00400000     msvcprt:MSVCP110.dll
 0000:fffd5000       .debug$S                   00400000     msvcprt:MSVCP110.dll
 0000:fffd5000       .debug$S                   00400000     msvcprt:MSVCP110.dll
 0000:fffd5000       .debug$S                   00400000     msvcprt:MSVCP110.dll
 0000:fffd5000       .debug$S                   00400000     freeglut:freeglut.dll
 0000:fffd5000       .debug$S                   00400000     freeglut:freeglut.dll
 0000:fffd5000       .debug$S                   00400000     msvcprt:MSVCP110.dll
 0000:fffd5000       .debug$S                   00400000     msvcprt:MSVCP110.dll
 0000:fffd5000       .debug$S                   00400000     msvcprt:MSVCP110.dll
 0000:fffd5000       .debug$S                   00400000     msvcprt:MSVCP110.dll
 0000:fffd5000       .debug$S                   00400000     msvcprt:MSVCP110.dll
 0000:fffd5000       .debug$S                   00400000     msvcprt:MSVCP110.dll
 0000:fffd5000       .debug$S                   00400000     msvcprt:MSVCP110.dll
 0000:fffd5000       .debug$S                   00400000     msvcprt:MSVCP110.dll
 0000:fffd5000       .debug$S                   00400000     msvcprt:MSVCP110.dll
 0000:fffd5000       .debug$S                   00400000     msvcprt:MSVCP110.dll
 0000:fffd5000       .debug$S                   00400000     msvcprt:MSVCP110.dll
 0000:fffd5000       .debug$S                   00400000     msvcprt:MSVCP110.dll
 0000:fffd5000       .debug$S                   00400000     msvcprt:MSVCP110.dll
 0000:fffd5000       .debug$S                   00400000     msvcprt:MSVCP110.dll
 0000:fffd5000       .debug$S                   00400000     msvcprt:MSVCP110.dll
 0000:fffd5000       .debug$S                   00400000     msvcprt:MSVCP110.dll
 0000:fffd5000       .debug$S                   00400000     msvcprt:MSVCP110.dll
 0000:fffd5000       .debug$S                   00400000     msvcprt:MSVCP110.dll
 0000:fffd5000       .debug$S                   00400000     msvcprt:MSVCP110.dll
 0000:fffd5000       .debug$S                   00400000     msvcprt:MSVCP110.dll
 0000:fffd5000       .debug$S                   00400000     msvcprt:MSVCP110.dll
 0000:fffd5000       .debug$S                   00400000     msvcprt:MSVCP110.dll
 0000:fffd5000       .debug$S                   00400000     msvcprt:MSVCP110.dll
 0000:fffd5000       .debug$S                   00400000     msvcprt:MSVCP110.dll
 0000:fffd5000       .debug$S                   00400000     msvcprt:MSVCP110.dll
 0000:fffd5000       .debug$S                   00400000     msvcprt:MSVCP110.dll
 0000:fffd5000       .debug$S                   00400000     msvcprt:MSVCP110.dll
 0000:fffd5000       .debug$S                   00400000     msvcprt:MSVCP110.dll
 0000:fffd5000       .debug$S                   00400000     msvcprt:MSVCP110.dll
 0000:fffd5000       .debug$S                   00400000     msvcprt:MSVCP110.dll
 0000:fffd5000       .debug$S                   00400000     msvcprt:MSVCP110.dll
 0000:fffd5000       .debug$S                   00400000     msvcprt:MSVCP110.dll
 0000:fffd5000       .debug$S                   00400000     msvcprt:MSVCP110.dll
 0000:fffd5000       .debug$S                   00400000     msvcprt:MSVCP110.dll
 0000:fffd5000       .debug$S                   00400000     msvcprt:MSVCP110.dll
 0000:fffd5000       .debug$S                   00400000     msvcprt:MSVCP110.dll
 0000:fffd5000       .debug$S                   00400000     msvcprt:MSVCP110.dll
 0000:fffd5000       .debug$S                   00400000     msvcprt:MSVCP110.dll
 0000:fffd5000       .debug$S                   00400000     msvcprt:MSVCP110.dll
 0000:fffd5000       .debug$S                   00400000     msvcprt:MSVCP110.dll
 0000:fffd5000       .debug$S                   00400000     msvcprt:MSVCP110.dll
 0000:fffd5000       .debug$S                   00400000     msvcprt:MSVCP110.dll
 0000:fffd5000       .debug$S                   00400000     msvcprt:MSVCP110.dll
 0000:fffd5000       .debug$S                   00400000     msvcprt:MSVCP110.dll
 0000:fffd5000       .debug$S                   00400000     msvcprt:MSVCP110.dll
 0000:fffd5000       .debug$S                   00400000     shell32:SHELL32.dll
 0000:fffd5000       .debug$S                   00400000     shell32:SHELL32.dll
 0000:fffd5000       .debug$S                   00400000     shell32:SHELL32.dll
 0000:fffd5000       .debug$S                   00400000     shell32:SHELL32.dll
 0000:fffd5000       .debug$S                   00400000     user32:USER32.dll
 0000:fffd5000       .debug$S                   00400000     user32:USER32.dll
 0000:fffd5000       .debug$S                   00400000     user32:USER32.dll
 0000:fffd5000       .debug$S                   00400000     user32:USER32.dll
 0000:fffd5000       .debug$S                   00400000     user32:USER32.dll
 0000:fffd5000       .debug$S                   00400000     user32:USER32.dll
 0000:fffd5000       .debug$S                   00400000     kernel32:KERNEL32.dll
 0000:fffd5000       .debug$S                   00400000     kernel32:KERNEL32.dll
 0000:fffd5000       .debug$S                   00400000     kernel32:KERNEL32.dll
 0000:fffd5000       .debug$S                   00400000     kernel32:KERNEL32.dll
 0000:fffd5000       .debug$S                   00400000     kernel32:KERNEL32.dll
 0000:fffd5000       .debug$S                   00400000     kernel32:KERNEL32.dll
 0000:fffd5000       .debug$S                   00400000     kernel32:KERNEL32.dll
 0000:fffd5000       .debug$S                   00400000     kernel32:KERNEL32.dll
 0000:fffd5000       .debug$S                   00400000     kernel32:KERNEL32.dll
 0000:fffd5000       .debug$S                   00400000     AntTweakBar:AntTweakBar.dll
 0000:fffd5000       .debug$S                   00400000     AntTweakBar:AntTweakBar.dll
 0000:fffd5000       .debug$S                   00400000     AntTweakBar:AntTweakBar.dll
 0000:fffd5000       .debug$S                   00400000     AntTweakBar:AntTweakBar.dll
 0000:fffd5000       .debug$S                   00400000     AntTweakBar:AntTweakBar.dll
 0000:fffd5000       .debug$S                   00400000     AntTweakBar:AntTweakBar.dll
 0000:fffd5000       .debug$S                   00400000     AntTweakBar:AntTweakBar.dll
 0000:fffd5000       .debug$S                   00400000     AntTweakBar:AntTweakBar.dll
 0000:fffd5000       .debug$S                   00400000     AntTweakBar:AntTweakBar.dll
 0000:fffd5000       .debug$S                   00400000     AntTweakBar:AntTweakBar.dll
 0000:fffd5000       .debug$S                   00400000     AntTweakBar:AntTweakBar.dll
 0000:fffd5000       .debug$S                   00400000     AntTweakBar:AntTweakBar.dll
 0000:fffd5000       .debug$S                   00400000     AntTweakBar:AntTweakBar.dll
 0000:fffd5000       .debug$S                   00400000     AntTweakBar:AntTweakBar.dll
 0000:fffd5000       .debug$S                   00400000     AntTweakBar:AntTweakBar.dll
 0000:fffd5000       .debug$S                   00400000     AntTweakBar:AntTweakBar.dll
 0000:fffd5000       .debug$S                   00400000     AntTweakBar:AntTweakBar.dll
 0000:fffd5000       .debug$S                   00400000     AntTweakBar:AntTweakBar.dll
 0000:fffd5000       .debug$S                   00400000     freeglut:freeglut.dll
 0000:fffd5000       .debug$S                   00400000     freeglut:freeglut.dll
 0000:fffd5000       .debug$S                   00400000     freeglut:freeglut.dll
 0000:fffd5000       .debug$S                   00400000     freeglut:freeglut.dll
 0000:fffd5000       .debug$S                   00400000     freeglut:freeglut.dll
 0000:fffd5000       .debug$S                   00400000     freeglut:freeglut.dll
 0000:fffd5000       .debug$S                   00400000     msvcprt:MSVCP110.dll
 0001:00002d78       $LN20                      00403d78     * CIL library *:* CIL module *
 0001:00002da8       $LN17                      00403da8     * CIL library *:* CIL module *
 0001:00002ea8       $LN20                      00403ea8     * CIL library *:* CIL module *
 0001:0000a549       __catch$?_Reallocate@?$vector@Umap_point_t@@V?$allocator@Umap_point_t@@@std@@@std@@IAEXI@Z$0 0040b549 f i * CIL library *:* CIL module *
 0001:0000a655       __catch$?_Reallocate@?$vector@Uzone_info_t@@V?$allocator@Uzone_info_t@@@std@@@std@@IAEXI@Z$0 0040b655 f i * CIL library *:* CIL module *
 0001:0000a8e7       __catch$?_Copy@?$basic_string@DU?$char_traits@D@std@@V?$allocator@D@2@@std@@QAEXII@Z$0 0040b8e7 f i * CIL library *:* CIL module *
 0001:0000a921       __catch$?_Copy@?$basic_string@DU?$char_traits@D@std@@V?$allocator@D@2@@std@@QAEXII@Z$1 0040b921 f i * CIL library *:* CIL module *
 0001:0000b356       __catch$??$map_line_data_value_can_lexical_cast@M@@YA_NV?$basic_string@DU?$char_traits@D@std@@V?$allocator@D@2@@std@@HHAAM00@Z$0 0040c356 f i * CIL library *:* CIL module *
 0001:0000b49f       __catch$??$map_line_data_value_can_lexical_cast@M@@YA_NV?$basic_string@DU?$char_traits@D@std@@V?$allocator@D@2@@std@@HHAAM00@Z$1 0040c49f f i * CIL library *:* CIL module *
 0001:0000b654       __catch$??$map_line_data_value_can_lexical_cast@H@@YA_NV?$basic_string@DU?$char_traits@D@std@@V?$allocator@D@2@@std@@HHAAH00@Z$0 0040c654 f i * CIL library *:* CIL module *
 0001:0000b79d       __catch$??$map_line_data_value_can_lexical_cast@H@@YA_NV?$basic_string@DU?$char_traits@D@std@@V?$allocator@D@2@@std@@HHAAH00@Z$1 0040c79d f i * CIL library *:* CIL module *
 0001:0000bdf6       __catch$??$read_ini@V?$basic_ptree@V?$basic_string@DU?$char_traits@D@std@@V?$allocator@D@2@@std@@V12@U?$less@V?$basic_string@DU?$char_traits@D@std@@V?$allocator@D@2@@std@@@2@@property_tree@boost@@@ini_parser@property_tree@boost@@YAXABV?$basic_string@DU?$char_traits@D@std@@V?$allocator@D@2@@std@@AAV?$basic_ptree@V?$basic_string@DU?$char_traits@D@std@@V?$allocator@D@2@@std@@V12@U?$less@V?$basic_string@DU?$char_traits@D@std@@V?$allocator@D@2@@std@@@2@@12@ABVlocale@4@@Z$0 0040cdf6 f i * CIL library *:* CIL module *
 0001:0000c9d4       __catch$?_Init@?$numpunct@D@std@@IAEXABV_Locinfo@2@_N@Z$0 0040d9d4 f i * CIL library *:* CIL module *
 0001:0000cc55       __catch$??$getline@DU?$char_traits@D@std@@V?$allocator@D@2@@std@@YAAAV?$basic_istream@DU?$char_traits@D@std@@@0@$$QAV10@AAV?$basic_string@DU?$char_traits@D@std@@V?$allocator@D@2@@0@D@Z$0 0040dc55 f i * CIL library *:* CIL module *
 0001:0000f10e       __catch$??$_Uninit_move@PAUmap_point_t@@PAU1@V?$allocator@Umap_point_t@@@std@@U1@@std@@YAPAUmap_point_t@@PAU1@00AAU?$_Wrap_alloc@V?$allocator@Umap_point_t@@@std@@@0@0U_Nonscalar_ptr_iterator_tag@0@@Z$0 0041010e f i * CIL library *:* CIL module *
 0001:0000f21c       __catch$??$_Uninit_move@PAUzone_info_t@@PAU1@V?$allocator@Uzone_info_t@@@std@@U1@@std@@YAPAUzone_info_t@@PAU1@00AAU?$_Wrap_alloc@V?$allocator@Uzone_info_t@@@std@@@0@0U_Nonscalar_ptr_iterator_tag@0@@Z$0 0041021c f i * CIL library *:* CIL module *
 0001:00010859       __catch$?insert_@?$multi_index_container@U?$pair@$$CBV?$basic_string@DU?$char_traits@D@std@@V?$allocator@D@2@@std@@V?$basic_ptree@V?$basic_string@DU?$char_traits@D@std@@V?$allocator@D@2@@std@@V12@U?$less@V?$basic_string@DU?$char_traits@D@std@@V?$allocator@D@2@@std@@@2@@property_tree@boost@@@std@@U?$indexed_by@U?$sequenced@U?$tag@Una@mpl@boost@@U123@U123@U123@U123@U123@U123@U123@U123@U123@U123@U123@U123@U123@U123@U123@U123@U123@U123@U123@@multi_index@boost@@@multi_index@boost@@U?$ordered_non_unique@U?$tag@Uby_name@subs@?$basic_ptree@V?$basic_string@DU?$char_traits@D@std@@V?$allocator@D@2@@std@@V12@U?$less@V?$basic_string@DU?$char_traits@D@std@@V?$allocator@D@2@@std@@@2@@property_tree@boost@@Una@mpl@5@U675@U675@U675@U675@U675@U675@U675@U675@U675@U675@U675@U675@U675@U675@U675@U675@U675@U675@@multi_index@boost@@U?$member@U?$pair@$$CBV?$basic_string@DU?$char_traits@D@std@@V?$allocator@D@2@@std@@V?$basic_ptree@V?$basic_string@DU?$char_traits@D@std@@V?$allocator@D@2@@std@@V12@U?$less@V?$basic_string@DU?$char_traits@D@std@@V?$allocator@D@2@@std@@@2@@property_tree@boost@@@std@@$$CBV?$basic_string@DU?$char_traits@D@std@@V?$allocator@D@2@@2@$0A@@23@U?$less@V?$basic_string@DU?$char_traits@D@std@@V?$allocator@D@2@@std@@@std@@@23@Una@mpl@3@U563@U563@U563@U563@U563@U563@U563@U563@U563@U563@U563@U563@U563@U563@U563@U563@U563@@multi_index@boost@@V?$allocator@U?$pair@$$CBV?$basic_string@DU?$char_traits@D@std@@V?$allocator@D@2@@std@@V?$basic_ptree@V?$basic_string@DU?$char_traits@D@std@@V?$allocator@D@2@@std@@V12@U?$less@V?$basic_string@DU?$char_traits@D@std@@V?$allocator@D@2@@std@@@2@@property_tree@boost@@@std@@@2@@multi_index@boost@@IAE?AU?$pair@PAU?$sequenced_index_node@U?$ordered_index_node@U?$index_node_base@U?$pair@$$CBV?$basic_string@DU?$char_traits@D@std@@V?$allocator@D@2@@std@@V?$basic_ptree@V?$basic_string@DU?$char_traits@D@std@@V?$allocator@D@2@@std@@V12@U?$less@V?$basic_string@DU?$char_traits@D@std@@V?$allocator@D@2@@std@@@2@@property_tree@boost@@@std@@V?$allocator@U?$pair@$$CBV?$basic_string@DU?$char_traits@D@std@@V?$allocator@D@2@@std@@V?$basic_ptree@V?$basic_string@DU?$char_traits@D@std@@V?$allocator@D@2@@std@@V12@U?$less@V?$basic_string@DU?$char_traits@D@std@@V?$allocator@D@2@@std@@@2@@property_tree@boost@@@std@@@2@@detail@multi_index@boost@@@detail@multi_index@boost@@@detail@multi_index@boost@@_N@std@@ABU?$pair@$$CBV?$basic_string@DU?$char_traits@D@std@@V?$allocator@D@2@@std@@V?$basic_ptree@V?$basic_string@DU?$char_traits@D@std@@V?$allocator@D@2@@std@@V12@U?$less@V?$basic_string@DU?$char_traits@D@std@@V?$allocator@D@2@@std@@@2@@property_tree@boost@@@5@@Z$0 00411859 f i * CIL library *:* CIL module *
 0001:000115c9       __catch$??$_Construct@V?$transform_iterator@U?$copy_iterator_rangeF@V?$basic_string@DU?$char_traits@D@std@@V?$allocator@D@2@@std@@V?$_String_iterator@V?$_String_val@U?$_Simple_types@D@std@@@std@@@2@@detail@algorithm@boost@@V?$split_iterator@V?$_String_iterator@V?$_String_val@U?$_Simple_types@D@std@@@std@@@std@@@34@Uuse_default@4@U64@@boost@@@?$vector@V?$basic_string@DU?$char_traits@D@std@@V?$allocator@D@2@@std@@V?$allocator@V?$basic_string@DU?$char_traits@D@std@@V?$allocator@D@2@@std@@@2@@std@@QAEXV?$transform_iterator@U?$copy_iterator_rangeF@V?$basic_string@DU?$char_traits@D@std@@V?$allocator@D@2@@std@@V?$_String_iterator@V?$_String_val@U?$_Simple_types@D@std@@@std@@@2@@detail@algorithm@boost@@V?$split_iterator@V?$_String_iterator@V?$_String_val@U?$_Simple_types@D@std@@@std@@@std@@@34@Uuse_default@4@U64@@boost@@0@Z$0 004125c9 f i * CIL library *:* CIL module *
 0001:0001177f       __catch$??$_Construct@V?$transform_iterator@U?$to_lowerF@D@detail@algorithm@boost@@V?$_String_const_iterator@V?$_String_val@U?$_Simple_types@D@std@@@std@@@std@@Uuse_default@4@U74@@boost@@@?$basic_string@DU?$char_traits@D@std@@V?$allocator@D@2@@std@@QAEXV?$transform_iterator@U?$to_lowerF@D@detail@algorithm@boost@@V?$_String_const_iterator@V?$_String_val@U?$_Simple_types@D@std@@@std@@@std@@Uuse_default@4@U74@@boost@@0Uinput_iterator_tag@1@@Z$0 0041277f f i * CIL library *:* CIL module *
 0001:000130d2       __catch$?clone@?$copy_map@U?$sequenced_index_node@U?$ordered_index_node@U?$index_node_base@U?$pair@$$CBV?$basic_string@DU?$char_traits@D@std@@V?$allocator@D@2@@std@@V?$basic_ptree@V?$basic_string@DU?$char_traits@D@std@@V?$allocator@D@2@@std@@V12@U?$less@V?$basic_string@DU?$char_traits@D@std@@V?$allocator@D@2@@std@@@2@@property_tree@boost@@@std@@V?$allocator@U?$pair@$$CBV?$basic_string@DU?$char_traits@D@std@@V?$allocator@D@2@@std@@V?$basic_ptree@V?$basic_string@DU?$char_traits@D@std@@V?$allocator@D@2@@std@@V12@U?$less@V?$basic_string@DU?$char_traits@D@std@@V?$allocator@D@2@@std@@@2@@property_tree@boost@@@std@@@2@@detail@multi_index@boost@@@detail@multi_index@boost@@@detail@multi_index@boost@@V?$allocator@U?$pair@$$CBV?$basic_string@DU?$char_traits@D@std@@V?$allocator@D@2@@std@@V?$basic_ptree@V?$basic_string@DU?$char_traits@D@std@@V?$allocator@D@2@@std@@V12@U?$less@V?$basic_string@DU?$char_traits@D@std@@V?$allocator@D@2@@std@@@2@@property_tree@boost@@@std@@@std@@@detail@multi_index@boost@@QAEXPAU?$sequenced_index_node@U?$ordered_index_node@U?$index_node_base@U?$pair@$$CBV?$basic_string@DU?$char_traits@D@std@@V?$allocator@D@2@@std@@V?$basic_ptree@V?$basic_string@DU?$char_traits@D@std@@V?$allocator@D@2@@std@@V12@U?$less@V?$basic_string@DU?$char_traits@D@std@@V?$allocator@D@2@@std@@@2@@property_tree@boost@@@std@@V?$allocator@U?$pair@$$CBV?$basic_string@DU?$char_traits@D@std@@V?$allocator@D@2@@std@@V?$basic_ptree@V?$basic_string@DU?$char_traits@D@std@@V?$allocator@D@2@@std@@V12@U?$less@V?$basic_string@DU?$char_traits@D@std@@V?$allocator@D@2@@std@@@2@@property_tree@boost@@@std@@@2@@detail@multi_index@boost@@@detail@multi_index@boost@@@234@@Z$0 004140d2 f i * CIL library *:* CIL module *
 0001:0001424a       __catch$??$insert@PBD@?$deque@DV?$allocator@D@std@@@std@@QAE?AV?$_Deque_iterator@V?$_Deque_val@U?$_Deque_simple_types@D@std@@@std@@@1@V?$_Deque_const_iterator@V?$_Deque_val@U?$_Deque_simple_types@D@std@@@std@@@1@PBD1@Z$0 0041524a f i * CIL library *:* CIL module *
 0001:00014312       __catch$??$insert@PBD@?$deque@DV?$allocator@D@std@@@std@@QAE?AV?$_Deque_iterator@V?$_Deque_val@U?$_Deque_simple_types@D@std@@@std@@@1@V?$_Deque_const_iterator@V?$_Deque_val@U?$_Deque_simple_types@D@std@@@std@@@1@PBD1@Z$2 00415312 f i * CIL library *:* CIL module *
 0001:000148f2       __catch$??$_Insert@V?$transform_iterator@U?$copy_iterator_rangeF@V?$basic_string@DU?$char_traits@D@std@@V?$allocator@D@2@@std@@V?$_String_iterator@V?$_String_val@U?$_Simple_types@D@std@@@std@@@2@@detail@algorithm@boost@@V?$split_iterator@V?$_String_iterator@V?$_String_val@U?$_Simple_types@D@std@@@std@@@std@@@34@Uuse_default@4@U64@@boost@@@?$vector@V?$basic_string@DU?$char_traits@D@std@@V?$allocator@D@2@@std@@V?$allocator@V?$basic_string@DU?$char_traits@D@std@@V?$allocator@D@2@@std@@@2@@std@@QAEXV?$_Vector_const_iterator@V?$_Vector_val@U?$_Simple_types@V?$basic_string@DU?$char_traits@D@std@@V?$allocator@D@2@@std@@@std@@@std@@@1@V?$transform_iterator@U?$copy_iterator_rangeF@V?$basic_string@DU?$char_traits@D@std@@V?$allocator@D@2@@std@@V?$_String_iterator@V?$_String_val@U?$_Simple_types@D@std@@@std@@@2@@detail@algorithm@boost@@V?$split_iterator@V?$_String_iterator@V?$_String_val@U?$_Simple_types@D@std@@@std@@@std@@@34@Uuse_default@4@U64@@boost@@1Uinput_iterator_tag@1@@Z$0 004158f2 f i * CIL library *:* CIL module *
 0001:0001585e       __catch$??$_Construct@V?$_String_iterator@V?$_String_val@U?$_Simple_types@D@std@@@std@@@std@@@?$basic_string@DU?$char_traits@D@std@@V?$allocator@D@2@@std@@QAEXV?$_String_iterator@V?$_String_val@U?$_Simple_types@D@std@@@std@@@1@0Uforward_iterator_tag@1@@Z$0 0041685e f i * CIL library *:* CIL module *
 0001:00017297       __catch$??$_Construct@V?$_Deque_iterator@V?$_Deque_val@U?$_Deque_simple_types@D@std@@@std@@@std@@@?$basic_string@DU?$char_traits@D@std@@V?$allocator@D@2@@std@@QAEXV?$_Deque_iterator@V?$_Deque_val@U?$_Deque_simple_types@D@std@@@std@@@1@0Uforward_iterator_tag@1@@Z$0 00418297 f i * CIL library *:* CIL module *
 0001:000176b4       _pre_c_init                004186b4 f   MSVCRT:crtexe.obj
 0001:0001776d       _pre_cpp_init              0041876d f   MSVCRT:crtexe.obj
 0001:000177b8       ___tmainCRTStartup         004187b8 f   MSVCRT:crtexe.obj
 0001:00017d50       $$000000                   00418d50     MSVCRT:sehprolg4.obj
 0001:00018040       __unwindfunclet$??$?0AAV?$basic_string@DU?$char_traits@D@std@@V?$allocator@D@2@@std@@V?$basic_ptree@V?$basic_string@DU?$char_traits@D@std@@V?$allocator@D@2@@std@@V12@U?$less@V?$basic_string@DU?$char_traits@D@std@@V?$allocator@D@2@@std@@@2@@property_tree@boost@@@?$pair@V?$basic_string@DU?$char_traits@D@std@@V?$allocator@D@2@@std@@V?$basic_ptree@V?$basic_string@DU?$char_traits@D@std@@V?$allocator@D@2@@std@@V12@U?$less@V?$basic_string@DU?$char_traits@D@std@@V?$allocator@D@2@@std@@@2@@property_tree@boost@@@std@@QAE@AAV?$basic_string@DU?$char_traits@D@std@@V?$allocator@D@2@@1@$$QAV?$basic_ptree@V?$basic_string@DU?$char_traits@D@std@@V?$allocator@D@2@@std@@V12@U?$less@V?$basic_string@DU?$char_traits@D@std@@V?$allocator@D@2@@std@@@2@@property_tree@boost@@PAPAX@Z$0 00419040 f   * CIL library *:* CIL module *
 0001:00018048       __unwindfunclet$??$?0AAV?$basic_string@DU?$char_traits@D@std@@V?$allocator@D@2@@std@@V?$basic_ptree@V?$basic_string@DU?$char_traits@D@std@@V?$allocator@D@2@@std@@V12@U?$less@V?$basic_string@DU?$char_traits@D@std@@V?$allocator@D@2@@std@@@2@@property_tree@boost@@@?$pair@V?$basic_string@DU?$char_traits@D@std@@V?$allocator@D@2@@std@@V?$basic_ptree@V?$basic_string@DU?$char_traits@D@std@@V?$allocator@D@2@@std@@V12@U?$less@V?$basic_string@DU?$char_traits@D@std@@V?$allocator@D@2@@std@@@2@@property_tree@boost@@@std@@QAE@AAV?$basic_string@DU?$char_traits@D@std@@V?$allocator@D@2@@1@$$QAV?$basic_ptree@V?$basic_string@DU?$char_traits@D@std@@V?$allocator@D@2@@std@@V12@U?$less@V?$basic_string@DU?$char_traits@D@std@@V?$allocator@D@2@@std@@@2@@property_tree@boost@@PAPAX@Z$2 00419048 f   * CIL library *:* CIL module *
 0001:00018050       __unwindfunclet$??$?0AAV?$basic_string@DU?$char_traits@D@std@@V?$allocator@D@2@@std@@V?$basic_ptree@V?$basic_string@DU?$char_traits@D@std@@V?$allocator@D@2@@std@@V12@U?$less@V?$basic_string@DU?$char_traits@D@std@@V?$allocator@D@2@@std@@@2@@property_tree@boost@@@?$pair@V?$basic_string@DU?$char_traits@D@std@@V?$allocator@D@2@@std@@V?$basic_ptree@V?$basic_string@DU?$char_traits@D@std@@V?$allocator@D@2@@std@@V12@U?$less@V?$basic_string@DU?$char_traits@D@std@@V?$allocator@D@2@@std@@@2@@property_tree@boost@@@std@@QAE@AAV?$basic_string@DU?$char_traits@D@std@@V?$allocator@D@2@@1@$$QAV?$basic_ptree@V?$basic_string@DU?$char_traits@D@std@@V?$allocator@D@2@@std@@V12@U?$less@V?$basic_string@DU?$char_traits@D@std@@V?$allocator@D@2@@std@@@2@@property_tree@boost@@PAPAX@Z$3 00419050 f   * CIL library *:* CIL module *
 0001:0001805c       __ehhandler$??$?0AAV?$basic_string@DU?$char_traits@D@std@@V?$allocator@D@2@@std@@V?$basic_ptree@V?$basic_string@DU?$char_traits@D@std@@V?$allocator@D@2@@std@@V12@U?$less@V?$basic_string@DU?$char_traits@D@std@@V?$allocator@D@2@@std@@@2@@property_tree@boost@@@?$pair@V?$basic_string@DU?$char_traits@D@std@@V?$allocator@D@2@@std@@V?$basic_ptree@V?$basic_string@DU?$char_traits@D@std@@V?$allocator@D@2@@std@@V12@U?$less@V?$basic_string@DU?$char_traits@D@std@@V?$allocator@D@2@@std@@@2@@property_tree@boost@@@std@@QAE@AAV?$basic_string@DU?$char_traits@D@std@@V?$allocator@D@2@@1@$$QAV?$basic_ptree@V?$basic_string@DU?$char_traits@D@std@@V?$allocator@D@2@@std@@V12@U?$less@V?$basic_string@DU?$char_traits@D@std@@V?$allocator@D@2@@std@@@2@@property_tree@boost@@PAPAX@Z 0041905c f   * CIL library *:* CIL module *
 0001:00018080       __unwindfunclet$??$?0U?$token_finderF@U?$is_any_ofF@D@detail@algorithm@boost@@@detail@algorithm@boost@@@?$split_iterator@V?$_String_iterator@V?$_String_val@U?$_Simple_types@D@std@@@std@@@std@@@algorithm@boost@@QAE@V?$_String_iterator@V?$_String_val@U?$_Simple_types@D@std@@@std@@@std@@0U?$token_finderF@U?$is_any_ofF@D@detail@algorithm@boost@@@detail@12@@Z$0 00419080 f   * CIL library *:* CIL module *
 0001:00018088       __unwindfunclet$??$?0U?$token_finderF@U?$is_any_ofF@D@detail@algorithm@boost@@@detail@algorithm@boost@@@?$split_iterator@V?$_String_iterator@V?$_String_val@U?$_Simple_types@D@std@@@std@@@std@@@algorithm@boost@@QAE@V?$_String_iterator@V?$_String_val@U?$_Simple_types@D@std@@@std@@@std@@0U?$token_finderF@U?$is_any_ofF@D@detail@algorithm@boost@@@detail@12@@Z$2 00419088 f   * CIL library *:* CIL module *
 0001:00018090       __ehhandler$??$?0U?$token_finderF@U?$is_any_ofF@D@detail@algorithm@boost@@@detail@algorithm@boost@@@?$split_iterator@V?$_String_iterator@V?$_String_val@U?$_Simple_types@D@std@@@std@@@std@@@algorithm@boost@@QAE@V?$_String_iterator@V?$_String_val@U?$_Simple_types@D@std@@@std@@@std@@0U?$token_finderF@U?$is_any_ofF@D@detail@algorithm@boost@@@detail@12@@Z 00419090 f   * CIL library *:* CIL module *
 0001:000180b0       __unwindfunclet$??$?0V?$_Deque_iterator@V?$_Deque_val@U?$_Deque_simple_types@D@std@@@std@@@std@@@?$basic_string@DU?$char_traits@D@std@@V?$allocator@D@2@@std@@QAE@V?$_Deque_iterator@V?$_Deque_val@U?$_Deque_simple_types@D@std@@@std@@@1@0PAPAX@Z$0 004190b0 f   * CIL library *:* CIL module *
 0001:000180b5       __ehhandler$??$?0V?$_Deque_iterator@V?$_Deque_val@U?$_Deque_simple_types@D@std@@@std@@@std@@@?$basic_string@DU?$char_traits@D@std@@V?$allocator@D@2@@std@@QAE@V?$_Deque_iterator@V?$_Deque_val@U?$_Deque_simple_types@D@std@@@std@@@1@0PAPAX@Z 004190b5 f   * CIL library *:* CIL module *
 0001:000180d0       __unwindfunclet$??$?0V?$basic_string@DU?$char_traits@D@std@@V?$allocator@D@2@@std@@V?$basic_ptree@V?$basic_string@DU?$char_traits@D@std@@V?$allocator@D@2@@std@@V12@U?$less@V?$basic_string@DU?$char_traits@D@std@@V?$allocator@D@2@@std@@@2@@property_tree@boost@@@?$pair@$$CBV?$basic_string@DU?$char_traits@D@std@@V?$allocator@D@2@@std@@V?$basic_ptree@V?$basic_string@DU?$char_traits@D@std@@V?$allocator@D@2@@std@@V12@U?$less@V?$basic_string@DU?$char_traits@D@std@@V?$allocator@D@2@@std@@@2@@property_tree@boost@@@std@@QAE@$$QAU?$pair@V?$basic_string@DU?$char_traits@D@std@@V?$allocator@D@2@@std@@V?$basic_ptree@V?$basic_string@DU?$char_traits@D@std@@V?$allocator@D@2@@std@@V12@U?$less@V?$basic_string@DU?$char_traits@D@std@@V?$allocator@D@2@@std@@@2@@property_tree@boost@@@1@PAPAX@Z$0 004190d0 f   * CIL library *:* CIL module *
 0001:000180d0       __unwindfunclet$??$?0V?$basic_string@DU?$char_traits@D@std@@V?$allocator@D@2@@std@@V?$basic_ptree@V?$basic_string@DU?$char_traits@D@std@@V?$allocator@D@2@@std@@V12@U?$less@V?$basic_string@DU?$char_traits@D@std@@V?$allocator@D@2@@std@@@2@@property_tree@boost@@@?$pair@V?$basic_string@DU?$char_traits@D@std@@V?$allocator@D@2@@std@@V?$basic_ptree@V?$basic_string@DU?$char_traits@D@std@@V?$allocator@D@2@@std@@V12@U?$less@V?$basic_string@DU?$char_traits@D@std@@V?$allocator@D@2@@std@@@2@@property_tree@boost@@@std@@QAE@$$QAU01@PAPAX@Z$0 004190d0 f   * CIL library *:* CIL module *
 0001:000180d8       __unwindfunclet$??$?0V?$basic_string@DU?$char_traits@D@std@@V?$allocator@D@2@@std@@V?$basic_ptree@V?$basic_string@DU?$char_traits@D@std@@V?$allocator@D@2@@std@@V12@U?$less@V?$basic_string@DU?$char_traits@D@std@@V?$allocator@D@2@@std@@@2@@property_tree@boost@@@?$pair@V?$basic_string@DU?$char_traits@D@std@@V?$allocator@D@2@@std@@V?$basic_ptree@V?$basic_string@DU?$char_traits@D@std@@V?$allocator@D@2@@std@@V12@U?$less@V?$basic_string@DU?$char_traits@D@std@@V?$allocator@D@2@@std@@@2@@property_tree@boost@@@std@@QAE@$$QAU01@PAPAX@Z$2 004190d8 f   * CIL library *:* CIL module *
 0001:000180d8       __unwindfunclet$??$?0V?$basic_string@DU?$char_traits@D@std@@V?$allocator@D@2@@std@@V?$basic_ptree@V?$basic_string@DU?$char_traits@D@std@@V?$allocator@D@2@@std@@V12@U?$less@V?$basic_string@DU?$char_traits@D@std@@V?$allocator@D@2@@std@@@2@@property_tree@boost@@@?$pair@$$CBV?$basic_string@DU?$char_traits@D@std@@V?$allocator@D@2@@std@@V?$basic_ptree@V?$basic_string@DU?$char_traits@D@std@@V?$allocator@D@2@@std@@V12@U?$less@V?$basic_string@DU?$char_traits@D@std@@V?$allocator@D@2@@std@@@2@@property_tree@boost@@@std@@QAE@$$QAU?$pair@V?$basic_string@DU?$char_traits@D@std@@V?$allocator@D@2@@std@@V?$basic_ptree@V?$basic_string@DU?$char_traits@D@std@@V?$allocator@D@2@@std@@V12@U?$less@V?$basic_string@DU?$char_traits@D@std@@V?$allocator@D@2@@std@@@2@@property_tree@boost@@@1@PAPAX@Z$2 004190d8 f   * CIL library *:* CIL module *
 0001:000180e0       __unwindfunclet$??$?0V?$basic_string@DU?$char_traits@D@std@@V?$allocator@D@2@@std@@V?$basic_ptree@V?$basic_string@DU?$char_traits@D@std@@V?$allocator@D@2@@std@@V12@U?$less@V?$basic_string@DU?$char_traits@D@std@@V?$allocator@D@2@@std@@@2@@property_tree@boost@@@?$pair@$$CBV?$basic_string@DU?$char_traits@D@std@@V?$allocator@D@2@@std@@V?$basic_ptree@V?$basic_string@DU?$char_traits@D@std@@V?$allocator@D@2@@std@@V12@U?$less@V?$basic_string@DU?$char_traits@D@std@@V?$allocator@D@2@@std@@@2@@property_tree@boost@@@std@@QAE@$$QAU?$pair@V?$basic_string@DU?$char_traits@D@std@@V?$allocator@D@2@@std@@V?$basic_ptree@V?$basic_string@DU?$char_traits@D@std@@V?$allocator@D@2@@std@@V12@U?$less@V?$basic_string@DU?$char_traits@D@std@@V?$allocator@D@2@@std@@@2@@property_tree@boost@@@1@PAPAX@Z$3 004190e0 f   * CIL library *:* CIL module *
 0001:000180e0       __unwindfunclet$??$?0V?$basic_string@DU?$char_traits@D@std@@V?$allocator@D@2@@std@@V?$basic_ptree@V?$basic_string@DU?$char_traits@D@std@@V?$allocator@D@2@@std@@V12@U?$less@V?$basic_string@DU?$char_traits@D@std@@V?$allocator@D@2@@std@@@2@@property_tree@boost@@@?$pair@V?$basic_string@DU?$char_traits@D@std@@V?$allocator@D@2@@std@@V?$basic_ptree@V?$basic_string@DU?$char_traits@D@std@@V?$allocator@D@2@@std@@V12@U?$less@V?$basic_string@DU?$char_traits@D@std@@V?$allocator@D@2@@std@@@2@@property_tree@boost@@@std@@QAE@$$QAU01@PAPAX@Z$3 004190e0 f   * CIL library *:* CIL module *
 0001:000180ec       __ehhandler$??$?0V?$basic_string@DU?$char_traits@D@std@@V?$allocator@D@2@@std@@V?$basic_ptree@V?$basic_string@DU?$char_traits@D@std@@V?$allocator@D@2@@std@@V12@U?$less@V?$basic_string@DU?$char_traits@D@std@@V?$allocator@D@2@@std@@@2@@property_tree@boost@@@?$pair@$$CBV?$basic_string@DU?$char_traits@D@std@@V?$allocator@D@2@@std@@V?$basic_ptree@V?$basic_string@DU?$char_traits@D@std@@V?$allocator@D@2@@std@@V12@U?$less@V?$basic_string@DU?$char_traits@D@std@@V?$allocator@D@2@@std@@@2@@property_tree@boost@@@std@@QAE@$$QAU?$pair@V?$basic_string@DU?$char_traits@D@std@@V?$allocator@D@2@@std@@V?$basic_ptree@V?$basic_string@DU?$char_traits@D@std@@V?$allocator@D@2@@std@@V12@U?$less@V?$basic_string@DU?$char_traits@D@std@@V?$allocator@D@2@@std@@@2@@property_tree@boost@@@1@PAPAX@Z 004190ec f   * CIL library *:* CIL module *
 0001:000180ec       __ehhandler$??$?0V?$basic_string@DU?$char_traits@D@std@@V?$allocator@D@2@@std@@V?$basic_ptree@V?$basic_string@DU?$char_traits@D@std@@V?$allocator@D@2@@std@@V12@U?$less@V?$basic_string@DU?$char_traits@D@std@@V?$allocator@D@2@@std@@@2@@property_tree@boost@@@?$pair@V?$basic_string@DU?$char_traits@D@std@@V?$allocator@D@2@@std@@V?$basic_ptree@V?$basic_string@DU?$char_traits@D@std@@V?$allocator@D@2@@std@@V12@U?$less@V?$basic_string@DU?$char_traits@D@std@@V?$allocator@D@2@@std@@@2@@property_tree@boost@@@std@@QAE@$$QAU01@PAPAX@Z 004190ec f   * CIL library *:* CIL module *
 0001:00018110       __unwindfunclet$??$?0V?$string_path@V?$basic_string@DU?$char_traits@D@std@@V?$allocator@D@2@@std@@U?$id_translator@V?$basic_string@DU?$char_traits@D@std@@V?$allocator@D@2@@std@@@property_tree@boost@@@property_tree@boost@@@ptree_bad_path@property_tree@boost@@QAE@ABV?$basic_string@DU?$char_traits@D@std@@V?$allocator@D@2@@std@@ABV?$string_path@V?$basic_string@DU?$char_traits@D@std@@V?$allocator@D@2@@std@@U?$id_translator@V?$basic_string@DU?$char_traits@D@std@@V?$allocator@D@2@@std@@@property_tree@boost@@@12@@Z$0 00419110 f   * CIL library *:* CIL module *
 0001:00018118       __unwindfunclet$??$?0V?$string_path@V?$basic_string@DU?$char_traits@D@std@@V?$allocator@D@2@@std@@U?$id_translator@V?$basic_string@DU?$char_traits@D@std@@V?$allocator@D@2@@std@@@property_tree@boost@@@property_tree@boost@@@ptree_bad_path@property_tree@boost@@QAE@ABV?$basic_string@DU?$char_traits@D@std@@V?$allocator@D@2@@std@@ABV?$string_path@V?$basic_string@DU?$char_traits@D@std@@V?$allocator@D@2@@std@@U?$id_translator@V?$basic_string@DU?$char_traits@D@std@@V?$allocator@D@2@@std@@@property_tree@boost@@@12@@Z$1 00419118 f   * CIL library *:* CIL module *
 0001:00018120       __unwindfunclet$??$?0V?$string_path@V?$basic_string@DU?$char_traits@D@std@@V?$allocator@D@2@@std@@U?$id_translator@V?$basic_string@DU?$char_traits@D@std@@V?$allocator@D@2@@std@@@property_tree@boost@@@property_tree@boost@@@ptree_bad_path@property_tree@boost@@QAE@ABV?$basic_string@DU?$char_traits@D@std@@V?$allocator@D@2@@std@@ABV?$string_path@V?$basic_string@DU?$char_traits@D@std@@V?$allocator@D@2@@std@@U?$id_translator@V?$basic_string@DU?$char_traits@D@std@@V?$allocator@D@2@@std@@@property_tree@boost@@@12@@Z$5 00419120 f   * CIL library *:* CIL module *
 0001:0001812c       __ehhandler$??$?0V?$string_path@V?$basic_string@DU?$char_traits@D@std@@V?$allocator@D@2@@std@@U?$id_translator@V?$basic_string@DU?$char_traits@D@std@@V?$allocator@D@2@@std@@@property_tree@boost@@@property_tree@boost@@@ptree_bad_path@property_tree@boost@@QAE@ABV?$basic_string@DU?$char_traits@D@std@@V?$allocator@D@2@@std@@ABV?$string_path@V?$basic_string@DU?$char_traits@D@std@@V?$allocator@D@2@@std@@U?$id_translator@V?$basic_string@DU?$char_traits@D@std@@V?$allocator@D@2@@std@@@property_tree@boost@@@12@@Z 0041912c f   * CIL library *:* CIL module *
 0001:00018160       __unwindfunclet$??$?0V?$transform_iterator@U?$copy_iterator_rangeF@V?$basic_string@DU?$char_traits@D@std@@V?$allocator@D@2@@std@@V?$_String_iterator@V?$_String_val@U?$_Simple_types@D@std@@@std@@@2@@detail@algorithm@boost@@V?$split_iterator@V?$_String_iterator@V?$_String_val@U?$_Simple_types@D@std@@@std@@@std@@@34@Uuse_default@4@U64@@boost@@@?$vector@V?$basic_string@DU?$char_traits@D@std@@V?$allocator@D@2@@std@@V?$allocator@V?$basic_string@DU?$char_traits@D@std@@V?$allocator@D@2@@std@@@2@@std@@QAE@V?$transform_iterator@U?$copy_iterator_rangeF@V?$basic_string@DU?$char_traits@D@std@@V?$allocator@D@2@@std@@V?$_String_iterator@V?$_String_val@U?$_Simple_types@D@std@@@std@@@2@@detail@algorithm@boost@@V?$split_iterator@V?$_String_iterator@V?$_String_val@U?$_Simple_types@D@std@@@std@@@std@@@34@Uuse_default@4@U64@@boost@@0PAPAX@Z$0 00419160 f   * CIL library *:* CIL module *
 0001:00018168       __unwindfunclet$??$?0V?$transform_iterator@U?$copy_iterator_rangeF@V?$basic_string@DU?$char_traits@D@std@@V?$allocator@D@2@@std@@V?$_String_iterator@V?$_String_val@U?$_Simple_types@D@std@@@std@@@2@@detail@algorithm@boost@@V?$split_iterator@V?$_String_iterator@V?$_String_val@U?$_Simple_types@D@std@@@std@@@std@@@34@Uuse_default@4@U64@@boost@@@?$vector@V?$basic_string@DU?$char_traits@D@std@@V?$allocator@D@2@@std@@V?$allocator@V?$basic_string@DU?$char_traits@D@std@@V?$allocator@D@2@@std@@@2@@std@@QAE@V?$transform_iterator@U?$copy_iterator_rangeF@V?$basic_string@DU?$char_traits@D@std@@V?$allocator@D@2@@std@@V?$_String_iterator@V?$_String_val@U?$_Simple_types@D@std@@@std@@@2@@detail@algorithm@boost@@V?$split_iterator@V?$_String_iterator@V?$_String_val@U?$_Simple_types@D@std@@@std@@@std@@@34@Uuse_default@4@U64@@boost@@0PAPAX@Z$1 00419168 f   * CIL library *:* CIL module *
 0001:00018170       __unwindfunclet$??$?0V?$transform_iterator@U?$copy_iterator_rangeF@V?$basic_string@DU?$char_traits@D@std@@V?$allocator@D@2@@std@@V?$_String_iterator@V?$_String_val@U?$_Simple_types@D@std@@@std@@@2@@detail@algorithm@boost@@V?$split_iterator@V?$_String_iterator@V?$_String_val@U?$_Simple_types@D@std@@@std@@@std@@@34@Uuse_default@4@U64@@boost@@@?$vector@V?$basic_string@DU?$char_traits@D@std@@V?$allocator@D@2@@std@@V?$allocator@V?$basic_string@DU?$char_traits@D@std@@V?$allocator@D@2@@std@@@2@@std@@QAE@V?$transform_iterator@U?$copy_iterator_rangeF@V?$basic_string@DU?$char_traits@D@std@@V?$allocator@D@2@@std@@V?$_String_iterator@V?$_String_val@U?$_Simple_types@D@std@@@std@@@2@@detail@algorithm@boost@@V?$split_iterator@V?$_String_iterator@V?$_String_val@U?$_Simple_types@D@std@@@std@@@std@@@34@Uuse_default@4@U64@@boost@@0PAPAX@Z$2 00419170 f   * CIL library *:* CIL module *
 0001:00018178       __ehhandler$??$?0V?$transform_iterator@U?$copy_iterator_rangeF@V?$basic_string@DU?$char_traits@D@std@@V?$allocator@D@2@@std@@V?$_String_iterator@V?$_String_val@U?$_Simple_types@D@std@@@std@@@2@@detail@algorithm@boost@@V?$split_iterator@V?$_String_iterator@V?$_String_val@U?$_Simple_types@D@std@@@std@@@std@@@34@Uuse_default@4@U64@@boost@@@?$vector@V?$basic_string@DU?$char_traits@D@std@@V?$allocator@D@2@@std@@V?$allocator@V?$basic_string@DU?$char_traits@D@std@@V?$allocator@D@2@@std@@@2@@std@@QAE@V?$transform_iterator@U?$copy_iterator_rangeF@V?$basic_string@DU?$char_traits@D@std@@V?$allocator@D@2@@std@@V?$_String_iterator@V?$_String_val@U?$_Simple_types@D@std@@@std@@@2@@detail@algorithm@boost@@V?$split_iterator@V?$_String_iterator@V?$_String_val@U?$_Simple_types@D@std@@@std@@@std@@@34@Uuse_default@4@U64@@boost@@0PAPAX@Z 00419178 f   * CIL library *:* CIL module *
 0001:000181a0       __unwindfunclet$??$?5DU?$char_traits@D@std@@@std@@YAAAV?$basic_istream@DU?$char_traits@D@std@@@0@AAV10@AAD@Z$3 004191a0 f   * CIL library *:* CIL module *
 0001:000181a8       __unwindfunclet$??$?5DU?$char_traits@D@std@@@std@@YAAAV?$basic_istream@DU?$char_traits@D@std@@@0@AAV10@AAD@Z$2 004191a8 f   * CIL library *:* CIL module *
 0001:000181b0       __ehhandler$??$?5DU?$char_traits@D@std@@@std@@YAAAV?$basic_istream@DU?$char_traits@D@std@@@0@AAV10@AAD@Z 004191b0 f   * CIL library *:* CIL module *
 0001:000181d0       __unwindfunclet$??$?6DU?$char_traits@D@std@@V?$allocator@D@1@@std@@YAAAV?$basic_ostream@DU?$char_traits@D@std@@@0@AAV10@ABV?$basic_string@DU?$char_traits@D@std@@V?$allocator@D@2@@0@@Z$3 004191d0 f   * CIL library *:* CIL module *
 0001:000181d8       __unwindfunclet$??$?6DU?$char_traits@D@std@@V?$allocator@D@1@@std@@YAAAV?$basic_ostream@DU?$char_traits@D@std@@@0@AAV10@ABV?$basic_string@DU?$char_traits@D@std@@V?$allocator@D@2@@0@@Z$2 004191d8 f   * CIL library *:* CIL module *
 0001:000181e0       __ehhandler$??$?6DU?$char_traits@D@std@@V?$allocator@D@1@@std@@YAAAV?$basic_ostream@DU?$char_traits@D@std@@@0@AAV10@ABV?$basic_string@DU?$char_traits@D@std@@V?$allocator@D@2@@0@@Z 004191e0 f   * CIL library *:* CIL module *
 0001:00018200       __unwindfunclet$??$?6U?$char_traits@D@std@@@std@@YAAAV?$basic_ostream@DU?$char_traits@D@std@@@0@AAV10@PBD@Z$3 00419200 f   * CIL library *:* CIL module *
 0001:00018200       __unwindfunclet$??$?6U?$char_traits@D@std@@@std@@YAAAV?$basic_ostream@DU?$char_traits@D@std@@@0@AAV10@D@Z$3 00419200 f   * CIL library *:* CIL module *
 0001:00018208       __unwindfunclet$??$?6U?$char_traits@D@std@@@std@@YAAAV?$basic_ostream@DU?$char_traits@D@std@@@0@AAV10@PBD@Z$2 00419208 f   * CIL library *:* CIL module *
 0001:00018208       __unwindfunclet$??$?6U?$char_traits@D@std@@@std@@YAAAV?$basic_ostream@DU?$char_traits@D@std@@@0@AAV10@D@Z$2 00419208 f   * CIL library *:* CIL module *
 0001:00018210       __ehhandler$??$?6U?$char_traits@D@std@@@std@@YAAAV?$basic_ostream@DU?$char_traits@D@std@@@0@AAV10@PBD@Z 00419210 f   * CIL library *:* CIL module *
 0001:00018210       __ehhandler$??$?6U?$char_traits@D@std@@@std@@YAAAV?$basic_ostream@DU?$char_traits@D@std@@@0@AAV10@D@Z 00419210 f   * CIL library *:* CIL module *
 0001:00018230       __unwindfunclet$??$?HDU?$char_traits@D@std@@V?$allocator@D@1@@std@@YA?AV?$basic_string@DU?$char_traits@D@std@@V?$allocator@D@2@@0@ABV10@PBD@Z$0 00419230 f   * CIL library *:* CIL module *
 0001:00018249       __ehhandler$??$?HDU?$char_traits@D@std@@V?$allocator@D@1@@std@@YA?AV?$basic_string@DU?$char_traits@D@std@@V?$allocator@D@2@@0@ABV10@PBD@Z 00419249 f   * CIL library *:* CIL module *
 0001:00018270       __unwindfunclet$??$_Construct@V?$_Deque_iterator@V?$_Deque_val@U?$_Deque_simple_types@D@std@@@std@@@std@@@?$basic_string@DU?$char_traits@D@std@@V?$allocator@D@2@@std@@QAEXV?$_Deque_iterator@V?$_Deque_val@U?$_Deque_simple_types@D@std@@@std@@@1@0Uforward_iterator_tag@1@@Z$2 00419270 f   * CIL library *:* CIL module *
 0001:00018275       __unwindfunclet$??$_Construct@V?$_Deque_iterator@V?$_Deque_val@U?$_Deque_simple_types@D@std@@@std@@@std@@@?$basic_string@DU?$char_traits@D@std@@V?$allocator@D@2@@std@@QAEXV?$_Deque_iterator@V?$_Deque_val@U?$_Deque_simple_types@D@std@@@std@@@1@0Uforward_iterator_tag@1@@Z$8 00419275 f   * CIL library *:* CIL module *
 0001:0001827a       __ehhandler$??$_Construct@V?$_Deque_iterator@V?$_Deque_val@U?$_Deque_simple_types@D@std@@@std@@@std@@@?$basic_string@DU?$char_traits@D@std@@V?$allocator@D@2@@std@@QAEXV?$_Deque_iterator@V?$_Deque_val@U?$_Deque_simple_types@D@std@@@std@@@1@0Uforward_iterator_tag@1@@Z 0041927a f   * CIL library *:* CIL module *
 0001:000182a0       __ehhandler$??$_Construct@V?$_String_iterator@V?$_String_val@U?$_Simple_types@D@std@@@std@@@std@@@?$basic_string@DU?$char_traits@D@std@@V?$allocator@D@2@@std@@QAEXV?$_String_iterator@V?$_String_val@U?$_Simple_types@D@std@@@std@@@1@0Uforward_iterator_tag@1@@Z 004192a0 f   * CIL library *:* CIL module *
 0001:000182c0       __unwindfunclet$??$_Construct@V?$transform_iterator@U?$copy_iterator_rangeF@V?$basic_string@DU?$char_traits@D@std@@V?$allocator@D@2@@std@@V?$_String_iterator@V?$_String_val@U?$_Simple_types@D@std@@@std@@@2@@detail@algorithm@boost@@V?$split_iterator@V?$_String_iterator@V?$_String_val@U?$_Simple_types@D@std@@@std@@@std@@@34@Uuse_default@4@U64@@boost@@@?$vector@V?$basic_string@DU?$char_traits@D@std@@V?$allocator@D@2@@std@@V?$allocator@V?$basic_string@DU?$char_traits@D@std@@V?$allocator@D@2@@std@@@2@@std@@QAEXV?$transform_iterator@U?$copy_iterator_rangeF@V?$basic_string@DU?$char_traits@D@std@@V?$allocator@D@2@@std@@V?$_String_iterator@V?$_String_val@U?$_Simple_types@D@std@@@std@@@2@@detail@algorithm@boost@@V?$split_iterator@V?$_String_iterator@V?$_String_val@U?$_Simple_types@D@std@@@std@@@std@@@34@Uuse_default@4@U64@@boost@@0@Z$2 004192c0 f   * CIL library *:* CIL module *
 0001:000182c8       __unwindfunclet$??$_Construct@V?$transform_iterator@U?$copy_iterator_rangeF@V?$basic_string@DU?$char_traits@D@std@@V?$allocator@D@2@@std@@V?$_String_iterator@V?$_String_val@U?$_Simple_types@D@std@@@std@@@2@@detail@algorithm@boost@@V?$split_iterator@V?$_String_iterator@V?$_String_val@U?$_Simple_types@D@std@@@std@@@std@@@34@Uuse_default@4@U64@@boost@@@?$vector@V?$basic_string@DU?$char_traits@D@std@@V?$allocator@D@2@@std@@V?$allocator@V?$basic_string@DU?$char_traits@D@std@@V?$allocator@D@2@@std@@@2@@std@@QAEXV?$transform_iterator@U?$copy_iterator_rangeF@V?$basic_string@DU?$char_traits@D@std@@V?$allocator@D@2@@std@@V?$_String_iterator@V?$_String_val@U?$_Simple_types@D@std@@@std@@@2@@detail@algorithm@boost@@V?$split_iterator@V?$_String_iterator@V?$_String_val@U?$_Simple_types@D@std@@@std@@@std@@@34@Uuse_default@4@U64@@boost@@0@Z$3 004192c8 f   * CIL library *:* CIL module *
 0001:000182d0       __unwindfunclet$??$_Construct@V?$transform_iterator@U?$copy_iterator_rangeF@V?$basic_string@DU?$char_traits@D@std@@V?$allocator@D@2@@std@@V?$_String_iterator@V?$_String_val@U?$_Simple_types@D@std@@@std@@@2@@detail@algorithm@boost@@V?$split_iterator@V?$_String_iterator@V?$_String_val@U?$_Simple_types@D@std@@@std@@@std@@@34@Uuse_default@4@U64@@boost@@@?$vector@V?$basic_string@DU?$char_traits@D@std@@V?$allocator@D@2@@std@@V?$allocator@V?$basic_string@DU?$char_traits@D@std@@V?$allocator@D@2@@std@@@2@@std@@QAEXV?$transform_iterator@U?$copy_iterator_rangeF@V?$basic_string@DU?$char_traits@D@std@@V?$allocator@D@2@@std@@V?$_String_iterator@V?$_String_val@U?$_Simple_types@D@std@@@std@@@2@@detail@algorithm@boost@@V?$split_iterator@V?$_String_iterator@V?$_String_val@U?$_Simple_types@D@std@@@std@@@std@@@34@Uuse_default@4@U64@@boost@@0@Z$4 004192d0 f   * CIL library *:* CIL module *
 0001:000182d8       __ehhandler$??$_Construct@V?$transform_iterator@U?$copy_iterator_rangeF@V?$basic_string@DU?$char_traits@D@std@@V?$allocator@D@2@@std@@V?$_String_iterator@V?$_String_val@U?$_Simple_types@D@std@@@std@@@2@@detail@algorithm@boost@@V?$split_iterator@V?$_String_iterator@V?$_String_val@U?$_Simple_types@D@std@@@std@@@std@@@34@Uuse_default@4@U64@@boost@@@?$vector@V?$basic_string@DU?$char_traits@D@std@@V?$allocator@D@2@@std@@V?$allocator@V?$basic_string@DU?$char_traits@D@std@@V?$allocator@D@2@@std@@@2@@std@@QAEXV?$transform_iterator@U?$copy_iterator_rangeF@V?$basic_string@DU?$char_traits@D@std@@V?$allocator@D@2@@std@@V?$_String_iterator@V?$_String_val@U?$_Simple_types@D@std@@@std@@@2@@detail@algorithm@boost@@V?$split_iterator@V?$_String_iterator@V?$_String_val@U?$_Simple_types@D@std@@@std@@@std@@@34@Uuse_default@4@U64@@boost@@0@Z 004192d8 f   * CIL library *:* CIL module *
 0001:00018300       __ehhandler$??$_Construct@V?$transform_iterator@U?$to_lowerF@D@detail@algorithm@boost@@V?$_String_const_iterator@V?$_String_val@U?$_Simple_types@D@std@@@std@@@std@@Uuse_default@4@U74@@boost@@@?$basic_string@DU?$char_traits@D@std@@V?$allocator@D@2@@std@@QAEXV?$transform_iterator@U?$to_lowerF@D@detail@algorithm@boost@@V?$_String_const_iterator@V?$_String_val@U?$_Simple_types@D@std@@@std@@@std@@Uuse_default@4@U74@@boost@@0Uinput_iterator_tag@1@@Z 00419300 f   * CIL library *:* CIL module *
 0001:00018320       __unwindfunclet$??$_Insert@V?$transform_iterator@U?$copy_iterator_rangeF@V?$basic_string@DU?$char_traits@D@std@@V?$allocator@D@2@@std@@V?$_String_iterator@V?$_String_val@U?$_Simple_types@D@std@@@std@@@2@@detail@algorithm@boost@@V?$split_iterator@V?$_String_iterator@V?$_String_val@U?$_Simple_types@D@std@@@std@@@std@@@34@Uuse_default@4@U64@@boost@@@?$vector@V?$basic_string@DU?$char_traits@D@std@@V?$allocator@D@2@@std@@V?$allocator@V?$basic_string@DU?$char_traits@D@std@@V?$allocator@D@2@@std@@@2@@std@@QAEXV?$_Vector_const_iterator@V?$_Vector_val@U?$_Simple_types@V?$basic_string@DU?$char_traits@D@std@@V?$allocator@D@2@@std@@@std@@@std@@@1@V?$transform_iterator@U?$copy_iterator_rangeF@V?$basic_string@DU?$char_traits@D@std@@V?$allocator@D@2@@std@@V?$_String_iterator@V?$_String_val@U?$_Simple_types@D@std@@@std@@@2@@detail@algorithm@boost@@V?$split_iterator@V?$_String_iterator@V?$_String_val@U?$_Simple_types@D@std@@@std@@@std@@@34@Uuse_default@4@U64@@boost@@1Uinput_iterator_tag@1@@Z$2 00419320 f   * CIL library *:* CIL module *
 0001:00018328       __unwindfunclet$??$_Insert@V?$transform_iterator@U?$copy_iterator_rangeF@V?$basic_string@DU?$char_traits@D@std@@V?$allocator@D@2@@std@@V?$_String_iterator@V?$_String_val@U?$_Simple_types@D@std@@@std@@@2@@detail@algorithm@boost@@V?$split_iterator@V?$_String_iterator@V?$_String_val@U?$_Simple_types@D@std@@@std@@@std@@@34@Uuse_default@4@U64@@boost@@@?$vector@V?$basic_string@DU?$char_traits@D@std@@V?$allocator@D@2@@std@@V?$allocator@V?$basic_string@DU?$char_traits@D@std@@V?$allocator@D@2@@std@@@2@@std@@QAEXV?$_Vector_const_iterator@V?$_Vector_val@U?$_Simple_types@V?$basic_string@DU?$char_traits@D@std@@V?$allocator@D@2@@std@@@std@@@std@@@1@V?$transform_iterator@U?$copy_iterator_rangeF@V?$basic_string@DU?$char_traits@D@std@@V?$allocator@D@2@@std@@V?$_String_iterator@V?$_String_val@U?$_Simple_types@D@std@@@std@@@2@@detail@algorithm@boost@@V?$split_iterator@V?$_String_iterator@V?$_String_val@U?$_Simple_types@D@std@@@std@@@std@@@34@Uuse_default@4@U64@@boost@@1Uinput_iterator_tag@1@@Z$3 00419328 f   * CIL library *:* CIL module *
 0001:00018330       __unwindfunclet$??$_Insert@V?$transform_iterator@U?$copy_iterator_rangeF@V?$basic_string@DU?$char_traits@D@std@@V?$allocator@D@2@@std@@V?$_String_iterator@V?$_String_val@U?$_Simple_types@D@std@@@std@@@2@@detail@algorithm@boost@@V?$split_iterator@V?$_String_iterator@V?$_String_val@U?$_Simple_types@D@std@@@std@@@std@@@34@Uuse_default@4@U64@@boost@@@?$vector@V?$basic_string@DU?$char_traits@D@std@@V?$allocator@D@2@@std@@V?$allocator@V?$basic_string@DU?$char_traits@D@std@@V?$allocator@D@2@@std@@@2@@std@@QAEXV?$_Vector_const_iterator@V?$_Vector_val@U?$_Simple_types@V?$basic_string@DU?$char_traits@D@std@@V?$allocator@D@2@@std@@@std@@@std@@@1@V?$transform_iterator@U?$copy_iterator_rangeF@V?$basic_string@DU?$char_traits@D@std@@V?$allocator@D@2@@std@@V?$_String_iterator@V?$_String_val@U?$_Simple_types@D@std@@@std@@@2@@detail@algorithm@boost@@V?$split_iterator@V?$_String_iterator@V?$_String_val@U?$_Simple_types@D@std@@@std@@@std@@@34@Uuse_default@4@U64@@boost@@1Uinput_iterator_tag@1@@Z$4 00419330 f   * CIL library *:* CIL module *
 0001:00018338       __ehhandler$??$_Insert@V?$transform_iterator@U?$copy_iterator_rangeF@V?$basic_string@DU?$char_traits@D@std@@V?$allocator@D@2@@std@@V?$_String_iterator@V?$_String_val@U?$_Simple_types@D@std@@@std@@@2@@detail@algorithm@boost@@V?$split_iterator@V?$_String_iterator@V?$_String_val@U?$_Simple_types@D@std@@@std@@@std@@@34@Uuse_default@4@U64@@boost@@@?$vector@V?$basic_string@DU?$char_traits@D@std@@V?$allocator@D@2@@std@@V?$allocator@V?$basic_string@DU?$char_traits@D@std@@V?$allocator@D@2@@std@@@2@@std@@QAEXV?$_Vector_const_iterator@V?$_Vector_val@U?$_Simple_types@V?$basic_string@DU?$char_traits@D@std@@V?$allocator@D@2@@std@@@std@@@std@@@1@V?$transform_iterator@U?$copy_iterator_rangeF@V?$basic_string@DU?$char_traits@D@std@@V?$allocator@D@2@@std@@V?$_String_iterator@V?$_String_val@U?$_Simple_types@D@std@@@std@@@2@@detail@algorithm@boost@@V?$split_iterator@V?$_String_iterator@V?$_String_val@U?$_Simple_types@D@std@@@std@@@std@@@34@Uuse_default@4@U64@@boost@@1Uinput_iterator_tag@1@@Z 00419338 f   * CIL library *:* CIL module *
 0001:00018360       __unwindfunclet$??$_Uninit_move@PAUmap_point_t@@PAU1@V?$allocator@Umap_point_t@@@std@@U1@@std@@YAPAUmap_point_t@@PAU1@00AAU?$_Wrap_alloc@V?$allocator@Umap_point_t@@@std@@@0@0U_Nonscalar_ptr_iterator_tag@0@@Z$2 00419360 f   * CIL library *:* CIL module *
 0001:00018365       __ehhandler$??$_Uninit_move@PAUmap_point_t@@PAU1@V?$allocator@Umap_point_t@@@std@@U1@@std@@YAPAUmap_point_t@@PAU1@00AAU?$_Wrap_alloc@V?$allocator@Umap_point_t@@@std@@@0@0U_Nonscalar_ptr_iterator_tag@0@@Z 00419365 f   * CIL library *:* CIL module *
 0001:00018380       __unwindfunclet$??$_Uninit_move@PAUzone_info_t@@PAU1@V?$allocator@Uzone_info_t@@@std@@U1@@std@@YAPAUzone_info_t@@PAU1@00AAU?$_Wrap_alloc@V?$allocator@Uzone_info_t@@@std@@@0@0U_Nonscalar_ptr_iterator_tag@0@@Z$2 00419380 f   * CIL library *:* CIL module *
 0001:00018385       __unwindfunclet$??$_Uninit_move@PAUzone_info_t@@PAU1@V?$allocator@Uzone_info_t@@@std@@U1@@std@@YAPAUzone_info_t@@PAU1@00AAU?$_Wrap_alloc@V?$allocator@Uzone_info_t@@@std@@@0@0U_Nonscalar_ptr_iterator_tag@0@@Z$3 00419385 f   * CIL library *:* CIL module *
 0001:0001838d       __unwindfunclet$??$_Uninit_move@PAUzone_info_t@@PAU1@V?$allocator@Uzone_info_t@@@std@@U1@@std@@YAPAUzone_info_t@@PAU1@00AAU?$_Wrap_alloc@V?$allocator@Uzone_info_t@@@std@@@0@0U_Nonscalar_ptr_iterator_tag@0@@Z$4 0041938d f   * CIL library *:* CIL module *
 0001:00018398       __ehhandler$??$_Uninit_move@PAUzone_info_t@@PAU1@V?$allocator@Uzone_info_t@@@std@@U1@@std@@YAPAUzone_info_t@@PAU1@00AAU?$_Wrap_alloc@V?$allocator@Uzone_info_t@@@std@@@0@0U_Nonscalar_ptr_iterator_tag@0@@Z 00419398 f   * CIL library *:* CIL module *
 0001:000183c0       __unwindfunclet$??$assign_functor@U?$token_finderF@U?$is_any_ofF@D@detail@algorithm@boost@@@detail@algorithm@boost@@@?$basic_vtable2@V?$iterator_range@V?$_String_iterator@V?$_String_val@U?$_Simple_types@D@std@@@std@@@std@@@boost@@V?$_String_iterator@V?$_String_val@U?$_Simple_types@D@std@@@std@@@std@@V34@@function@detail@boost@@ABEXU?$token_finderF@U?$is_any_ofF@D@detail@algorithm@boost@@@2algorithm@3@AATfunction_buffer@123@U?$bool_@$00@mpl@3@@Z$0 004193c0 f   * CIL library *:* CIL module *
 0001:000183c8       __unwindfunclet$??$assign_functor@U?$token_finderF@U?$is_any_ofF@D@detail@algorithm@boost@@@detail@algorithm@boost@@@?$basic_vtable2@V?$iterator_range@V?$_String_iterator@V?$_String_val@U?$_Simple_types@D@std@@@std@@@std@@@boost@@V?$_String_iterator@V?$_String_val@U?$_Simple_types@D@std@@@std@@@std@@V34@@function@detail@boost@@ABEXU?$token_finderF@U?$is_any_ofF@D@detail@algorithm@boost@@@2algorithm@3@AATfunction_buffer@123@U?$bool_@$00@mpl@3@@Z$1 004193c8 f   * CIL library *:* CIL module *
 0001:000183cd       __ehhandler$??$assign_functor@U?$token_finderF@U?$is_any_ofF@D@detail@algorithm@boost@@@detail@algorithm@boost@@@?$basic_vtable2@V?$iterator_range@V?$_String_iterator@V?$_String_val@U?$_Simple_types@D@std@@@std@@@std@@@boost@@V?$_String_iterator@V?$_String_val@U?$_Simple_types@D@std@@@std@@@std@@V34@@function@detail@boost@@ABEXU?$token_finderF@U?$is_any_ofF@D@detail@algorithm@boost@@@2algorithm@3@AATfunction_buffer@123@U?$bool_@$00@mpl@3@@Z 004193cd f   * CIL library *:* CIL module *
 0001:000183f0       __unwindfunclet$??$assign_to@U?$token_finderF@U?$is_any_ofF@D@detail@algorithm@boost@@@detail@algorithm@boost@@@?$basic_vtable2@V?$iterator_range@V?$_String_iterator@V?$_String_val@U?$_Simple_types@D@std@@@std@@@std@@@boost@@V?$_String_iterator@V?$_String_val@U?$_Simple_types@D@std@@@std@@@std@@V34@@function@detail@boost@@ABE_NU?$token_finderF@U?$is_any_ofF@D@detail@algorithm@boost@@@2algorithm@3@AATfunction_buffer@123@Ufunction_obj_tag@123@@Z$0 004193f0 f   * CIL library *:* CIL module *
 0001:000183f0       __unwindfunclet$??$assign_to@U?$token_finderF@U?$is_any_ofF@D@detail@algorithm@boost@@@detail@algorithm@boost@@@?$function2@V?$iterator_range@V?$_String_iterator@V?$_String_val@U?$_Simple_types@D@std@@@std@@@std@@@boost@@V?$_String_iterator@V?$_String_val@U?$_Simple_types@D@std@@@std@@@std@@V34@@boost@@AAEXU?$token_finderF@U?$is_any_ofF@D@detail@algorithm@boost@@@detail@algorithm@1@@Z$0 004193f0 f   * CIL library *:* CIL module *
 0001:000183f0       __unwindfunclet$??$?0U?$token_finderF@U?$is_any_ofF@D@detail@algorithm@boost@@@detail@algorithm@boost@@@?$function2@V?$iterator_range@V?$_String_iterator@V?$_String_val@U?$_Simple_types@D@std@@@std@@@std@@@boost@@V?$_String_iterator@V?$_String_val@U?$_Simple_types@D@std@@@std@@@std@@V34@@boost@@QAE@U?$token_finderF@U?$is_any_ofF@D@detail@algorithm@boost@@@detail@algorithm@1@H@Z$0 004193f0 f   * CIL library *:* CIL module *
 0001:000183f0       __unwindfunclet$??$?0U?$token_finderF@U?$is_any_ofF@D@detail@algorithm@boost@@@detail@algorithm@boost@@@?$find_iterator_base@V?$_String_iterator@V?$_String_val@U?$_Simple_types@D@std@@@std@@@std@@@detail@algorithm@boost@@IAE@U?$token_finderF@U?$is_any_ofF@D@detail@algorithm@boost@@@123@H@Z$0 004193f0 f   * CIL library *:* CIL module *
 0001:000183f0       __unwindfunclet$??$assign_to@U?$token_finderF@U?$is_any_ofF@D@detail@algorithm@boost@@@detail@algorithm@boost@@@?$basic_vtable2@V?$iterator_range@V?$_String_iterator@V?$_String_val@U?$_Simple_types@D@std@@@std@@@std@@@boost@@V?$_String_iterator@V?$_String_val@U?$_Simple_types@D@std@@@std@@@std@@V34@@function@detail@boost@@QBE_NU?$token_finderF@U?$is_any_ofF@D@detail@algorithm@boost@@@2algorithm@3@AATfunction_buffer@123@@Z$0 004193f0 f   * CIL library *:* CIL module *
 0001:000183f8       __ehhandler$??$assign_to@U?$token_finderF@U?$is_any_ofF@D@detail@algorithm@boost@@@detail@algorithm@boost@@@?$basic_vtable2@V?$iterator_range@V?$_String_iterator@V?$_String_val@U?$_Simple_types@D@std@@@std@@@std@@@boost@@V?$_String_iterator@V?$_String_val@U?$_Simple_types@D@std@@@std@@@std@@V34@@function@detail@boost@@ABE_NU?$token_finderF@U?$is_any_ofF@D@detail@algorithm@boost@@@2algorithm@3@AATfunction_buffer@123@Ufunction_obj_tag@123@@Z 004193f8 f   * CIL library *:* CIL module *
 0001:000183f8       __ehhandler$??$?0U?$token_finderF@U?$is_any_ofF@D@detail@algorithm@boost@@@detail@algorithm@boost@@@?$find_iterator_base@V?$_String_iterator@V?$_String_val@U?$_Simple_types@D@std@@@std@@@std@@@detail@algorithm@boost@@IAE@U?$token_finderF@U?$is_any_ofF@D@detail@algorithm@boost@@@123@H@Z 004193f8 f   * CIL library *:* CIL module *
 0001:000183f8       __ehhandler$??$assign_to@U?$token_finderF@U?$is_any_ofF@D@detail@algorithm@boost@@@detail@algorithm@boost@@@?$function2@V?$iterator_range@V?$_String_iterator@V?$_String_val@U?$_Simple_types@D@std@@@std@@@std@@@boost@@V?$_String_iterator@V?$_String_val@U?$_Simple_types@D@std@@@std@@@std@@V34@@boost@@AAEXU?$token_finderF@U?$is_any_ofF@D@detail@algorithm@boost@@@detail@algorithm@1@@Z 004193f8 f   * CIL library *:* CIL module *
 0001:000183f8       __ehhandler$??$?0U?$token_finderF@U?$is_any_ofF@D@detail@algorithm@boost@@@detail@algorithm@boost@@@?$function2@V?$iterator_range@V?$_String_iterator@V?$_String_val@U?$_Simple_types@D@std@@@std@@@std@@@boost@@V?$_String_iterator@V?$_String_val@U?$_Simple_types@D@std@@@std@@@std@@V34@@boost@@QAE@U?$token_finderF@U?$is_any_ofF@D@detail@algorithm@boost@@@detail@algorithm@1@H@Z 004193f8 f   * CIL library *:* CIL module *
 0001:000183f8       __ehhandler$??$assign_to@U?$token_finderF@U?$is_any_ofF@D@detail@algorithm@boost@@@detail@algorithm@boost@@@?$basic_vtable2@V?$iterator_range@V?$_String_iterator@V?$_String_val@U?$_Simple_types@D@std@@@std@@@std@@@boost@@V?$_String_iterator@V?$_String_val@U?$_Simple_types@D@std@@@std@@@std@@V34@@function@detail@boost@@QBE_NU?$token_finderF@U?$is_any_ofF@D@detail@algorithm@boost@@@2algorithm@3@AATfunction_buffer@123@@Z 004193f8 f   * CIL library *:* CIL module *
 0001:00018420       __unwindfunclet$??$enable_error_info@U?$error_info_injector@Vini_parser_error@ini_parser@property_tree@boost@@@exception_detail@boost@@@boost@@YA?AU?$error_info_injector@Vini_parser_error@ini_parser@property_tree@boost@@@exception_detail@0@ABU120@@Z$1 00419420 f   * CIL library *:* CIL module *
 0001:00018428       __ehhandler$??$enable_error_info@U?$error_info_injector@Vini_parser_error@ini_parser@property_tree@boost@@@exception_detail@boost@@@boost@@YA?AU?$error_info_injector@Vini_parser_error@ini_parser@property_tree@boost@@@exception_detail@0@ABU120@@Z 00419428 f   * CIL library *:* CIL module *
 0001:00018450       __unwindfunclet$??$find_format_all_copy_impl2@V?$basic_string@DU?$char_traits@D@std@@V?$allocator@D@2@@std@@U?$first_finderF@PBDUis_equal@algorithm@boost@@@detail@algorithm@boost@@U?$const_formatF@V?$iterator_range@PBD@boost@@@456@V?$iterator_range@V?$_String_const_iterator@V?$_String_val@U?$_Simple_types@D@std@@@std@@@std@@@6@V?$iterator_range@PBD@6@@detail@algorithm@boost@@YA?AV?$basic_string@DU?$char_traits@D@std@@V?$allocator@D@2@@std@@ABV34@U?$first_finderF@PBDUis_equal@algorithm@boost@@@012@U?$const_formatF@V?$iterator_range@PBD@boost@@@012@ABV?$iterator_range@V?$_String_const_iterator@V?$_String_val@U?$_Simple_types@D@std@@@std@@@std@@@2@ABV?$iterator_range@PBD@2@@Z$0 00419450 f   * CIL library *:* CIL module *
 0001:00018469       __ehhandler$??$find_format_all_copy_impl2@V?$basic_string@DU?$char_traits@D@std@@V?$allocator@D@2@@std@@U?$first_finderF@PBDUis_equal@algorithm@boost@@@detail@algorithm@boost@@U?$const_formatF@V?$iterator_range@PBD@boost@@@456@V?$iterator_range@V?$_String_const_iterator@V?$_String_val@U?$_Simple_types@D@std@@@std@@@std@@@6@V?$iterator_range@PBD@6@@detail@algorithm@boost@@YA?AV?$basic_string@DU?$char_traits@D@std@@V?$allocator@D@2@@std@@ABV34@U?$first_finderF@PBDUis_equal@algorithm@boost@@@012@U?$const_formatF@V?$iterator_range@PBD@boost@@@012@ABV?$iterator_range@V?$_String_const_iterator@V?$_String_val@U?$_Simple_types@D@std@@@std@@@std@@@2@ABV?$iterator_range@PBD@2@@Z 00419469 f   * CIL library *:* CIL module *
 0001:00018490       __unwindfunclet$??$find_format_all_impl2@V?$basic_string@DU?$char_traits@D@std@@V?$allocator@D@2@@std@@U?$first_finderF@PBDUis_equal@algorithm@boost@@@detail@algorithm@boost@@U?$const_formatF@V?$iterator_range@PBD@boost@@@456@V?$iterator_range@V?$_String_iterator@V?$_String_val@U?$_Simple_types@D@std@@@std@@@std@@@6@V?$iterator_range@PBD@6@@detail@algorithm@boost@@YAXAAV?$basic_string@DU?$char_traits@D@std@@V?$allocator@D@2@@std@@U?$first_finderF@PBDUis_equal@algorithm@boost@@@012@U?$const_formatF@V?$iterator_range@PBD@boost@@@012@V?$iterator_range@V?$_String_iterator@V?$_String_val@U?$_Simple_types@D@std@@@std@@@std@@@2@V?$iterator_range@PBD@2@@Z$0 00419490 f   * CIL library *:* CIL module *
 0001:00018498       __ehhandler$??$find_format_all_impl2@V?$basic_string@DU?$char_traits@D@std@@V?$allocator@D@2@@std@@U?$first_finderF@PBDUis_equal@algorithm@boost@@@detail@algorithm@boost@@U?$const_formatF@V?$iterator_range@PBD@boost@@@456@V?$iterator_range@V?$_String_iterator@V?$_String_val@U?$_Simple_types@D@std@@@std@@@std@@@6@V?$iterator_range@PBD@6@@detail@algorithm@boost@@YAXAAV?$basic_string@DU?$char_traits@D@std@@V?$allocator@D@2@@std@@U?$first_finderF@PBDUis_equal@algorithm@boost@@@012@U?$const_formatF@V?$iterator_range@PBD@boost@@@012@V?$iterator_range@V?$_String_iterator@V?$_String_val@U?$_Simple_types@D@std@@@std@@@std@@@2@V?$iterator_range@PBD@2@@Z 00419498 f   * CIL library *:* CIL module *
 0001:000184c0       __unwindfunclet$??$get@V?$basic_string@DU?$char_traits@D@std@@V?$allocator@D@2@@std@@@?$basic_ptree@V?$basic_string@DU?$char_traits@D@std@@V?$allocator@D@2@@std@@V12@U?$less@V?$basic_string@DU?$char_traits@D@std@@V?$allocator@D@2@@std@@@2@@property_tree@boost@@QBE?AV?$basic_string@DU?$char_traits@D@std@@V?$allocator@D@2@@std@@ABV?$string_path@V?$basic_string@DU?$char_traits@D@std@@V?$allocator@D@2@@std@@U?$id_translator@V?$basic_string@DU?$char_traits@D@std@@V?$allocator@D@2@@std@@@property_tree@boost@@@12@ABV34@@Z$0 004194c0 f   * CIL library *:* CIL module *
 0001:000184c8       __ehhandler$??$get@V?$basic_string@DU?$char_traits@D@std@@V?$allocator@D@2@@std@@@?$basic_ptree@V?$basic_string@DU?$char_traits@D@std@@V?$allocator@D@2@@std@@V12@U?$less@V?$basic_string@DU?$char_traits@D@std@@V?$allocator@D@2@@std@@@2@@property_tree@boost@@QBE?AV?$basic_string@DU?$char_traits@D@std@@V?$allocator@D@2@@std@@ABV?$string_path@V?$basic_string@DU?$char_traits@D@std@@V?$allocator@D@2@@std@@U?$id_translator@V?$basic_string@DU?$char_traits@D@std@@V?$allocator@D@2@@std@@@property_tree@boost@@@12@ABV34@@Z 004194c8 f   * CIL library *:* CIL module *
 0001:000184f0       __unwindfunclet$??$get_optional@V?$basic_string@DU?$char_traits@D@std@@V?$allocator@D@2@@std@@@?$basic_ptree@V?$basic_string@DU?$char_traits@D@std@@V?$allocator@D@2@@std@@V12@U?$less@V?$basic_string@DU?$char_traits@D@std@@V?$allocator@D@2@@std@@@2@@property_tree@boost@@QBE?AV?$optional@V?$basic_string@DU?$char_traits@D@std@@V?$allocator@D@2@@std@@@2@ABV?$string_path@V?$basic_string@DU?$char_traits@D@std@@V?$allocator@D@2@@std@@U?$id_translator@V?$basic_string@DU?$char_traits@D@std@@V?$allocator@D@2@@std@@@property_tree@boost@@@12@@Z$0 004194f0 f   * CIL library *:* CIL module *
 0001:000184f0       __unwindfunclet$??$get_optional@_N@?$basic_ptree@V?$basic_string@DU?$char_traits@D@std@@V?$allocator@D@2@@std@@V12@U?$less@V?$basic_string@DU?$char_traits@D@std@@V?$allocator@D@2@@std@@@2@@property_tree@boost@@QBE?AV?$optional@_N@2@ABV?$string_path@V?$basic_string@DU?$char_traits@D@std@@V?$allocator@D@2@@std@@U?$id_translator@V?$basic_string@DU?$char_traits@D@std@@V?$allocator@D@2@@std@@@property_tree@boost@@@12@@Z$0 004194f0 f   * CIL library *:* CIL module *
 0001:000184f0       __unwindfunclet$??$get_optional@H@?$basic_ptree@V?$basic_string@DU?$char_traits@D@std@@V?$allocator@D@2@@std@@V12@U?$less@V?$basic_string@DU?$char_traits@D@std@@V?$allocator@D@2@@std@@@2@@property_tree@boost@@QBE?AV?$optional@H@2@ABV?$string_path@V?$basic_string@DU?$char_traits@D@std@@V?$allocator@D@2@@std@@U?$id_translator@V?$basic_string@DU?$char_traits@D@std@@V?$allocator@D@2@@std@@@property_tree@boost@@@12@@Z$0 004194f0 f   * CIL library *:* CIL module *
 0001:000184f8       __ehhandler$??$get_optional@_N@?$basic_ptree@V?$basic_string@DU?$char_traits@D@std@@V?$allocator@D@2@@std@@V12@U?$less@V?$basic_string@DU?$char_traits@D@std@@V?$allocator@D@2@@std@@@2@@property_tree@boost@@QBE?AV?$optional@_N@2@ABV?$string_path@V?$basic_string@DU?$char_traits@D@std@@V?$allocator@D@2@@std@@U?$id_translator@V?$basic_string@DU?$char_traits@D@std@@V?$allocator@D@2@@std@@@property_tree@boost@@@12@@Z 004194f8 f   * CIL library *:* CIL module *
 0001:000184f8       __ehhandler$??$get_optional@V?$basic_string@DU?$char_traits@D@std@@V?$allocator@D@2@@std@@@?$basic_ptree@V?$basic_string@DU?$char_traits@D@std@@V?$allocator@D@2@@std@@V12@U?$less@V?$basic_string@DU?$char_traits@D@std@@V?$allocator@D@2@@std@@@2@@property_tree@boost@@QBE?AV?$optional@V?$basic_string@DU?$char_traits@D@std@@V?$allocator@D@2@@std@@@2@ABV?$string_path@V?$basic_string@DU?$char_traits@D@std@@V?$allocator@D@2@@std@@U?$id_translator@V?$basic_string@DU?$char_traits@D@std@@V?$allocator@D@2@@std@@@property_tree@boost@@@12@@Z 004194f8 f   * CIL library *:* CIL module *
 0001:000184f8       __ehhandler$??$get_optional@H@?$basic_ptree@V?$basic_string@DU?$char_traits@D@std@@V?$allocator@D@2@@std@@V12@U?$less@V?$basic_string@DU?$char_traits@D@std@@V?$allocator@D@2@@std@@@2@@property_tree@boost@@QBE?AV?$optional@H@2@ABV?$string_path@V?$basic_string@DU?$char_traits@D@std@@V?$allocator@D@2@@std@@U?$id_translator@V?$basic_string@DU?$char_traits@D@std@@V?$allocator@D@2@@std@@@property_tree@boost@@@12@@Z 004194f8 f   * CIL library *:* CIL module *
 0001:00018520       __unwindfunclet$??$get_value_optional@H@?$basic_ptree@V?$basic_string@DU?$char_traits@D@std@@V?$allocator@D@2@@std@@V12@U?$less@V?$basic_string@DU?$char_traits@D@std@@V?$allocator@D@2@@std@@@2@@property_tree@boost@@QBE?AV?$optional@H@2@XZ$1 00419520 f   * CIL library *:* CIL module *
 0001:00018520       __unwindfunclet$??$get_value_optional@_N@?$basic_ptree@V?$basic_string@DU?$char_traits@D@std@@V?$allocator@D@2@@std@@V12@U?$less@V?$basic_string@DU?$char_traits@D@std@@V?$allocator@D@2@@std@@@2@@property_tree@boost@@QBE?AV?$optional@_N@2@XZ$1 00419520 f   * CIL library *:* CIL module *
 0001:00018528       __ehhandler$??$get_value_optional@H@?$basic_ptree@V?$basic_string@DU?$char_traits@D@std@@V?$allocator@D@2@@std@@V12@U?$less@V?$basic_string@DU?$char_traits@D@std@@V?$allocator@D@2@@std@@@2@@property_tree@boost@@QBE?AV?$optional@H@2@XZ 00419528 f   * CIL library *:* CIL module *
 0001:00018528       __ehhandler$??$get_value_optional@_N@?$basic_ptree@V?$basic_string@DU?$char_traits@D@std@@V?$allocator@D@2@@std@@V12@U?$less@V?$basic_string@DU?$char_traits@D@std@@V?$allocator@D@2@@std@@@2@@property_tree@boost@@QBE?AV?$optional@_N@2@XZ 00419528 f   * CIL library *:* CIL module *
 0001:00018550       __unwindfunclet$??$get_value_optional@_NV?$stream_translator@DU?$char_traits@D@std@@V?$allocator@D@2@_N@property_tree@boost@@@?$basic_ptree@V?$basic_string@DU?$char_traits@D@std@@V?$allocator@D@2@@std@@V12@U?$less@V?$basic_string@DU?$char_traits@D@std@@V?$allocator@D@2@@std@@@2@@property_tree@boost@@QBE?AV?$optional@_N@2@V?$stream_translator@DU?$char_traits@D@std@@V?$allocator@D@2@_N@12@@Z$0 00419550 f   * CIL library *:* CIL module *
 0001:00018550       __unwindfunclet$??$get_value_optional@HV?$stream_translator@DU?$char_traits@D@std@@V?$allocator@D@2@H@property_tree@boost@@@?$basic_ptree@V?$basic_string@DU?$char_traits@D@std@@V?$allocator@D@2@@std@@V12@U?$less@V?$basic_string@DU?$char_traits@D@std@@V?$allocator@D@2@@std@@@2@@property_tree@boost@@QBE?AV?$optional@H@2@V?$stream_translator@DU?$char_traits@D@std@@V?$allocator@D@2@H@12@@Z$0 00419550 f   * CIL library *:* CIL module *
 0001:00018558       __ehhandler$??$get_value_optional@HV?$stream_translator@DU?$char_traits@D@std@@V?$allocator@D@2@H@property_tree@boost@@@?$basic_ptree@V?$basic_string@DU?$char_traits@D@std@@V?$allocator@D@2@@std@@V12@U?$less@V?$basic_string@DU?$char_traits@D@std@@V?$allocator@D@2@@std@@@2@@property_tree@boost@@QBE?AV?$optional@H@2@V?$stream_translator@DU?$char_traits@D@std@@V?$allocator@D@2@H@12@@Z 00419558 f   * CIL library *:* CIL module *
 0001:00018558       __ehhandler$??$get_value_optional@_NV?$stream_translator@DU?$char_traits@D@std@@V?$allocator@D@2@_N@property_tree@boost@@@?$basic_ptree@V?$basic_string@DU?$char_traits@D@std@@V?$allocator@D@2@@std@@V12@U?$less@V?$basic_string@DU?$char_traits@D@std@@V?$allocator@D@2@@std@@@2@@property_tree@boost@@QBE?AV?$optional@_N@2@V?$stream_translator@DU?$char_traits@D@std@@V?$allocator@D@2@_N@12@@Z 00419558 f   * CIL library *:* CIL module *
 0001:00018580       __unwindfunclet$??$getline@DU?$char_traits@D@std@@V?$allocator@D@2@@std@@YAAAV?$basic_istream@DU?$char_traits@D@std@@@0@$$QAV10@AAV?$basic_string@DU?$char_traits@D@std@@V?$allocator@D@2@@0@D@Z$3 00419580 f   * CIL library *:* CIL module *
 0001:00018588       __unwindfunclet$??$getline@DU?$char_traits@D@std@@V?$allocator@D@2@@std@@YAAAV?$basic_istream@DU?$char_traits@D@std@@@0@$$QAV10@AAV?$basic_string@DU?$char_traits@D@std@@V?$allocator@D@2@@0@D@Z$2 00419588 f   * CIL library *:* CIL module *
 0001:00018590       __ehhandler$??$getline@DU?$char_traits@D@std@@V?$allocator@D@2@@std@@YAAAV?$basic_istream@DU?$char_traits@D@std@@@0@$$QAV10@AAV?$basic_string@DU?$char_traits@D@std@@V?$allocator@D@2@@0@D@Z 00419590 f   * CIL library *:* CIL module *
 0001:000185b0       __unwindfunclet$??$insert@PBD@?$deque@DV?$allocator@D@std@@@std@@QAE?AV?$_Deque_iterator@V?$_Deque_val@U?$_Deque_simple_types@D@std@@@std@@@1@V?$_Deque_const_iterator@V?$_Deque_val@U?$_Deque_simple_types@D@std@@@std@@@1@PBD1@Z$6 004195b0 f   * CIL library *:* CIL module *
 0001:000185b5       __unwindfunclet$??$insert@PBD@?$deque@DV?$allocator@D@std@@@std@@QAE?AV?$_Deque_iterator@V?$_Deque_val@U?$_Deque_simple_types@D@std@@@std@@@1@V?$_Deque_const_iterator@V?$_Deque_val@U?$_Deque_simple_types@D@std@@@std@@@1@PBD1@Z$9 004195b5 f   * CIL library *:* CIL module *
 0001:000185ba       __unwindfunclet$??$insert@PBD@?$deque@DV?$allocator@D@std@@@std@@QAE?AV?$_Deque_iterator@V?$_Deque_val@U?$_Deque_simple_types@D@std@@@std@@@1@V?$_Deque_const_iterator@V?$_Deque_val@U?$_Deque_simple_types@D@std@@@std@@@1@PBD1@Z$10 004195ba f   * CIL library *:* CIL module *
 0001:000185bf       __ehhandler$??$insert@PBD@?$deque@DV?$allocator@D@std@@@std@@QAE?AV?$_Deque_iterator@V?$_Deque_val@U?$_Deque_simple_types@D@std@@@std@@@1@V?$_Deque_const_iterator@V?$_Deque_val@U?$_Deque_simple_types@D@std@@@std@@@1@PBD1@Z 004195bf f   * CIL library *:* CIL module *
 0001:000185e0       __unwindfunclet$??$insert@V?$_Deque_iterator@V?$_Deque_val@U?$_Deque_simple_types@D@std@@@std@@@std@@@?$basic_string@DU?$char_traits@D@std@@V?$allocator@D@2@@std@@QAE?AV?$_String_iterator@V?$_String_val@U?$_Simple_types@D@std@@@std@@@1@V?$_String_const_iterator@V?$_String_val@U?$_Simple_types@D@std@@@std@@@1@V?$_Deque_iterator@V?$_Deque_val@U?$_Deque_simple_types@D@std@@@std@@@1@1@Z$0 004195e0 f   * CIL library *:* CIL module *
 0001:000185e5       __ehhandler$??$insert@V?$_Deque_iterator@V?$_Deque_val@U?$_Deque_simple_types@D@std@@@std@@@std@@@?$basic_string@DU?$char_traits@D@std@@V?$allocator@D@2@@std@@QAE?AV?$_String_iterator@V?$_String_val@U?$_Simple_types@D@std@@@std@@@1@V?$_String_const_iterator@V?$_String_val@U?$_Simple_types@D@std@@@std@@@1@V?$_Deque_iterator@V?$_Deque_val@U?$_Deque_simple_types@D@std@@@std@@@1@1@Z 004195e5 f   * CIL library *:* CIL module *
 0001:00018600       __unwindfunclet$??$insert@V?$basic_string@DU?$char_traits@D@std@@V?$allocator@D@2@@std@@V?$_Deque_iterator@V?$_Deque_val@U?$_Deque_simple_types@D@std@@@std@@@2@@detail@algorithm@boost@@YAXAAV?$basic_string@DU?$char_traits@D@std@@V?$allocator@D@2@@std@@V?$_String_iterator@V?$_String_val@U?$_Simple_types@D@std@@@std@@@4@V?$_Deque_iterator@V?$_Deque_val@U?$_Deque_simple_types@D@std@@@std@@@4@2@Z$0 00419600 f   * CIL library *:* CIL module *
 0001:00018605       __ehhandler$??$insert@V?$basic_string@DU?$char_traits@D@std@@V?$allocator@D@2@@std@@V?$_Deque_iterator@V?$_Deque_val@U?$_Deque_simple_types@D@std@@@std@@@2@@detail@algorithm@boost@@YAXAAV?$basic_string@DU?$char_traits@D@std@@V?$allocator@D@2@@std@@V?$_String_iterator@V?$_String_val@U?$_Simple_types@D@std@@@std@@@4@V?$_Deque_iterator@V?$_Deque_val@U?$_Deque_simple_types@D@std@@@std@@@4@2@Z 00419605 f   * CIL library *:* CIL module *
 0001:00018620       __unwindfunclet$??$insert@V?$transform_iterator@U?$copy_iterator_rangeF@V?$basic_string@DU?$char_traits@D@std@@V?$allocator@D@2@@std@@V?$_String_iterator@V?$_String_val@U?$_Simple_types@D@std@@@std@@@2@@detail@algorithm@boost@@V?$split_iterator@V?$_String_iterator@V?$_String_val@U?$_Simple_types@D@std@@@std@@@std@@@34@Uuse_default@4@U64@@boost@@@?$vector@V?$basic_string@DU?$char_traits@D@std@@V?$allocator@D@2@@std@@V?$allocator@V?$basic_string@DU?$char_traits@D@std@@V?$allocator@D@2@@std@@@2@@std@@QAE?AV?$_Vector_iterator@V?$_Vector_val@U?$_Simple_types@V?$basic_string@DU?$char_traits@D@std@@V?$allocator@D@2@@std@@@std@@@std@@@1@V?$_Vector_const_iterator@V?$_Vector_val@U?$_Simple_types@V?$basic_string@DU?$char_traits@D@std@@V?$allocator@D@2@@std@@@std@@@std@@@1@V?$transform_iterator@U?$copy_iterator_rangeF@V?$basic_string@DU?$char_traits@D@std@@V?$allocator@D@2@@std@@V?$_String_iterator@V?$_String_val@U?$_Simple_types@D@std@@@std@@@2@@detail@algorithm@boost@@V?$split_iterator@V?$_String_iterator@V?$_String_val@U?$_Simple_types@D@std@@@std@@@std@@@34@Uuse_default@4@U64@@boost@@1@Z$0 00419620 f   * CIL library *:* CIL module *
 0001:00018628       __unwindfunclet$??$insert@V?$transform_iterator@U?$copy_iterator_rangeF@V?$basic_string@DU?$char_traits@D@std@@V?$allocator@D@2@@std@@V?$_String_iterator@V?$_String_val@U?$_Simple_types@D@std@@@std@@@2@@detail@algorithm@boost@@V?$split_iterator@V?$_String_iterator@V?$_String_val@U?$_Simple_types@D@std@@@std@@@std@@@34@Uuse_default@4@U64@@boost@@@?$vector@V?$basic_string@DU?$char_traits@D@std@@V?$allocator@D@2@@std@@V?$allocator@V?$basic_string@DU?$char_traits@D@std@@V?$allocator@D@2@@std@@@2@@std@@QAE?AV?$_Vector_iterator@V?$_Vector_val@U?$_Simple_types@V?$basic_string@DU?$char_traits@D@std@@V?$allocator@D@2@@std@@@std@@@std@@@1@V?$_Vector_const_iterator@V?$_Vector_val@U?$_Simple_types@V?$basic_string@DU?$char_traits@D@std@@V?$allocator@D@2@@std@@@std@@@std@@@1@V?$transform_iterator@U?$copy_iterator_rangeF@V?$basic_string@DU?$char_traits@D@std@@V?$allocator@D@2@@std@@V?$_String_iterator@V?$_String_val@U?$_Simple_types@D@std@@@std@@@2@@detail@algorithm@boost@@V?$split_iterator@V?$_String_iterator@V?$_String_val@U?$_Simple_types@D@std@@@std@@@std@@@34@Uuse_default@4@U64@@boost@@1@Z$1 00419628 f   * CIL library *:* CIL module *
 0001:00018630       __unwindfunclet$??$insert@V?$transform_iterator@U?$copy_iterator_rangeF@V?$basic_string@DU?$char_traits@D@std@@V?$allocator@D@2@@std@@V?$_String_iterator@V?$_String_val@U?$_Simple_types@D@std@@@std@@@2@@detail@algorithm@boost@@V?$split_iterator@V?$_String_iterator@V?$_String_val@U?$_Simple_types@D@std@@@std@@@std@@@34@Uuse_default@4@U64@@boost@@@?$vector@V?$basic_string@DU?$char_traits@D@std@@V?$allocator@D@2@@std@@V?$allocator@V?$basic_string@DU?$char_traits@D@std@@V?$allocator@D@2@@std@@@2@@std@@QAE?AV?$_Vector_iterator@V?$_Vector_val@U?$_Simple_types@V?$basic_string@DU?$char_traits@D@std@@V?$allocator@D@2@@std@@@std@@@std@@@1@V?$_Vector_const_iterator@V?$_Vector_val@U?$_Simple_types@V?$basic_string@DU?$char_traits@D@std@@V?$allocator@D@2@@std@@@std@@@std@@@1@V?$transform_iterator@U?$copy_iterator_rangeF@V?$basic_string@DU?$char_traits@D@std@@V?$allocator@D@2@@std@@V?$_String_iterator@V?$_String_val@U?$_Simple_types@D@std@@@std@@@2@@detail@algorithm@boost@@V?$split_iterator@V?$_String_iterator@V?$_String_val@U?$_Simple_types@D@std@@@std@@@std@@@34@Uuse_default@4@U64@@boost@@1@Z$2 00419630 f   * CIL library *:* CIL module *
 0001:00018638       __ehhandler$??$insert@V?$transform_iterator@U?$copy_iterator_rangeF@V?$basic_string@DU?$char_traits@D@std@@V?$allocator@D@2@@std@@V?$_String_iterator@V?$_String_val@U?$_Simple_types@D@std@@@std@@@2@@detail@algorithm@boost@@V?$split_iterator@V?$_String_iterator@V?$_String_val@U?$_Simple_types@D@std@@@std@@@std@@@34@Uuse_default@4@U64@@boost@@@?$vector@V?$basic_string@DU?$char_traits@D@std@@V?$allocator@D@2@@std@@V?$allocator@V?$basic_string@DU?$char_traits@D@std@@V?$allocator@D@2@@std@@@2@@std@@QAE?AV?$_Vector_iterator@V?$_Vector_val@U?$_Simple_types@V?$basic_string@DU?$char_traits@D@std@@V?$allocator@D@2@@std@@@std@@@std@@@1@V?$_Vector_const_iterator@V?$_Vector_val@U?$_Simple_types@V?$basic_string@DU?$char_traits@D@std@@V?$allocator@D@2@@std@@@std@@@std@@@1@V?$transform_iterator@U?$copy_iterator_rangeF@V?$basic_string@DU?$char_traits@D@std@@V?$allocator@D@2@@std@@V?$_String_iterator@V?$_String_val@U?$_Simple_types@D@std@@@std@@@2@@detail@algorithm@boost@@V?$split_iterator@V?$_String_iterator@V?$_String_val@U?$_Simple_types@D@std@@@std@@@std@@@34@Uuse_default@4@U64@@boost@@1@Z 00419638 f   * CIL library *:* CIL module *
 0001:00018660       __unwindfunclet$??$iter_split@V?$vector@V?$basic_string@DU?$char_traits@D@std@@V?$allocator@D@2@@std@@V?$allocator@V?$basic_string@DU?$char_traits@D@std@@V?$allocator@D@2@@std@@@2@@std@@V?$basic_string@DU?$char_traits@D@std@@V?$allocator@D@2@@2@U?$token_finderF@U?$is_any_ofF@D@detail@algorithm@boost@@@detail@algorithm@boost@@@algorithm@boost@@YAAAV?$vector@V?$basic_string@DU?$char_traits@D@std@@V?$allocator@D@2@@std@@V?$allocator@V?$basic_string@DU?$char_traits@D@std@@V?$allocator@D@2@@std@@@2@@std@@AAV23@AAV?$basic_string@DU?$char_traits@D@std@@V?$allocator@D@2@@3@U?$token_finderF@U?$is_any_ofF@D@detail@algorithm@boost@@@detail@01@@Z$0 00419660 f   * CIL library *:* CIL module *
 0001:00018668       __unwindfunclet$??$iter_split@V?$vector@V?$basic_string@DU?$char_traits@D@std@@V?$allocator@D@2@@std@@V?$allocator@V?$basic_string@DU?$char_traits@D@std@@V?$allocator@D@2@@std@@@2@@std@@V?$basic_string@DU?$char_traits@D@std@@V?$allocator@D@2@@2@U?$token_finderF@U?$is_any_ofF@D@detail@algorithm@boost@@@detail@algorithm@boost@@@algorithm@boost@@YAAAV?$vector@V?$basic_string@DU?$char_traits@D@std@@V?$allocator@D@2@@std@@V?$allocator@V?$basic_string@DU?$char_traits@D@std@@V?$allocator@D@2@@std@@@2@@std@@AAV23@AAV?$basic_string@DU?$char_traits@D@std@@V?$allocator@D@2@@3@U?$token_finderF@U?$is_any_ofF@D@detail@algorithm@boost@@@detail@01@@Z$2 00419668 f   * CIL library *:* CIL module *
 0001:00018673       __unwindfunclet$??$iter_split@V?$vector@V?$basic_string@DU?$char_traits@D@std@@V?$allocator@D@2@@std@@V?$allocator@V?$basic_string@DU?$char_traits@D@std@@V?$allocator@D@2@@std@@@2@@std@@V?$basic_string@DU?$char_traits@D@std@@V?$allocator@D@2@@2@U?$token_finderF@U?$is_any_ofF@D@detail@algorithm@boost@@@detail@algorithm@boost@@@algorithm@boost@@YAAAV?$vector@V?$basic_string@DU?$char_traits@D@std@@V?$allocator@D@2@@std@@V?$allocator@V?$basic_string@DU?$char_traits@D@std@@V?$allocator@D@2@@std@@@2@@std@@AAV23@AAV?$basic_string@DU?$char_traits@D@std@@V?$allocator@D@2@@3@U?$token_finderF@U?$is_any_ofF@D@detail@algorithm@boost@@@detail@01@@Z$4 00419673 f   * CIL library *:* CIL module *
 0001:0001867e       __unwindfunclet$??$iter_split@V?$vector@V?$basic_string@DU?$char_traits@D@std@@V?$allocator@D@2@@std@@V?$allocator@V?$basic_string@DU?$char_traits@D@std@@V?$allocator@D@2@@std@@@2@@std@@V?$basic_string@DU?$char_traits@D@std@@V?$allocator@D@2@@2@U?$token_finderF@U?$is_any_ofF@D@detail@algorithm@boost@@@detail@algorithm@boost@@@algorithm@boost@@YAAAV?$vector@V?$basic_string@DU?$char_traits@D@std@@V?$allocator@D@2@@std@@V?$allocator@V?$basic_string@DU?$char_traits@D@std@@V?$allocator@D@2@@std@@@2@@std@@AAV23@AAV?$basic_string@DU?$char_traits@D@std@@V?$allocator@D@2@@3@U?$token_finderF@U?$is_any_ofF@D@detail@algorithm@boost@@@detail@01@@Z$6 0041967e f   * CIL library *:* CIL module *
 0001:00018686       __unwindfunclet$??$iter_split@V?$vector@V?$basic_string@DU?$char_traits@D@std@@V?$allocator@D@2@@std@@V?$allocator@V?$basic_string@DU?$char_traits@D@std@@V?$allocator@D@2@@std@@@2@@std@@V?$basic_string@DU?$char_traits@D@std@@V?$allocator@D@2@@2@U?$token_finderF@U?$is_any_ofF@D@detail@algorithm@boost@@@detail@algorithm@boost@@@algorithm@boost@@YAAAV?$vector@V?$basic_string@DU?$char_traits@D@std@@V?$allocator@D@2@@std@@V?$allocator@V?$basic_string@DU?$char_traits@D@std@@V?$allocator@D@2@@std@@@2@@std@@AAV23@AAV?$basic_string@DU?$char_traits@D@std@@V?$allocator@D@2@@3@U?$token_finderF@U?$is_any_ofF@D@detail@algorithm@boost@@@detail@01@@Z$7 00419686 f   * CIL library *:* CIL module *
 0001:0001868e       __unwindfunclet$??$iter_split@V?$vector@V?$basic_string@DU?$char_traits@D@std@@V?$allocator@D@2@@std@@V?$allocator@V?$basic_string@DU?$char_traits@D@std@@V?$allocator@D@2@@std@@@2@@std@@V?$basic_string@DU?$char_traits@D@std@@V?$allocator@D@2@@2@U?$token_finderF@U?$is_any_ofF@D@detail@algorithm@boost@@@detail@algorithm@boost@@@algorithm@boost@@YAAAV?$vector@V?$basic_string@DU?$char_traits@D@std@@V?$allocator@D@2@@std@@V?$allocator@V?$basic_string@DU?$char_traits@D@std@@V?$allocator@D@2@@std@@@2@@std@@AAV23@AAV?$basic_string@DU?$char_traits@D@std@@V?$allocator@D@2@@3@U?$token_finderF@U?$is_any_ofF@D@detail@algorithm@boost@@@detail@01@@Z$9 0041968e f   * CIL library *:* CIL module *
 0001:00018696       __ehhandler$??$iter_split@V?$vector@V?$basic_string@DU?$char_traits@D@std@@V?$allocator@D@2@@std@@V?$allocator@V?$basic_string@DU?$char_traits@D@std@@V?$allocator@D@2@@std@@@2@@std@@V?$basic_string@DU?$char_traits@D@std@@V?$allocator@D@2@@2@U?$token_finderF@U?$is_any_ofF@D@detail@algorithm@boost@@@detail@algorithm@boost@@@algorithm@boost@@YAAAV?$vector@V?$basic_string@DU?$char_traits@D@std@@V?$allocator@D@2@@std@@V?$allocator@V?$basic_string@DU?$char_traits@D@std@@V?$allocator@D@2@@std@@@2@@std@@AAV23@AAV?$basic_string@DU?$char_traits@D@std@@V?$allocator@D@2@@3@U?$token_finderF@U?$is_any_ofF@D@detail@algorithm@boost@@@detail@01@@Z 00419696 f   * CIL library *:* CIL module *
 0001:000186c0       __unwindfunclet$??$lcast_ret_float@U?$char_traits@D@std@@MD@detail@boost@@YA_NAAMPBD1@Z$0 004196c0 f   * CIL library *:* CIL module *
 0001:000186c8       __unwindfunclet$??$lcast_ret_float@U?$char_traits@D@std@@MD@detail@boost@@YA_NAAMPBD1@Z$1 004196c8 f   * CIL library *:* CIL module *
 0001:000186e1       __unwindfunclet$??$lcast_ret_float@U?$char_traits@D@std@@MD@detail@boost@@YA_NAAMPBD1@Z$3 004196e1 f   * CIL library *:* CIL module *
 0001:000186e9       __ehhandler$??$lcast_ret_float@U?$char_traits@D@std@@MD@detail@boost@@YA_NAAMPBD1@Z 004196e9 f   * CIL library *:* CIL module *
 0001:00018720       __unwindfunclet$??$lcast_ret_unsigned@U?$char_traits@D@std@@ID@detail@boost@@YA_NAAIQBDPBD@Z$0 00419720 f   * CIL library *:* CIL module *
 0001:00018728       __unwindfunclet$??$lcast_ret_unsigned@U?$char_traits@D@std@@ID@detail@boost@@YA_NAAIQBDPBD@Z$1 00419728 f   * CIL library *:* CIL module *
 0001:00018730       __ehhandler$??$lcast_ret_unsigned@U?$char_traits@D@std@@ID@detail@boost@@YA_NAAIQBDPBD@Z 00419730 f   * CIL library *:* CIL module *
 0001:00018760       __unwindfunclet$??$make_pair@AAV?$basic_string@DU?$char_traits@D@std@@V?$allocator@D@2@@std@@V?$basic_ptree@V?$basic_string@DU?$char_traits@D@std@@V?$allocator@D@2@@std@@V12@U?$less@V?$basic_string@DU?$char_traits@D@std@@V?$allocator@D@2@@std@@@2@@property_tree@boost@@@std@@YA?AU?$pair@V?$basic_string@DU?$char_traits@D@std@@V?$allocator@D@2@@std@@V?$basic_ptree@V?$basic_string@DU?$char_traits@D@std@@V?$allocator@D@2@@std@@V12@U?$less@V?$basic_string@DU?$char_traits@D@std@@V?$allocator@D@2@@std@@@2@@property_tree@boost@@@0@AAV?$basic_string@DU?$char_traits@D@std@@V?$allocator@D@2@@0@$$QAV?$basic_ptree@V?$basic_string@DU?$char_traits@D@std@@V?$allocator@D@2@@std@@V12@U?$less@V?$basic_string@DU?$char_traits@D@std@@V?$allocator@D@2@@std@@@2@@property_tree@boost@@@Z$0 00419760 f   * CIL library *:* CIL module *
 0001:00018768       __unwindfunclet$??$make_pair@AAV?$basic_string@DU?$char_traits@D@std@@V?$allocator@D@2@@std@@V?$basic_ptree@V?$basic_string@DU?$char_traits@D@std@@V?$allocator@D@2@@std@@V12@U?$less@V?$basic_string@DU?$char_traits@D@std@@V?$allocator@D@2@@std@@@2@@property_tree@boost@@@std@@YA?AU?$pair@V?$basic_string@DU?$char_traits@D@std@@V?$allocator@D@2@@std@@V?$basic_ptree@V?$basic_string@DU?$char_traits@D@std@@V?$allocator@D@2@@std@@V12@U?$less@V?$basic_string@DU?$char_traits@D@std@@V?$allocator@D@2@@std@@@2@@property_tree@boost@@@0@AAV?$basic_string@DU?$char_traits@D@std@@V?$allocator@D@2@@0@$$QAV?$basic_ptree@V?$basic_string@DU?$char_traits@D@std@@V?$allocator@D@2@@std@@V12@U?$less@V?$basic_string@DU?$char_traits@D@std@@V?$allocator@D@2@@std@@@2@@property_tree@boost@@@Z$1 00419768 f   * CIL library *:* CIL module *
 0001:00018781       __ehhandler$??$make_pair@AAV?$basic_string@DU?$char_traits@D@std@@V?$allocator@D@2@@std@@V?$basic_ptree@V?$basic_string@DU?$char_traits@D@std@@V?$allocator@D@2@@std@@V12@U?$less@V?$basic_string@DU?$char_traits@D@std@@V?$allocator@D@2@@std@@@2@@property_tree@boost@@@std@@YA?AU?$pair@V?$basic_string@DU?$char_traits@D@std@@V?$allocator@D@2@@std@@V?$basic_ptree@V?$basic_string@DU?$char_traits@D@std@@V?$allocator@D@2@@std@@V12@U?$less@V?$basic_string@DU?$char_traits@D@std@@V?$allocator@D@2@@std@@@2@@property_tree@boost@@@0@AAV?$basic_string@DU?$char_traits@D@std@@V?$allocator@D@2@@0@$$QAV?$basic_ptree@V?$basic_string@DU?$char_traits@D@std@@V?$allocator@D@2@@std@@V12@U?$less@V?$basic_string@DU?$char_traits@D@std@@V?$allocator@D@2@@std@@@2@@property_tree@boost@@@Z 00419781 f   * CIL library *:* CIL module *
 0001:000187b0       __unwindfunclet$??$make_transform_iterator@U?$copy_iterator_rangeF@V?$basic_string@DU?$char_traits@D@std@@V?$allocator@D@2@@std@@V?$_String_iterator@V?$_String_val@U?$_Simple_types@D@std@@@std@@@2@@detail@algorithm@boost@@V?$split_iterator@V?$_String_iterator@V?$_String_val@U?$_Simple_types@D@std@@@std@@@std@@@34@@boost@@YA?AV?$transform_iterator@U?$copy_iterator_rangeF@V?$basic_string@DU?$char_traits@D@std@@V?$allocator@D@2@@std@@V?$_String_iterator@V?$_String_val@U?$_Simple_types@D@std@@@std@@@2@@detail@algorithm@boost@@V?$split_iterator@V?$_String_iterator@V?$_String_val@U?$_Simple_types@D@std@@@std@@@std@@@34@Uuse_default@4@U64@@0@V?$split_iterator@V?$_String_iterator@V?$_String_val@U?$_Simple_types@D@std@@@std@@@std@@@algorithm@0@U?$copy_iterator_rangeF@V?$basic_string@DU?$char_traits@D@std@@V?$allocator@D@2@@std@@V?$_String_iterator@V?$_String_val@U?$_Simple_types@D@std@@@std@@@2@@detail@30@@Z$0 004197b0 f   * CIL library *:* CIL module *
 0001:000187b8       __unwindfunclet$??$make_transform_iterator@U?$copy_iterator_rangeF@V?$basic_string@DU?$char_traits@D@std@@V?$allocator@D@2@@std@@V?$_String_iterator@V?$_String_val@U?$_Simple_types@D@std@@@std@@@2@@detail@algorithm@boost@@V?$split_iterator@V?$_String_iterator@V?$_String_val@U?$_Simple_types@D@std@@@std@@@std@@@34@@boost@@YA?AV?$transform_iterator@U?$copy_iterator_rangeF@V?$basic_string@DU?$char_traits@D@std@@V?$allocator@D@2@@std@@V?$_String_iterator@V?$_String_val@U?$_Simple_types@D@std@@@std@@@2@@detail@algorithm@boost@@V?$split_iterator@V?$_String_iterator@V?$_String_val@U?$_Simple_types@D@std@@@std@@@std@@@34@Uuse_default@4@U64@@0@V?$split_iterator@V?$_String_iterator@V?$_String_val@U?$_Simple_types@D@std@@@std@@@std@@@algorithm@0@U?$copy_iterator_rangeF@V?$basic_string@DU?$char_traits@D@std@@V?$allocator@D@2@@std@@V?$_String_iterator@V?$_String_val@U?$_Simple_types@D@std@@@std@@@2@@detail@30@@Z$1 004197b8 f   * CIL library *:* CIL module *
 0001:000187d1       __ehhandler$??$make_transform_iterator@U?$copy_iterator_rangeF@V?$basic_string@DU?$char_traits@D@std@@V?$allocator@D@2@@std@@V?$_String_iterator@V?$_String_val@U?$_Simple_types@D@std@@@std@@@2@@detail@algorithm@boost@@V?$split_iterator@V?$_String_iterator@V?$_String_val@U?$_Simple_types@D@std@@@std@@@std@@@34@@boost@@YA?AV?$transform_iterator@U?$copy_iterator_rangeF@V?$basic_string@DU?$char_traits@D@std@@V?$allocator@D@2@@std@@V?$_String_iterator@V?$_String_val@U?$_Simple_types@D@std@@@std@@@2@@detail@algorithm@boost@@V?$split_iterator@V?$_String_iterator@V?$_String_val@U?$_Simple_types@D@std@@@std@@@std@@@34@Uuse_default@4@U64@@0@V?$split_iterator@V?$_String_iterator@V?$_String_val@U?$_Simple_types@D@std@@@std@@@std@@@algorithm@0@U?$copy_iterator_rangeF@V?$basic_string@DU?$char_traits@D@std@@V?$allocator@D@2@@std@@V?$_String_iterator@V?$_String_val@U?$_Simple_types@D@std@@@std@@@2@@detail@30@@Z 004197d1 f   * CIL library *:* CIL module *
 0001:000187f0       __unwindfunclet$??$map_line_data_value_can_lexical_cast@H@@YA_NV?$basic_string@DU?$char_traits@D@std@@V?$allocator@D@2@@std@@HHAAH00@Z$3 004197f0 f   * CIL library *:* CIL module *
 0001:000187f8       __unwindfunclet$??$map_line_data_value_can_lexical_cast@H@@YA_NV?$basic_string@DU?$char_traits@D@std@@V?$allocator@D@2@@std@@HHAAH00@Z$4 004197f8 f   * CIL library *:* CIL module *
 0001:00018800       __unwindfunclet$??$map_line_data_value_can_lexical_cast@H@@YA_NV?$basic_string@DU?$char_traits@D@std@@V?$allocator@D@2@@std@@HHAAH00@Z$5 00419800 f   * CIL library *:* CIL module *
 0001:00018808       __unwindfunclet$??$map_line_data_value_can_lexical_cast@H@@YA_NV?$basic_string@DU?$char_traits@D@std@@V?$allocator@D@2@@std@@HHAAH00@Z$6 00419808 f   * CIL library *:* CIL module *
 0001:00018813       __unwindfunclet$??$map_line_data_value_can_lexical_cast@H@@YA_NV?$basic_string@DU?$char_traits@D@std@@V?$allocator@D@2@@std@@HHAAH00@Z$8 00419813 f   * CIL library *:* CIL module *
 0001:0001881e       __ehhandler$??$map_line_data_value_can_lexical_cast@H@@YA_NV?$basic_string@DU?$char_traits@D@std@@V?$allocator@D@2@@std@@HHAAH00@Z 0041981e f   * CIL library *:* CIL module *
 0001:00018840       __unwindfunclet$??$map_line_data_value_can_lexical_cast@M@@YA_NV?$basic_string@DU?$char_traits@D@std@@V?$allocator@D@2@@std@@HHAAM00@Z$3 00419840 f   * CIL library *:* CIL module *
 0001:00018848       __unwindfunclet$??$map_line_data_value_can_lexical_cast@M@@YA_NV?$basic_string@DU?$char_traits@D@std@@V?$allocator@D@2@@std@@HHAAM00@Z$4 00419848 f   * CIL library *:* CIL module *
 0001:00018850       __unwindfunclet$??$map_line_data_value_can_lexical_cast@M@@YA_NV?$basic_string@DU?$char_traits@D@std@@V?$allocator@D@2@@std@@HHAAM00@Z$5 00419850 f   * CIL library *:* CIL module *
 0001:00018858       __unwindfunclet$??$map_line_data_value_can_lexical_cast@M@@YA_NV?$basic_string@DU?$char_traits@D@std@@V?$allocator@D@2@@std@@HHAAM00@Z$6 00419858 f   * CIL library *:* CIL module *
 0001:00018863       __unwindfunclet$??$map_line_data_value_can_lexical_cast@M@@YA_NV?$basic_string@DU?$char_traits@D@std@@V?$allocator@D@2@@std@@HHAAM00@Z$8 00419863 f   * CIL library *:* CIL module *
 0001:0001886e       __ehhandler$??$map_line_data_value_can_lexical_cast@M@@YA_NV?$basic_string@DU?$char_traits@D@std@@V?$allocator@D@2@@std@@HHAAM00@Z 0041986e f   * CIL library *:* CIL module *
 0001:00018890       __unwindfunclet$??$prepare_bad_path_what@V?$string_path@V?$basic_string@DU?$char_traits@D@std@@V?$allocator@D@2@@std@@U?$id_translator@V?$basic_string@DU?$char_traits@D@std@@V?$allocator@D@2@@std@@@property_tree@boost@@@property_tree@boost@@@detail@property_tree@boost@@YA?AV?$basic_string@DU?$char_traits@D@std@@V?$allocator@D@2@@std@@ABV34@ABV?$string_path@V?$basic_string@DU?$char_traits@D@std@@V?$allocator@D@2@@std@@U?$id_translator@V?$basic_string@DU?$char_traits@D@std@@V?$allocator@D@2@@std@@@property_tree@boost@@@12@@Z$0 00419890 f   * CIL library *:* CIL module *
 0001:00018898       __unwindfunclet$??$prepare_bad_path_what@V?$string_path@V?$basic_string@DU?$char_traits@D@std@@V?$allocator@D@2@@std@@U?$id_translator@V?$basic_string@DU?$char_traits@D@std@@V?$allocator@D@2@@std@@@property_tree@boost@@@property_tree@boost@@@detail@property_tree@boost@@YA?AV?$basic_string@DU?$char_traits@D@std@@V?$allocator@D@2@@std@@ABV34@ABV?$string_path@V?$basic_string@DU?$char_traits@D@std@@V?$allocator@D@2@@std@@U?$id_translator@V?$basic_string@DU?$char_traits@D@std@@V?$allocator@D@2@@std@@@property_tree@boost@@@12@@Z$1 00419898 f   * CIL library *:* CIL module *
 0001:000188a0       __unwindfunclet$??$prepare_bad_path_what@V?$string_path@V?$basic_string@DU?$char_traits@D@std@@V?$allocator@D@2@@std@@U?$id_translator@V?$basic_string@DU?$char_traits@D@std@@V?$allocator@D@2@@std@@@property_tree@boost@@@property_tree@boost@@@detail@property_tree@boost@@YA?AV?$basic_string@DU?$char_traits@D@std@@V?$allocator@D@2@@std@@ABV34@ABV?$string_path@V?$basic_string@DU?$char_traits@D@std@@V?$allocator@D@2@@std@@U?$id_translator@V?$basic_string@DU?$char_traits@D@std@@V?$allocator@D@2@@std@@@property_tree@boost@@@12@@Z$2 004198a0 f   * CIL library *:* CIL module *
 0001:000188a8       __ehhandler$??$prepare_bad_path_what@V?$string_path@V?$basic_string@DU?$char_traits@D@std@@V?$allocator@D@2@@std@@U?$id_translator@V?$basic_string@DU?$char_traits@D@std@@V?$allocator@D@2@@std@@@property_tree@boost@@@property_tree@boost@@@detail@property_tree@boost@@YA?AV?$basic_string@DU?$char_traits@D@std@@V?$allocator@D@2@@std@@ABV34@ABV?$string_path@V?$basic_string@DU?$char_traits@D@std@@V?$allocator@D@2@@std@@U?$id_translator@V?$basic_string@DU?$char_traits@D@std@@V?$allocator@D@2@@std@@@property_tree@boost@@@12@@Z 004198a8 f   * CIL library *:* CIL module *
 0001:000188d0       __unwindfunclet$??$read_ini@V?$basic_ptree@V?$basic_string@DU?$char_traits@D@std@@V?$allocator@D@2@@std@@V12@U?$less@V?$basic_string@DU?$char_traits@D@std@@V?$allocator@D@2@@std@@@2@@property_tree@boost@@@ini_parser@property_tree@boost@@YAXAAV?$basic_istream@DU?$char_traits@D@std@@@std@@AAV?$basic_ptree@V?$basic_string@DU?$char_traits@D@std@@V?$allocator@D@2@@std@@V12@U?$less@V?$basic_string@DU?$char_traits@D@std@@V?$allocator@D@2@@std@@@2@@12@@Z$37 004198d0 f   * CIL library *:* CIL module *
 0001:000188d8       __unwindfunclet$??$read_ini@V?$basic_ptree@V?$basic_string@DU?$char_traits@D@std@@V?$allocator@D@2@@std@@V12@U?$less@V?$basic_string@DU?$char_traits@D@std@@V?$allocator@D@2@@std@@@2@@property_tree@boost@@@ini_parser@property_tree@boost@@YAXAAV?$basic_istream@DU?$char_traits@D@std@@@std@@AAV?$basic_ptree@V?$basic_string@DU?$char_traits@D@std@@V?$allocator@D@2@@std@@V12@U?$less@V?$basic_string@DU?$char_traits@D@std@@V?$allocator@D@2@@std@@@2@@12@@Z$38 004198d8 f   * CIL library *:* CIL module *
 0001:000188e7       __unwindfunclet$??$read_ini@V?$basic_ptree@V?$basic_string@DU?$char_traits@D@std@@V?$allocator@D@2@@std@@V12@U?$less@V?$basic_string@DU?$char_traits@D@std@@V?$allocator@D@2@@std@@@2@@property_tree@boost@@@ini_parser@property_tree@boost@@YAXAAV?$basic_istream@DU?$char_traits@D@std@@@std@@AAV?$basic_ptree@V?$basic_string@DU?$char_traits@D@std@@V?$allocator@D@2@@std@@V12@U?$less@V?$basic_string@DU?$char_traits@D@std@@V?$allocator@D@2@@std@@@2@@12@@Z$0 004198e7 f   * CIL library *:* CIL module *
 0001:000188ef       __unwindfunclet$??$read_ini@V?$basic_ptree@V?$basic_string@DU?$char_traits@D@std@@V?$allocator@D@2@@std@@V12@U?$less@V?$basic_string@DU?$char_traits@D@std@@V?$allocator@D@2@@std@@@2@@property_tree@boost@@@ini_parser@property_tree@boost@@YAXAAV?$basic_istream@DU?$char_traits@D@std@@@std@@AAV?$basic_ptree@V?$basic_string@DU?$char_traits@D@std@@V?$allocator@D@2@@std@@V12@U?$less@V?$basic_string@DU?$char_traits@D@std@@V?$allocator@D@2@@std@@@2@@12@@Z$1 004198ef f   * CIL library *:* CIL module *
 0001:000188f7       __unwindfunclet$??$read_ini@V?$basic_ptree@V?$basic_string@DU?$char_traits@D@std@@V?$allocator@D@2@@std@@V12@U?$less@V?$basic_string@DU?$char_traits@D@std@@V?$allocator@D@2@@std@@@2@@property_tree@boost@@@ini_parser@property_tree@boost@@YAXAAV?$basic_istream@DU?$char_traits@D@std@@@std@@AAV?$basic_ptree@V?$basic_string@DU?$char_traits@D@std@@V?$allocator@D@2@@std@@V12@U?$less@V?$basic_string@DU?$char_traits@D@std@@V?$allocator@D@2@@std@@@2@@12@@Z$5 004198f7 f   * CIL library *:* CIL module *
 0001:00018902       __unwindfunclet$??$read_ini@V?$basic_ptree@V?$basic_string@DU?$char_traits@D@std@@V?$allocator@D@2@@std@@V12@U?$less@V?$basic_string@DU?$char_traits@D@std@@V?$allocator@D@2@@std@@@2@@property_tree@boost@@@ini_parser@property_tree@boost@@YAXAAV?$basic_istream@DU?$char_traits@D@std@@@std@@AAV?$basic_ptree@V?$basic_string@DU?$char_traits@D@std@@V?$allocator@D@2@@std@@V12@U?$less@V?$basic_string@DU?$char_traits@D@std@@V?$allocator@D@2@@std@@@2@@12@@Z$10 00419902 f   * CIL library *:* CIL module *
 0001:0001890d       __unwindfunclet$??$read_ini@V?$basic_ptree@V?$basic_string@DU?$char_traits@D@std@@V?$allocator@D@2@@std@@V12@U?$less@V?$basic_string@DU?$char_traits@D@std@@V?$allocator@D@2@@std@@@2@@property_tree@boost@@@ini_parser@property_tree@boost@@YAXAAV?$basic_istream@DU?$char_traits@D@std@@@std@@AAV?$basic_ptree@V?$basic_string@DU?$char_traits@D@std@@V?$allocator@D@2@@std@@V12@U?$less@V?$basic_string@DU?$char_traits@D@std@@V?$allocator@D@2@@std@@@2@@12@@Z$11 0041990d f   * CIL library *:* CIL module *
 0001:00018915       __unwindfunclet$??$read_ini@V?$basic_ptree@V?$basic_string@DU?$char_traits@D@std@@V?$allocator@D@2@@std@@V12@U?$less@V?$basic_string@DU?$char_traits@D@std@@V?$allocator@D@2@@std@@@2@@property_tree@boost@@@ini_parser@property_tree@boost@@YAXAAV?$basic_istream@DU?$char_traits@D@std@@@std@@AAV?$basic_ptree@V?$basic_string@DU?$char_traits@D@std@@V?$allocator@D@2@@std@@V12@U?$less@V?$basic_string@DU?$char_traits@D@std@@V?$allocator@D@2@@std@@@2@@12@@Z$12 00419915 f   * CIL library *:* CIL module *
 0001:00018920       __unwindfunclet$??$read_ini@V?$basic_ptree@V?$basic_string@DU?$char_traits@D@std@@V?$allocator@D@2@@std@@V12@U?$less@V?$basic_string@DU?$char_traits@D@std@@V?$allocator@D@2@@std@@@2@@property_tree@boost@@@ini_parser@property_tree@boost@@YAXAAV?$basic_istream@DU?$char_traits@D@std@@@std@@AAV?$basic_ptree@V?$basic_string@DU?$char_traits@D@std@@V?$allocator@D@2@@std@@V12@U?$less@V?$basic_string@DU?$char_traits@D@std@@V?$allocator@D@2@@std@@@2@@12@@Z$16 00419920 f   * CIL library *:* CIL module *
 0001:0001892b       __unwindfunclet$??$read_ini@V?$basic_ptree@V?$basic_string@DU?$char_traits@D@std@@V?$allocator@D@2@@std@@V12@U?$less@V?$basic_string@DU?$char_traits@D@std@@V?$allocator@D@2@@std@@@2@@property_tree@boost@@@ini_parser@property_tree@boost@@YAXAAV?$basic_istream@DU?$char_traits@D@std@@@std@@AAV?$basic_ptree@V?$basic_string@DU?$char_traits@D@std@@V?$allocator@D@2@@std@@V12@U?$less@V?$basic_string@DU?$char_traits@D@std@@V?$allocator@D@2@@std@@@2@@12@@Z$17 0041992b f   * CIL library *:* CIL module *
 0001:00018936       __unwindfunclet$??$read_ini@V?$basic_ptree@V?$basic_string@DU?$char_traits@D@std@@V?$allocator@D@2@@std@@V12@U?$less@V?$basic_string@DU?$char_traits@D@std@@V?$allocator@D@2@@std@@@2@@property_tree@boost@@@ini_parser@property_tree@boost@@YAXAAV?$basic_istream@DU?$char_traits@D@std@@@std@@AAV?$basic_ptree@V?$basic_string@DU?$char_traits@D@std@@V?$allocator@D@2@@std@@V12@U?$less@V?$basic_string@DU?$char_traits@D@std@@V?$allocator@D@2@@std@@@2@@12@@Z$18 00419936 f   * CIL library *:* CIL module *
 0001:00018941       __unwindfunclet$??$read_ini@V?$basic_ptree@V?$basic_string@DU?$char_traits@D@std@@V?$allocator@D@2@@std@@V12@U?$less@V?$basic_string@DU?$char_traits@D@std@@V?$allocator@D@2@@std@@@2@@property_tree@boost@@@ini_parser@property_tree@boost@@YAXAAV?$basic_istream@DU?$char_traits@D@std@@@std@@AAV?$basic_ptree@V?$basic_string@DU?$char_traits@D@std@@V?$allocator@D@2@@std@@V12@U?$less@V?$basic_string@DU?$char_traits@D@std@@V?$allocator@D@2@@std@@@2@@12@@Z$42 00419941 f   * CIL library *:* CIL module *
 0001:0001894c       __unwindfunclet$??$read_ini@V?$basic_ptree@V?$basic_string@DU?$char_traits@D@std@@V?$allocator@D@2@@std@@V12@U?$less@V?$basic_string@DU?$char_traits@D@std@@V?$allocator@D@2@@std@@@2@@property_tree@boost@@@ini_parser@property_tree@boost@@YAXAAV?$basic_istream@DU?$char_traits@D@std@@@std@@AAV?$basic_ptree@V?$basic_string@DU?$char_traits@D@std@@V?$allocator@D@2@@std@@V12@U?$less@V?$basic_string@DU?$char_traits@D@std@@V?$allocator@D@2@@std@@@2@@12@@Z$44 0041994c f   * CIL library *:* CIL module *
 0001:00018957       __unwindfunclet$??$read_ini@V?$basic_ptree@V?$basic_string@DU?$char_traits@D@std@@V?$allocator@D@2@@std@@V12@U?$less@V?$basic_string@DU?$char_traits@D@std@@V?$allocator@D@2@@std@@@2@@property_tree@boost@@@ini_parser@property_tree@boost@@YAXAAV?$basic_istream@DU?$char_traits@D@std@@@std@@AAV?$basic_ptree@V?$basic_string@DU?$char_traits@D@std@@V?$allocator@D@2@@std@@V12@U?$less@V?$basic_string@DU?$char_traits@D@std@@V?$allocator@D@2@@std@@@2@@12@@Z$45 00419957 f   * CIL library *:* CIL module *
 0001:00018965       __unwindfunclet$??$read_ini@V?$basic_ptree@V?$basic_string@DU?$char_traits@D@std@@V?$allocator@D@2@@std@@V12@U?$less@V?$basic_string@DU?$char_traits@D@std@@V?$allocator@D@2@@std@@@2@@property_tree@boost@@@ini_parser@property_tree@boost@@YAXAAV?$basic_istream@DU?$char_traits@D@std@@@std@@AAV?$basic_ptree@V?$basic_string@DU?$char_traits@D@std@@V?$allocator@D@2@@std@@V12@U?$less@V?$basic_string@DU?$char_traits@D@std@@V?$allocator@D@2@@std@@@2@@12@@Z$25 00419965 f   * CIL library *:* CIL module *
 0001:00018970       __unwindfunclet$??$read_ini@V?$basic_ptree@V?$basic_string@DU?$char_traits@D@std@@V?$allocator@D@2@@std@@V12@U?$less@V?$basic_string@DU?$char_traits@D@std@@V?$allocator@D@2@@std@@@2@@property_tree@boost@@@ini_parser@property_tree@boost@@YAXAAV?$basic_istream@DU?$char_traits@D@std@@@std@@AAV?$basic_ptree@V?$basic_string@DU?$char_traits@D@std@@V?$allocator@D@2@@std@@V12@U?$less@V?$basic_string@DU?$char_traits@D@std@@V?$allocator@D@2@@std@@@2@@12@@Z$26 00419970 f   * CIL library *:* CIL module *
 0001:0001897b       __unwindfunclet$??$read_ini@V?$basic_ptree@V?$basic_string@DU?$char_traits@D@std@@V?$allocator@D@2@@std@@V12@U?$less@V?$basic_string@DU?$char_traits@D@std@@V?$allocator@D@2@@std@@@2@@property_tree@boost@@@ini_parser@property_tree@boost@@YAXAAV?$basic_istream@DU?$char_traits@D@std@@@std@@AAV?$basic_ptree@V?$basic_string@DU?$char_traits@D@std@@V?$allocator@D@2@@std@@V12@U?$less@V?$basic_string@DU?$char_traits@D@std@@V?$allocator@D@2@@std@@@2@@12@@Z$27 0041997b f   * CIL library *:* CIL module *
 0001:00018986       __unwindfunclet$??$read_ini@V?$basic_ptree@V?$basic_string@DU?$char_traits@D@std@@V?$allocator@D@2@@std@@V12@U?$less@V?$basic_string@DU?$char_traits@D@std@@V?$allocator@D@2@@std@@@2@@property_tree@boost@@@ini_parser@property_tree@boost@@YAXAAV?$basic_istream@DU?$char_traits@D@std@@@std@@AAV?$basic_ptree@V?$basic_string@DU?$char_traits@D@std@@V?$allocator@D@2@@std@@V12@U?$less@V?$basic_string@DU?$char_traits@D@std@@V?$allocator@D@2@@std@@@2@@12@@Z$28 00419986 f   * CIL library *:* CIL module *
 0001:00018991       __unwindfunclet$??$read_ini@V?$basic_ptree@V?$basic_string@DU?$char_traits@D@std@@V?$allocator@D@2@@std@@V12@U?$less@V?$basic_string@DU?$char_traits@D@std@@V?$allocator@D@2@@std@@@2@@property_tree@boost@@@ini_parser@property_tree@boost@@YAXAAV?$basic_istream@DU?$char_traits@D@std@@@std@@AAV?$basic_ptree@V?$basic_string@DU?$char_traits@D@std@@V?$allocator@D@2@@std@@V12@U?$less@V?$basic_string@DU?$char_traits@D@std@@V?$allocator@D@2@@std@@@2@@12@@Z$29 00419991 f   * CIL library *:* CIL module *
 0001:00018999       __unwindfunclet$??$read_ini@V?$basic_ptree@V?$basic_string@DU?$char_traits@D@std@@V?$allocator@D@2@@std@@V12@U?$less@V?$basic_string@DU?$char_traits@D@std@@V?$allocator@D@2@@std@@@2@@property_tree@boost@@@ini_parser@property_tree@boost@@YAXAAV?$basic_istream@DU?$char_traits@D@std@@@std@@AAV?$basic_ptree@V?$basic_string@DU?$char_traits@D@std@@V?$allocator@D@2@@std@@V12@U?$less@V?$basic_string@DU?$char_traits@D@std@@V?$allocator@D@2@@std@@@2@@12@@Z$30 00419999 f   * CIL library *:* CIL module *
 0001:000189a1       __unwindfunclet$??$read_ini@V?$basic_ptree@V?$basic_string@DU?$char_traits@D@std@@V?$allocator@D@2@@std@@V12@U?$less@V?$basic_string@DU?$char_traits@D@std@@V?$allocator@D@2@@std@@@2@@property_tree@boost@@@ini_parser@property_tree@boost@@YAXAAV?$basic_istream@DU?$char_traits@D@std@@@std@@AAV?$basic_ptree@V?$basic_string@DU?$char_traits@D@std@@V?$allocator@D@2@@std@@V12@U?$less@V?$basic_string@DU?$char_traits@D@std@@V?$allocator@D@2@@std@@@2@@12@@Z$34 004199a1 f   * CIL library *:* CIL module *
 0001:000189ac       __unwindfunclet$??$read_ini@V?$basic_ptree@V?$basic_string@DU?$char_traits@D@std@@V?$allocator@D@2@@std@@V12@U?$less@V?$basic_string@DU?$char_traits@D@std@@V?$allocator@D@2@@std@@@2@@property_tree@boost@@@ini_parser@property_tree@boost@@YAXAAV?$basic_istream@DU?$char_traits@D@std@@@std@@AAV?$basic_ptree@V?$basic_string@DU?$char_traits@D@std@@V?$allocator@D@2@@std@@V12@U?$less@V?$basic_string@DU?$char_traits@D@std@@V?$allocator@D@2@@std@@@2@@12@@Z$35 004199ac f   * CIL library *:* CIL module *
 0001:000189b7       __unwindfunclet$??$read_ini@V?$basic_ptree@V?$basic_string@DU?$char_traits@D@std@@V?$allocator@D@2@@std@@V12@U?$less@V?$basic_string@DU?$char_traits@D@std@@V?$allocator@D@2@@std@@@2@@property_tree@boost@@@ini_parser@property_tree@boost@@YAXAAV?$basic_istream@DU?$char_traits@D@std@@@std@@AAV?$basic_ptree@V?$basic_string@DU?$char_traits@D@std@@V?$allocator@D@2@@std@@V12@U?$less@V?$basic_string@DU?$char_traits@D@std@@V?$allocator@D@2@@std@@@2@@12@@Z$36 004199b7 f   * CIL library *:* CIL module *
 0001:000189c2       __unwindfunclet$??$read_ini@V?$basic_ptree@V?$basic_string@DU?$char_traits@D@std@@V?$allocator@D@2@@std@@V12@U?$less@V?$basic_string@DU?$char_traits@D@std@@V?$allocator@D@2@@std@@@2@@property_tree@boost@@@ini_parser@property_tree@boost@@YAXAAV?$basic_istream@DU?$char_traits@D@std@@@std@@AAV?$basic_ptree@V?$basic_string@DU?$char_traits@D@std@@V?$allocator@D@2@@std@@V12@U?$less@V?$basic_string@DU?$char_traits@D@std@@V?$allocator@D@2@@std@@@2@@12@@Z$49 004199c2 f   * CIL library *:* CIL module *
 0001:000189cd       __unwindfunclet$??$read_ini@V?$basic_ptree@V?$basic_string@DU?$char_traits@D@std@@V?$allocator@D@2@@std@@V12@U?$less@V?$basic_string@DU?$char_traits@D@std@@V?$allocator@D@2@@std@@@2@@property_tree@boost@@@ini_parser@property_tree@boost@@YAXAAV?$basic_istream@DU?$char_traits@D@std@@@std@@AAV?$basic_ptree@V?$basic_string@DU?$char_traits@D@std@@V?$allocator@D@2@@std@@V12@U?$less@V?$basic_string@DU?$char_traits@D@std@@V?$allocator@D@2@@std@@@2@@12@@Z$51 004199cd f   * CIL library *:* CIL module *
 0001:000189d8       __unwindfunclet$??$read_ini@V?$basic_ptree@V?$basic_string@DU?$char_traits@D@std@@V?$allocator@D@2@@std@@V12@U?$less@V?$basic_string@DU?$char_traits@D@std@@V?$allocator@D@2@@std@@@2@@property_tree@boost@@@ini_parser@property_tree@boost@@YAXAAV?$basic_istream@DU?$char_traits@D@std@@@std@@AAV?$basic_ptree@V?$basic_string@DU?$char_traits@D@std@@V?$allocator@D@2@@std@@V12@U?$less@V?$basic_string@DU?$char_traits@D@std@@V?$allocator@D@2@@std@@@2@@12@@Z$52 004199d8 f   * CIL library *:* CIL module *
 0001:000189e6       __unwindfunclet$??$read_ini@V?$basic_ptree@V?$basic_string@DU?$char_traits@D@std@@V?$allocator@D@2@@std@@V12@U?$less@V?$basic_string@DU?$char_traits@D@std@@V?$allocator@D@2@@std@@@2@@property_tree@boost@@@ini_parser@property_tree@boost@@YAXAAV?$basic_istream@DU?$char_traits@D@std@@@std@@AAV?$basic_ptree@V?$basic_string@DU?$char_traits@D@std@@V?$allocator@D@2@@std@@V12@U?$less@V?$basic_string@DU?$char_traits@D@std@@V?$allocator@D@2@@std@@@2@@12@@Z$2 004199e6 f   * CIL library *:* CIL module *
 0001:000189f1       __unwindfunclet$??$read_ini@V?$basic_ptree@V?$basic_string@DU?$char_traits@D@std@@V?$allocator@D@2@@std@@V12@U?$less@V?$basic_string@DU?$char_traits@D@std@@V?$allocator@D@2@@std@@@2@@property_tree@boost@@@ini_parser@property_tree@boost@@YAXAAV?$basic_istream@DU?$char_traits@D@std@@@std@@AAV?$basic_ptree@V?$basic_string@DU?$char_traits@D@std@@V?$allocator@D@2@@std@@V12@U?$less@V?$basic_string@DU?$char_traits@D@std@@V?$allocator@D@2@@std@@@2@@12@@Z$3 004199f1 f   * CIL library *:* CIL module *
 0001:000189f9       __unwindfunclet$??$read_ini@V?$basic_ptree@V?$basic_string@DU?$char_traits@D@std@@V?$allocator@D@2@@std@@V12@U?$less@V?$basic_string@DU?$char_traits@D@std@@V?$allocator@D@2@@std@@@2@@property_tree@boost@@@ini_parser@property_tree@boost@@YAXAAV?$basic_istream@DU?$char_traits@D@std@@@std@@AAV?$basic_ptree@V?$basic_string@DU?$char_traits@D@std@@V?$allocator@D@2@@std@@V12@U?$less@V?$basic_string@DU?$char_traits@D@std@@V?$allocator@D@2@@std@@@2@@12@@Z$4 004199f9 f   * CIL library *:* CIL module *
 0001:00018a04       __unwindfunclet$??$read_ini@V?$basic_ptree@V?$basic_string@DU?$char_traits@D@std@@V?$allocator@D@2@@std@@V12@U?$less@V?$basic_string@DU?$char_traits@D@std@@V?$allocator@D@2@@std@@@2@@property_tree@boost@@@ini_parser@property_tree@boost@@YAXAAV?$basic_istream@DU?$char_traits@D@std@@@std@@AAV?$basic_ptree@V?$basic_string@DU?$char_traits@D@std@@V?$allocator@D@2@@std@@V12@U?$less@V?$basic_string@DU?$char_traits@D@std@@V?$allocator@D@2@@std@@@2@@12@@Z$13 00419a04 f   * CIL library *:* CIL module *
 0001:00018a0f       __unwindfunclet$??$read_ini@V?$basic_ptree@V?$basic_string@DU?$char_traits@D@std@@V?$allocator@D@2@@std@@V12@U?$less@V?$basic_string@DU?$char_traits@D@std@@V?$allocator@D@2@@std@@@2@@property_tree@boost@@@ini_parser@property_tree@boost@@YAXAAV?$basic_istream@DU?$char_traits@D@std@@@std@@AAV?$basic_ptree@V?$basic_string@DU?$char_traits@D@std@@V?$allocator@D@2@@std@@V12@U?$less@V?$basic_string@DU?$char_traits@D@std@@V?$allocator@D@2@@std@@@2@@12@@Z$14 00419a0f f   * CIL library *:* CIL module *
 0001:00018a17       __unwindfunclet$??$read_ini@V?$basic_ptree@V?$basic_string@DU?$char_traits@D@std@@V?$allocator@D@2@@std@@V12@U?$less@V?$basic_string@DU?$char_traits@D@std@@V?$allocator@D@2@@std@@@2@@property_tree@boost@@@ini_parser@property_tree@boost@@YAXAAV?$basic_istream@DU?$char_traits@D@std@@@std@@AAV?$basic_ptree@V?$basic_string@DU?$char_traits@D@std@@V?$allocator@D@2@@std@@V12@U?$less@V?$basic_string@DU?$char_traits@D@std@@V?$allocator@D@2@@std@@@2@@12@@Z$15 00419a17 f   * CIL library *:* CIL module *
 0001:00018a22       __unwindfunclet$??$read_ini@V?$basic_ptree@V?$basic_string@DU?$char_traits@D@std@@V?$allocator@D@2@@std@@V12@U?$less@V?$basic_string@DU?$char_traits@D@std@@V?$allocator@D@2@@std@@@2@@property_tree@boost@@@ini_parser@property_tree@boost@@YAXAAV?$basic_istream@DU?$char_traits@D@std@@@std@@AAV?$basic_ptree@V?$basic_string@DU?$char_traits@D@std@@V?$allocator@D@2@@std@@V12@U?$less@V?$basic_string@DU?$char_traits@D@std@@V?$allocator@D@2@@std@@@2@@12@@Z$7 00419a22 f   * CIL library *:* CIL module *
 0001:00018a2d       __unwindfunclet$??$read_ini@V?$basic_ptree@V?$basic_string@DU?$char_traits@D@std@@V?$allocator@D@2@@std@@V12@U?$less@V?$basic_string@DU?$char_traits@D@std@@V?$allocator@D@2@@std@@@2@@property_tree@boost@@@ini_parser@property_tree@boost@@YAXAAV?$basic_istream@DU?$char_traits@D@std@@@std@@AAV?$basic_ptree@V?$basic_string@DU?$char_traits@D@std@@V?$allocator@D@2@@std@@V12@U?$less@V?$basic_string@DU?$char_traits@D@std@@V?$allocator@D@2@@std@@@2@@12@@Z$8 00419a2d f   * CIL library *:* CIL module *
 0001:00018a35       __unwindfunclet$??$read_ini@V?$basic_ptree@V?$basic_string@DU?$char_traits@D@std@@V?$allocator@D@2@@std@@V12@U?$less@V?$basic_string@DU?$char_traits@D@std@@V?$allocator@D@2@@std@@@2@@property_tree@boost@@@ini_parser@property_tree@boost@@YAXAAV?$basic_istream@DU?$char_traits@D@std@@@std@@AAV?$basic_ptree@V?$basic_string@DU?$char_traits@D@std@@V?$allocator@D@2@@std@@V12@U?$less@V?$basic_string@DU?$char_traits@D@std@@V?$allocator@D@2@@std@@@2@@12@@Z$9 00419a35 f   * CIL library *:* CIL module *
 0001:00018a40       __unwindfunclet$??$read_ini@V?$basic_ptree@V?$basic_string@DU?$char_traits@D@std@@V?$allocator@D@2@@std@@V12@U?$less@V?$basic_string@DU?$char_traits@D@std@@V?$allocator@D@2@@std@@@2@@property_tree@boost@@@ini_parser@property_tree@boost@@YAXAAV?$basic_istream@DU?$char_traits@D@std@@@std@@AAV?$basic_ptree@V?$basic_string@DU?$char_traits@D@std@@V?$allocator@D@2@@std@@V12@U?$less@V?$basic_string@DU?$char_traits@D@std@@V?$allocator@D@2@@std@@@2@@12@@Z$31 00419a40 f   * CIL library *:* CIL module *
 0001:00018a4b       __unwindfunclet$??$read_ini@V?$basic_ptree@V?$basic_string@DU?$char_traits@D@std@@V?$allocator@D@2@@std@@V12@U?$less@V?$basic_string@DU?$char_traits@D@std@@V?$allocator@D@2@@std@@@2@@property_tree@boost@@@ini_parser@property_tree@boost@@YAXAAV?$basic_istream@DU?$char_traits@D@std@@@std@@AAV?$basic_ptree@V?$basic_string@DU?$char_traits@D@std@@V?$allocator@D@2@@std@@V12@U?$less@V?$basic_string@DU?$char_traits@D@std@@V?$allocator@D@2@@std@@@2@@12@@Z$32 00419a4b f   * CIL library *:* CIL module *
 0001:00018a56       __unwindfunclet$??$read_ini@V?$basic_ptree@V?$basic_string@DU?$char_traits@D@std@@V?$allocator@D@2@@std@@V12@U?$less@V?$basic_string@DU?$char_traits@D@std@@V?$allocator@D@2@@std@@@2@@property_tree@boost@@@ini_parser@property_tree@boost@@YAXAAV?$basic_istream@DU?$char_traits@D@std@@@std@@AAV?$basic_ptree@V?$basic_string@DU?$char_traits@D@std@@V?$allocator@D@2@@std@@V12@U?$less@V?$basic_string@DU?$char_traits@D@std@@V?$allocator@D@2@@std@@@2@@12@@Z$33 00419a56 f   * CIL library *:* CIL module *
 0001:00018a61       __unwindfunclet$??$read_ini@V?$basic_ptree@V?$basic_string@DU?$char_traits@D@std@@V?$allocator@D@2@@std@@V12@U?$less@V?$basic_string@DU?$char_traits@D@std@@V?$allocator@D@2@@std@@@2@@property_tree@boost@@@ini_parser@property_tree@boost@@YAXAAV?$basic_istream@DU?$char_traits@D@std@@@std@@AAV?$basic_ptree@V?$basic_string@DU?$char_traits@D@std@@V?$allocator@D@2@@std@@V12@U?$less@V?$basic_string@DU?$char_traits@D@std@@V?$allocator@D@2@@std@@@2@@12@@Z$22 00419a61 f   * CIL library *:* CIL module *
 0001:00018a69       __unwindfunclet$??$read_ini@V?$basic_ptree@V?$basic_string@DU?$char_traits@D@std@@V?$allocator@D@2@@std@@V12@U?$less@V?$basic_string@DU?$char_traits@D@std@@V?$allocator@D@2@@std@@@2@@property_tree@boost@@@ini_parser@property_tree@boost@@YAXAAV?$basic_istream@DU?$char_traits@D@std@@@std@@AAV?$basic_ptree@V?$basic_string@DU?$char_traits@D@std@@V?$allocator@D@2@@std@@V12@U?$less@V?$basic_string@DU?$char_traits@D@std@@V?$allocator@D@2@@std@@@2@@12@@Z$23 00419a69 f   * CIL library *:* CIL module *
 0001:00018a74       __unwindfunclet$??$read_ini@V?$basic_ptree@V?$basic_string@DU?$char_traits@D@std@@V?$allocator@D@2@@std@@V12@U?$less@V?$basic_string@DU?$char_traits@D@std@@V?$allocator@D@2@@std@@@2@@property_tree@boost@@@ini_parser@property_tree@boost@@YAXAAV?$basic_istream@DU?$char_traits@D@std@@@std@@AAV?$basic_ptree@V?$basic_string@DU?$char_traits@D@std@@V?$allocator@D@2@@std@@V12@U?$less@V?$basic_string@DU?$char_traits@D@std@@V?$allocator@D@2@@std@@@2@@12@@Z$24 00419a74 f   * CIL library *:* CIL module *
 0001:00018a7f       __unwindfunclet$??$read_ini@V?$basic_ptree@V?$basic_string@DU?$char_traits@D@std@@V?$allocator@D@2@@std@@V12@U?$less@V?$basic_string@DU?$char_traits@D@std@@V?$allocator@D@2@@std@@@2@@property_tree@boost@@@ini_parser@property_tree@boost@@YAXAAV?$basic_istream@DU?$char_traits@D@std@@@std@@AAV?$basic_ptree@V?$basic_string@DU?$char_traits@D@std@@V?$allocator@D@2@@std@@V12@U?$less@V?$basic_string@DU?$char_traits@D@std@@V?$allocator@D@2@@std@@@2@@12@@Z$19 00419a7f f   * CIL library *:* CIL module *
 0001:00018a87       __unwindfunclet$??$read_ini@V?$basic_ptree@V?$basic_string@DU?$char_traits@D@std@@V?$allocator@D@2@@std@@V12@U?$less@V?$basic_string@DU?$char_traits@D@std@@V?$allocator@D@2@@std@@@2@@property_tree@boost@@@ini_parser@property_tree@boost@@YAXAAV?$basic_istream@DU?$char_traits@D@std@@@std@@AAV?$basic_ptree@V?$basic_string@DU?$char_traits@D@std@@V?$allocator@D@2@@std@@V12@U?$less@V?$basic_string@DU?$char_traits@D@std@@V?$allocator@D@2@@std@@@2@@12@@Z$20 00419a87 f   * CIL library *:* CIL module *
 0001:00018a92       __unwindfunclet$??$read_ini@V?$basic_ptree@V?$basic_string@DU?$char_traits@D@std@@V?$allocator@D@2@@std@@V12@U?$less@V?$basic_string@DU?$char_traits@D@std@@V?$allocator@D@2@@std@@@2@@property_tree@boost@@@ini_parser@property_tree@boost@@YAXAAV?$basic_istream@DU?$char_traits@D@std@@@std@@AAV?$basic_ptree@V?$basic_string@DU?$char_traits@D@std@@V?$allocator@D@2@@std@@V12@U?$less@V?$basic_string@DU?$char_traits@D@std@@V?$allocator@D@2@@std@@@2@@12@@Z$21 00419a92 f   * CIL library *:* CIL module *
 0001:00018a9d       __ehhandler$??$read_ini@V?$basic_ptree@V?$basic_string@DU?$char_traits@D@std@@V?$allocator@D@2@@std@@V12@U?$less@V?$basic_string@DU?$char_traits@D@std@@V?$allocator@D@2@@std@@@2@@property_tree@boost@@@ini_parser@property_tree@boost@@YAXAAV?$basic_istream@DU?$char_traits@D@std@@@std@@AAV?$basic_ptree@V?$basic_string@DU?$char_traits@D@std@@V?$allocator@D@2@@std@@V12@U?$less@V?$basic_string@DU?$char_traits@D@std@@V?$allocator@D@2@@std@@@2@@12@@Z 00419a9d f   * CIL library *:* CIL module *
 0001:00018ad0       __unwindfunclet$??$read_ini@V?$basic_ptree@V?$basic_string@DU?$char_traits@D@std@@V?$allocator@D@2@@std@@V12@U?$less@V?$basic_string@DU?$char_traits@D@std@@V?$allocator@D@2@@std@@@2@@property_tree@boost@@@ini_parser@property_tree@boost@@YAXABV?$basic_string@DU?$char_traits@D@std@@V?$allocator@D@2@@std@@AAV?$basic_ptree@V?$basic_string@DU?$char_traits@D@std@@V?$allocator@D@2@@std@@V12@U?$less@V?$basic_string@DU?$char_traits@D@std@@V?$allocator@D@2@@std@@@2@@12@ABVlocale@4@@Z$2 00419ad0 f   * CIL library *:* CIL module *
 0001:00018adb       __unwindfunclet$??$read_ini@V?$basic_ptree@V?$basic_string@DU?$char_traits@D@std@@V?$allocator@D@2@@std@@V12@U?$less@V?$basic_string@DU?$char_traits@D@std@@V?$allocator@D@2@@std@@@2@@property_tree@boost@@@ini_parser@property_tree@boost@@YAXABV?$basic_string@DU?$char_traits@D@std@@V?$allocator@D@2@@std@@AAV?$basic_ptree@V?$basic_string@DU?$char_traits@D@std@@V?$allocator@D@2@@std@@V12@U?$less@V?$basic_string@DU?$char_traits@D@std@@V?$allocator@D@2@@std@@@2@@12@ABVlocale@4@@Z$3 00419adb f   * CIL library *:* CIL module *
 0001:00018ae3       __unwindfunclet$??$read_ini@V?$basic_ptree@V?$basic_string@DU?$char_traits@D@std@@V?$allocator@D@2@@std@@V12@U?$less@V?$basic_string@DU?$char_traits@D@std@@V?$allocator@D@2@@std@@@2@@property_tree@boost@@@ini_parser@property_tree@boost@@YAXABV?$basic_string@DU?$char_traits@D@std@@V?$allocator@D@2@@std@@AAV?$basic_ptree@V?$basic_string@DU?$char_traits@D@std@@V?$allocator@D@2@@std@@V12@U?$less@V?$basic_string@DU?$char_traits@D@std@@V?$allocator@D@2@@std@@@2@@12@ABVlocale@4@@Z$4 00419ae3 f   * CIL library *:* CIL module *
 0001:00018aeb       __unwindfunclet$??$read_ini@V?$basic_ptree@V?$basic_string@DU?$char_traits@D@std@@V?$allocator@D@2@@std@@V12@U?$less@V?$basic_string@DU?$char_traits@D@std@@V?$allocator@D@2@@std@@@2@@property_tree@boost@@@ini_parser@property_tree@boost@@YAXABV?$basic_string@DU?$char_traits@D@std@@V?$allocator@D@2@@std@@AAV?$basic_ptree@V?$basic_string@DU?$char_traits@D@std@@V?$allocator@D@2@@std@@V12@U?$less@V?$basic_string@DU?$char_traits@D@std@@V?$allocator@D@2@@std@@@2@@12@ABVlocale@4@@Z$6 00419aeb f   * CIL library *:* CIL module *
 0001:00018af3       __unwindfunclet$??$read_ini@V?$basic_ptree@V?$basic_string@DU?$char_traits@D@std@@V?$allocator@D@2@@std@@V12@U?$less@V?$basic_string@DU?$char_traits@D@std@@V?$allocator@D@2@@std@@@2@@property_tree@boost@@@ini_parser@property_tree@boost@@YAXABV?$basic_string@DU?$char_traits@D@std@@V?$allocator@D@2@@std@@AAV?$basic_ptree@V?$basic_string@DU?$char_traits@D@std@@V?$allocator@D@2@@std@@V12@U?$less@V?$basic_string@DU?$char_traits@D@std@@V?$allocator@D@2@@std@@@2@@12@ABVlocale@4@@Z$7 00419af3 f   * CIL library *:* CIL module *
 0001:00018afb       __ehhandler$??$read_ini@V?$basic_ptree@V?$basic_string@DU?$char_traits@D@std@@V?$allocator@D@2@@std@@V12@U?$less@V?$basic_string@DU?$char_traits@D@std@@V?$allocator@D@2@@std@@@2@@property_tree@boost@@@ini_parser@property_tree@boost@@YAXABV?$basic_string@DU?$char_traits@D@std@@V?$allocator@D@2@@std@@AAV?$basic_ptree@V?$basic_string@DU?$char_traits@D@std@@V?$allocator@D@2@@std@@V12@U?$less@V?$basic_string@DU?$char_traits@D@std@@V?$allocator@D@2@@std@@@2@@12@ABVlocale@4@@Z 00419afb f   * CIL library *:* CIL module *
 0001:00018b30       __unwindfunclet$??$remove_if@V?$_String_iterator@V?$_String_val@U?$_Simple_types@D@std@@@std@@@std@@U?$is_any_ofF@D@detail@algorithm@boost@@@std@@YA?AV?$_String_iterator@V?$_String_val@U?$_Simple_types@D@std@@@std@@@0@V10@0U?$is_any_ofF@D@detail@algorithm@boost@@@Z$0 00419b30 f   * CIL library *:* CIL module *
 0001:00018b30       __unwindfunclet$??$find_if@V?$_String_iterator@V?$_String_val@U?$_Simple_types@D@std@@@std@@@std@@U?$is_any_ofF@D@detail@algorithm@boost@@@std@@YA?AV?$_String_iterator@V?$_String_val@U?$_Simple_types@D@std@@@std@@@0@V10@0U?$is_any_ofF@D@detail@algorithm@boost@@@Z$0 00419b30 f   * CIL library *:* CIL module *
 0001:00018b38       __ehhandler$??$find_if@V?$_String_iterator@V?$_String_val@U?$_Simple_types@D@std@@@std@@@std@@U?$is_any_ofF@D@detail@algorithm@boost@@@std@@YA?AV?$_String_iterator@V?$_String_val@U?$_Simple_types@D@std@@@std@@@0@V10@0U?$is_any_ofF@D@detail@algorithm@boost@@@Z 00419b38 f   * CIL library *:* CIL module *
 0001:00018b38       __ehhandler$??$remove_if@V?$_String_iterator@V?$_String_val@U?$_Simple_types@D@std@@@std@@@std@@U?$is_any_ofF@D@detail@algorithm@boost@@@std@@YA?AV?$_String_iterator@V?$_String_val@U?$_Simple_types@D@std@@@std@@@0@V10@0U?$is_any_ofF@D@detail@algorithm@boost@@@Z 00419b38 f   * CIL library *:* CIL module *
 0001:00018b60       __unwindfunclet$??$remove_if@V?$basic_string@DU?$char_traits@D@std@@V?$allocator@D@2@@std@@U?$is_any_ofF@D@detail@algorithm@boost@@@range@boost@@YA?AV?$_String_iterator@V?$_String_val@U?$_Simple_types@D@std@@@std@@@std@@AAV?$basic_string@DU?$char_traits@D@std@@V?$allocator@D@2@@3@U?$is_any_ofF@D@detail@algorithm@1@@Z$0 00419b60 f   * CIL library *:* CIL module *
 0001:00018b68       __ehhandler$??$remove_if@V?$basic_string@DU?$char_traits@D@std@@V?$allocator@D@2@@std@@U?$is_any_ofF@D@detail@algorithm@boost@@@range@boost@@YA?AV?$_String_iterator@V?$_String_val@U?$_Simple_types@D@std@@@std@@@std@@AAV?$basic_string@DU?$char_traits@D@std@@V?$allocator@D@2@@3@U?$is_any_ofF@D@detail@algorithm@1@@Z 00419b68 f   * CIL library *:* CIL module *
 0001:00018b90       __unwindfunclet$??$replace@V?$_Deque_iterator@V?$_Deque_val@U?$_Deque_simple_types@D@std@@@std@@@std@@@?$basic_string@DU?$char_traits@D@std@@V?$allocator@D@2@@std@@QAEAAV01@V?$_String_const_iterator@V?$_String_val@U?$_Simple_types@D@std@@@std@@@1@0V?$_Deque_iterator@V?$_Deque_val@U?$_Deque_simple_types@D@std@@@std@@@1@1@Z$0 00419b90 f   * CIL library *:* CIL module *
 0001:00018b95       __unwindfunclet$??$replace@V?$_Deque_iterator@V?$_Deque_val@U?$_Deque_simple_types@D@std@@@std@@@std@@@?$basic_string@DU?$char_traits@D@std@@V?$allocator@D@2@@std@@QAEAAV01@V?$_String_const_iterator@V?$_String_val@U?$_Simple_types@D@std@@@std@@@1@0V?$_Deque_iterator@V?$_Deque_val@U?$_Deque_simple_types@D@std@@@std@@@1@1@Z$2 00419b95 f   * CIL library *:* CIL module *
 0001:00018b9d       __ehhandler$??$replace@V?$_Deque_iterator@V?$_Deque_val@U?$_Deque_simple_types@D@std@@@std@@@std@@@?$basic_string@DU?$char_traits@D@std@@V?$allocator@D@2@@std@@QAEAAV01@V?$_String_const_iterator@V?$_String_val@U?$_Simple_types@D@std@@@std@@@1@0V?$_Deque_iterator@V?$_Deque_val@U?$_Deque_simple_types@D@std@@@std@@@1@1@Z 00419b9d f   * CIL library *:* CIL module *
 0001:00018bd0       __unwindfunclet$??$rotate@V?$_Deque_iterator@V?$_Deque_val@U?$_Deque_simple_types@D@std@@@std@@@std@@@std@@YA?AV?$_Deque_iterator@V?$_Deque_val@U?$_Deque_simple_types@D@std@@@std@@@0@V10@00@Z$3 00419bd0 f   * CIL library *:* CIL module *
 0001:00018bd5       __unwindfunclet$??$rotate@V?$_Deque_iterator@V?$_Deque_val@U?$_Deque_simple_types@D@std@@@std@@@std@@@std@@YA?AV?$_Deque_iterator@V?$_Deque_val@U?$_Deque_simple_types@D@std@@@std@@@0@V10@00@Z$9 00419bd5 f   * CIL library *:* CIL module *
 0001:00018bda       __ehhandler$??$rotate@V?$_Deque_iterator@V?$_Deque_val@U?$_Deque_simple_types@D@std@@@std@@@std@@@std@@YA?AV?$_Deque_iterator@V?$_Deque_val@U?$_Deque_simple_types@D@std@@@std@@@0@V10@00@Z 00419bda f   * CIL library *:* CIL module *
 0001:00018c00       __unwindfunclet$??$split@V?$vector@V?$basic_string@DU?$char_traits@D@std@@V?$allocator@D@2@@std@@V?$allocator@V?$basic_string@DU?$char_traits@D@std@@V?$allocator@D@2@@std@@@2@@std@@V?$basic_string@DU?$char_traits@D@std@@V?$allocator@D@2@@2@U?$is_any_ofF@D@detail@algorithm@boost@@@algorithm@boost@@YAAAV?$vector@V?$basic_string@DU?$char_traits@D@std@@V?$allocator@D@2@@std@@V?$allocator@V?$basic_string@DU?$char_traits@D@std@@V?$allocator@D@2@@std@@@2@@std@@AAV23@AAV?$basic_string@DU?$char_traits@D@std@@V?$allocator@D@2@@3@U?$is_any_ofF@D@detail@01@W4token_compress_mode_type@01@@Z$0 00419c00 f   * CIL library *:* CIL module *
 0001:00018c08       __ehhandler$??$split@V?$vector@V?$basic_string@DU?$char_traits@D@std@@V?$allocator@D@2@@std@@V?$allocator@V?$basic_string@DU?$char_traits@D@std@@V?$allocator@D@2@@std@@@2@@std@@V?$basic_string@DU?$char_traits@D@std@@V?$allocator@D@2@@2@U?$is_any_ofF@D@detail@algorithm@boost@@@algorithm@boost@@YAAAV?$vector@V?$basic_string@DU?$char_traits@D@std@@V?$allocator@D@2@@std@@V?$allocator@V?$basic_string@DU?$char_traits@D@std@@V?$allocator@D@2@@std@@@2@@std@@AAV23@AAV?$basic_string@DU?$char_traits@D@std@@V?$allocator@D@2@@3@U?$is_any_ofF@D@detail@01@W4token_compress_mode_type@01@@Z 00419c08 f   * CIL library *:* CIL module *
 0001:00018c30       __unwindfunclet$??$throw_exception@U?$error_info_injector@Vini_parser_error@ini_parser@property_tree@boost@@@exception_detail@boost@@@boost@@YAXABU?$error_info_injector@Vini_parser_error@ini_parser@property_tree@boost@@@exception_detail@0@@Z$0 00419c30 f   * CIL library *:* CIL module *
 0001:00018c3b       __ehhandler$??$throw_exception@U?$error_info_injector@Vini_parser_error@ini_parser@property_tree@boost@@@exception_detail@boost@@@boost@@YAXABU?$error_info_injector@Vini_parser_error@ini_parser@property_tree@boost@@@exception_detail@0@@Z 00419c3b f   * CIL library *:* CIL module *
 0001:00018c60       __unwindfunclet$??$throw_exception@Vbad_lexical_cast@boost@@@boost@@YAXABVbad_lexical_cast@0@@Z$0 00419c60 f   * CIL library *:* CIL module *
 0001:00018c68       __ehhandler$??$throw_exception@Vbad_lexical_cast@boost@@@boost@@YAXABVbad_lexical_cast@0@@Z 00419c68 f   * CIL library *:* CIL module *
 0001:00018c90       __unwindfunclet$??$throw_exception_@Vini_parser_error@ini_parser@property_tree@boost@@@exception_detail@boost@@YAXABVini_parser_error@ini_parser@property_tree@1@PBD1H@Z$0 00419c90 f   * CIL library *:* CIL module *
 0001:00018c98       __ehhandler$??$throw_exception_@Vini_parser_error@ini_parser@property_tree@boost@@@exception_detail@boost@@YAXABVini_parser_error@ini_parser@property_tree@1@PBD1H@Z 00419c98 f   * CIL library *:* CIL module *
 0001:00018cc0       __unwindfunclet$??$throw_exception_@Vptree_bad_path@property_tree@boost@@@exception_detail@boost@@YAXABVptree_bad_path@property_tree@1@PBD1H@Z$0 00419cc0 f   * CIL library *:* CIL module *
 0001:00018cc8       __unwindfunclet$??$throw_exception_@Vptree_bad_path@property_tree@boost@@@exception_detail@boost@@YAXABVptree_bad_path@property_tree@1@PBD1H@Z$1 00419cc8 f   * CIL library *:* CIL module *
 0001:00018cd0       __ehhandler$??$throw_exception_@Vptree_bad_path@property_tree@boost@@@exception_detail@boost@@YAXABVptree_bad_path@property_tree@1@PBD1H@Z 00419cd0 f   * CIL library *:* CIL module *
 0001:00018cf0       __unwindfunclet$??$token_finder@U?$is_any_ofF@D@detail@algorithm@boost@@@algorithm@boost@@YA?AU?$token_finderF@U?$is_any_ofF@D@detail@algorithm@boost@@@detail@01@U?$is_any_ofF@D@301@W4token_compress_mode_type@01@@Z$0 00419cf0 f   * CIL library *:* CIL module *
 0001:00018cf8       __unwindfunclet$??$token_finder@U?$is_any_ofF@D@detail@algorithm@boost@@@algorithm@boost@@YA?AU?$token_finderF@U?$is_any_ofF@D@detail@algorithm@boost@@@detail@01@U?$is_any_ofF@D@301@W4token_compress_mode_type@01@@Z$4 00419cf8 f   * CIL library *:* CIL module *
 0001:00018d00       __unwindfunclet$??$token_finder@U?$is_any_ofF@D@detail@algorithm@boost@@@algorithm@boost@@YA?AU?$token_finderF@U?$is_any_ofF@D@detail@algorithm@boost@@@detail@01@U?$is_any_ofF@D@301@W4token_compress_mode_type@01@@Z$2 00419d00 f   * CIL library *:* CIL module *
 0001:00018d08       __ehhandler$??$token_finder@U?$is_any_ofF@D@detail@algorithm@boost@@@algorithm@boost@@YA?AU?$token_finderF@U?$is_any_ofF@D@detail@algorithm@boost@@@detail@01@U?$is_any_ofF@D@301@W4token_compress_mode_type@01@@Z 00419d08 f   * CIL library *:* CIL module *
 0001:00018d30       __unwindfunclet$??$use_facet@V?$ctype@D@std@@@std@@YAABV?$ctype@D@0@ABVlocale@0@@Z$0 00419d30 f   * CIL library *:* CIL module *
 0001:00018d30       __unwindfunclet$??$use_facet@V?$codecvt@DDH@std@@@std@@YAABV?$codecvt@DDH@0@ABVlocale@0@@Z$0 00419d30 f   * CIL library *:* CIL module *
 0001:00018d39       __ehhandler$??$use_facet@V?$ctype@D@std@@@std@@YAABV?$ctype@D@0@ABVlocale@0@@Z 00419d39 f   * CIL library *:* CIL module *
 0001:00018d39       __ehhandler$??$use_facet@V?$codecvt@DDH@std@@@std@@YAABV?$codecvt@DDH@0@ABVlocale@0@@Z 00419d39 f   * CIL library *:* CIL module *
 0001:00018d60       __unwindfunclet$??$use_facet@V?$numpunct@D@std@@@std@@YAABV?$numpunct@D@0@ABVlocale@0@@Z$0 00419d60 f   * CIL library *:* CIL module *
 0001:00018d69       __ehhandler$??$use_facet@V?$numpunct@D@std@@@std@@YAABV?$numpunct@D@0@ABVlocale@0@@Z 00419d69 f   * CIL library *:* CIL module *
 0001:00018d90       __unwindfunclet$??0?$basic_ifstream@DU?$char_traits@D@std@@@std@@QAE@PBDHH@Z$0 00419d90 f   * CIL library *:* CIL module *
 0001:00018dad       __unwindfunclet$??0?$basic_ifstream@DU?$char_traits@D@std@@@std@@QAE@PBDHH@Z$1 00419dad f   * CIL library *:* CIL module *
 0001:00018db9       __unwindfunclet$??0?$basic_ifstream@DU?$char_traits@D@std@@@std@@QAE@PBDHH@Z$3 00419db9 f   * CIL library *:* CIL module *
 0001:00018dc2       __unwindfunclet$??0?$basic_ifstream@DU?$char_traits@D@std@@@std@@QAE@PBDHH@Z$2 00419dc2 f   * CIL library *:* CIL module *
 0001:00018dcd       __ehhandler$??0?$basic_ifstream@DU?$char_traits@D@std@@@std@@QAE@PBDHH@Z 00419dcd f   * CIL library *:* CIL module *
 0001:00018df0       __unwindfunclet$??0?$basic_istringstream@DU?$char_traits@D@std@@V?$allocator@D@2@@std@@QAE@ABV?$basic_string@DU?$char_traits@D@std@@V?$allocator@D@2@@1@H@Z$0 00419df0 f   * CIL library *:* CIL module *
 0001:00018e0d       __unwindfunclet$??0?$basic_istringstream@DU?$char_traits@D@std@@V?$allocator@D@2@@std@@QAE@ABV?$basic_string@DU?$char_traits@D@std@@V?$allocator@D@2@@1@H@Z$1 00419e0d f   * CIL library *:* CIL module *
 0001:00018e19       __unwindfunclet$??0?$basic_istringstream@DU?$char_traits@D@std@@V?$allocator@D@2@@std@@QAE@ABV?$basic_string@DU?$char_traits@D@std@@V?$allocator@D@2@@1@H@Z$3 00419e19 f   * CIL library *:* CIL module *
 0001:00018e22       __ehhandler$??0?$basic_istringstream@DU?$char_traits@D@std@@V?$allocator@D@2@@std@@QAE@ABV?$basic_string@DU?$char_traits@D@std@@V?$allocator@D@2@@1@H@Z 00419e22 f   * CIL library *:* CIL module *
 0001:00018e40       __unwindfunclet$??0?$basic_ptree@V?$basic_string@DU?$char_traits@D@std@@V?$allocator@D@2@@std@@V12@U?$less@V?$basic_string@DU?$char_traits@D@std@@V?$allocator@D@2@@std@@@2@@property_tree@boost@@QAE@ABV012@@Z$0 00419e40 f   * CIL library *:* CIL module *
 0001:00018e48       __unwindfunclet$??0?$basic_ptree@V?$basic_string@DU?$char_traits@D@std@@V?$allocator@D@2@@std@@V12@U?$less@V?$basic_string@DU?$char_traits@D@std@@V?$allocator@D@2@@std@@@2@@property_tree@boost@@QAE@ABV012@@Z$1 00419e48 f   * CIL library *:* CIL module *
 0001:00018e54       __ehhandler$??0?$basic_ptree@V?$basic_string@DU?$char_traits@D@std@@V?$allocator@D@2@@std@@V12@U?$less@V?$basic_string@DU?$char_traits@D@std@@V?$allocator@D@2@@std@@@2@@property_tree@boost@@QAE@ABV012@@Z 00419e54 f   * CIL library *:* CIL module *
 0001:00018e70       __unwindfunclet$??0?$basic_ptree@V?$basic_string@DU?$char_traits@D@std@@V?$allocator@D@2@@std@@V12@U?$less@V?$basic_string@DU?$char_traits@D@std@@V?$allocator@D@2@@std@@@2@@property_tree@boost@@QAE@ABV?$basic_string@DU?$char_traits@D@std@@V?$allocator@D@2@@std@@@Z$0 00419e70 f   * CIL library *:* CIL module *
 0001:00018e78       __unwindfunclet$??0?$basic_ptree@V?$basic_string@DU?$char_traits@D@std@@V?$allocator@D@2@@std@@V12@U?$less@V?$basic_string@DU?$char_traits@D@std@@V?$allocator@D@2@@std@@@2@@property_tree@boost@@QAE@ABV?$basic_string@DU?$char_traits@D@std@@V?$allocator@D@2@@std@@@Z$1 00419e78 f   * CIL library *:* CIL module *
 0001:00018e84       __ehhandler$??0?$basic_ptree@V?$basic_string@DU?$char_traits@D@std@@V?$allocator@D@2@@std@@V12@U?$less@V?$basic_string@DU?$char_traits@D@std@@V?$allocator@D@2@@std@@@2@@property_tree@boost@@QAE@ABV?$basic_string@DU?$char_traits@D@std@@V?$allocator@D@2@@std@@@Z 00419e84 f   * CIL library *:* CIL module *
 0001:00018ea0       __unwindfunclet$??0?$basic_ptree@V?$basic_string@DU?$char_traits@D@std@@V?$allocator@D@2@@std@@V12@U?$less@V?$basic_string@DU?$char_traits@D@std@@V?$allocator@D@2@@std@@@2@@property_tree@boost@@QAE@XZ$0 00419ea0 f   * CIL library *:* CIL module *
 0001:00018ea8       __unwindfunclet$??0?$basic_ptree@V?$basic_string@DU?$char_traits@D@std@@V?$allocator@D@2@@std@@V12@U?$less@V?$basic_string@DU?$char_traits@D@std@@V?$allocator@D@2@@std@@@2@@property_tree@boost@@QAE@XZ$1 00419ea8 f   * CIL library *:* CIL module *
 0001:00018eb4       __ehhandler$??0?$basic_ptree@V?$basic_string@DU?$char_traits@D@std@@V?$allocator@D@2@@std@@V12@U?$less@V?$basic_string@DU?$char_traits@D@std@@V?$allocator@D@2@@std@@@2@@property_tree@boost@@QAE@XZ 00419eb4 f   * CIL library *:* CIL module *
 0001:00018ed0       __unwindfunclet$??0?$basic_stringstream@DU?$char_traits@D@std@@V?$allocator@D@2@@std@@QAE@H@Z$0 00419ed0 f   * CIL library *:* CIL module *
 0001:00018eed       __unwindfunclet$??0?$basic_stringstream@DU?$char_traits@D@std@@V?$allocator@D@2@@std@@QAE@H@Z$1 00419eed f   * CIL library *:* CIL module *
 0001:00018ef9       __unwindfunclet$??0?$basic_stringstream@DU?$char_traits@D@std@@V?$allocator@D@2@@std@@QAE@H@Z$3 00419ef9 f   * CIL library *:* CIL module *
 0001:00018f02       __ehhandler$??0?$basic_stringstream@DU?$char_traits@D@std@@V?$allocator@D@2@@std@@QAE@H@Z 00419f02 f   * CIL library *:* CIL module *
 0001:00018f20       __unwindfunclet$??0?$clone_impl@U?$error_info_injector@Vbad_function_call@boost@@@exception_detail@boost@@@exception_detail@boost@@QAE@ABU?$error_info_injector@Vbad_function_call@boost@@@12@@Z$0 00419f20 f   * CIL library *:* CIL module *
 0001:00018f20       __unwindfunclet$??0?$clone_impl@U?$error_info_injector@Vbad_function_call@boost@@@exception_detail@boost@@@exception_detail@boost@@AAE@ABV012@Uclone_tag@012@@Z$0 00419f20 f   * CIL library *:* CIL module *
 0001:00018f3c       __unwindfunclet$??0?$clone_impl@U?$error_info_injector@Vbad_function_call@boost@@@exception_detail@boost@@@exception_detail@boost@@AAE@ABV012@Uclone_tag@012@@Z$2 00419f3c f   * CIL library *:* CIL module *
 0001:00018f3c       __unwindfunclet$??0?$clone_impl@U?$error_info_injector@Vbad_function_call@boost@@@exception_detail@boost@@@exception_detail@boost@@QAE@ABU?$error_info_injector@Vbad_function_call@boost@@@12@@Z$2 00419f3c f   * CIL library *:* CIL module *
 0001:00018f44       __unwindfunclet$??0?$clone_impl@U?$error_info_injector@Vbad_function_call@boost@@@exception_detail@boost@@@exception_detail@boost@@AAE@ABV012@Uclone_tag@012@@Z$1 00419f44 f   * CIL library *:* CIL module *
 0001:00018f44       __unwindfunclet$??0?$clone_impl@U?$error_info_injector@Vbad_function_call@boost@@@exception_detail@boost@@@exception_detail@boost@@QAE@ABU?$error_info_injector@Vbad_function_call@boost@@@12@@Z$1 00419f44 f   * CIL library *:* CIL module *
 0001:00018f4c       __ehhandler$??0?$clone_impl@U?$error_info_injector@Vbad_function_call@boost@@@exception_detail@boost@@@exception_detail@boost@@AAE@ABV012@Uclone_tag@012@@Z 00419f4c f   * CIL library *:* CIL module *
 0001:00018f4c       __ehhandler$??0?$clone_impl@U?$error_info_injector@Vbad_function_call@boost@@@exception_detail@boost@@@exception_detail@boost@@QAE@ABU?$error_info_injector@Vbad_function_call@boost@@@12@@Z 00419f4c f   * CIL library *:* CIL module *
 0001:00018f70       __unwindfunclet$??0?$clone_impl@U?$error_info_injector@Vbad_function_call@boost@@@exception_detail@boost@@@exception_detail@boost@@QAE@ABV012@@Z$0 00419f70 f   * CIL library *:* CIL module *
 0001:00018f8c       __unwindfunclet$??0?$clone_impl@U?$error_info_injector@Vbad_function_call@boost@@@exception_detail@boost@@@exception_detail@boost@@QAE@ABV012@@Z$2 00419f8c f   * CIL library *:* CIL module *
 0001:00018f94       __ehhandler$??0?$clone_impl@U?$error_info_injector@Vbad_function_call@boost@@@exception_detail@boost@@@exception_detail@boost@@QAE@ABV012@@Z 00419f94 f   * CIL library *:* CIL module *
 0001:00018fb0       __unwindfunclet$??0?$clone_impl@U?$error_info_injector@Vbad_lexical_cast@boost@@@exception_detail@boost@@@exception_detail@boost@@QAE@ABU?$error_info_injector@Vbad_lexical_cast@boost@@@12@@Z$0 00419fb0 f   * CIL library *:* CIL module *
 0001:00018fb0       __unwindfunclet$??0?$clone_impl@U?$error_info_injector@Vbad_lexical_cast@boost@@@exception_detail@boost@@@exception_detail@boost@@AAE@ABV012@Uclone_tag@012@@Z$0 00419fb0 f   * CIL library *:* CIL module *
 0001:00018fcc       __unwindfunclet$??0?$clone_impl@U?$error_info_injector@Vbad_lexical_cast@boost@@@exception_detail@boost@@@exception_detail@boost@@QAE@ABU?$error_info_injector@Vbad_lexical_cast@boost@@@12@@Z$2 00419fcc f   * CIL library *:* CIL module *
 0001:00018fcc       __unwindfunclet$??0?$clone_impl@U?$error_info_injector@Vbad_lexical_cast@boost@@@exception_detail@boost@@@exception_detail@boost@@AAE@ABV012@Uclone_tag@012@@Z$2 00419fcc f   * CIL library *:* CIL module *
 0001:00018fd4       __unwindfunclet$??0?$clone_impl@U?$error_info_injector@Vbad_lexical_cast@boost@@@exception_detail@boost@@@exception_detail@boost@@QAE@ABU?$error_info_injector@Vbad_lexical_cast@boost@@@12@@Z$1 00419fd4 f   * CIL library *:* CIL module *
 0001:00018fd4       __unwindfunclet$??0?$clone_impl@U?$error_info_injector@Vbad_lexical_cast@boost@@@exception_detail@boost@@@exception_detail@boost@@AAE@ABV012@Uclone_tag@012@@Z$1 00419fd4 f   * CIL library *:* CIL module *
 0001:00018fdc       __ehhandler$??0?$clone_impl@U?$error_info_injector@Vbad_lexical_cast@boost@@@exception_detail@boost@@@exception_detail@boost@@QAE@ABU?$error_info_injector@Vbad_lexical_cast@boost@@@12@@Z 00419fdc f   * CIL library *:* CIL module *
 0001:00018fdc       __ehhandler$??0?$clone_impl@U?$error_info_injector@Vbad_lexical_cast@boost@@@exception_detail@boost@@@exception_detail@boost@@AAE@ABV012@Uclone_tag@012@@Z 00419fdc f   * CIL library *:* CIL module *
 0001:00019000       __unwindfunclet$??0?$clone_impl@U?$error_info_injector@Vbad_lexical_cast@boost@@@exception_detail@boost@@@exception_detail@boost@@QAE@ABV012@@Z$0 0041a000 f   * CIL library *:* CIL module *
 0001:0001901c       __unwindfunclet$??0?$clone_impl@U?$error_info_injector@Vbad_lexical_cast@boost@@@exception_detail@boost@@@exception_detail@boost@@QAE@ABV012@@Z$2 0041a01c f   * CIL library *:* CIL module *
 0001:00019024       __ehhandler$??0?$clone_impl@U?$error_info_injector@Vbad_lexical_cast@boost@@@exception_detail@boost@@@exception_detail@boost@@QAE@ABV012@@Z 0041a024 f   * CIL library *:* CIL module *
 0001:00019040       __unwindfunclet$??0?$clone_impl@U?$error_info_injector@Vini_parser_error@ini_parser@property_tree@boost@@@exception_detail@boost@@@exception_detail@boost@@AAE@ABV012@Uclone_tag@012@@Z$0 0041a040 f   * CIL library *:* CIL module *
 0001:00019040       __unwindfunclet$??0?$clone_impl@U?$error_info_injector@Vini_parser_error@ini_parser@property_tree@boost@@@exception_detail@boost@@@exception_detail@boost@@QAE@ABU?$error_info_injector@Vini_parser_error@ini_parser@property_tree@boost@@@12@@Z$0 0041a040 f   * CIL library *:* CIL module *
 0001:0001905c       __unwindfunclet$??0?$clone_impl@U?$error_info_injector@Vini_parser_error@ini_parser@property_tree@boost@@@exception_detail@boost@@@exception_detail@boost@@AAE@ABV012@Uclone_tag@012@@Z$2 0041a05c f   * CIL library *:* CIL module *
 0001:0001905c       __unwindfunclet$??0?$clone_impl@U?$error_info_injector@Vini_parser_error@ini_parser@property_tree@boost@@@exception_detail@boost@@@exception_detail@boost@@QAE@ABU?$error_info_injector@Vini_parser_error@ini_parser@property_tree@boost@@@12@@Z$2 0041a05c f   * CIL library *:* CIL module *
 0001:00019064       __unwindfunclet$??0?$clone_impl@U?$error_info_injector@Vini_parser_error@ini_parser@property_tree@boost@@@exception_detail@boost@@@exception_detail@boost@@AAE@ABV012@Uclone_tag@012@@Z$1 0041a064 f   * CIL library *:* CIL module *
 0001:00019064       __unwindfunclet$??0?$clone_impl@U?$error_info_injector@Vini_parser_error@ini_parser@property_tree@boost@@@exception_detail@boost@@@exception_detail@boost@@QAE@ABU?$error_info_injector@Vini_parser_error@ini_parser@property_tree@boost@@@12@@Z$1 0041a064 f   * CIL library *:* CIL module *
 0001:0001906c       __ehhandler$??0?$clone_impl@U?$error_info_injector@Vini_parser_error@ini_parser@property_tree@boost@@@exception_detail@boost@@@exception_detail@boost@@QAE@ABU?$error_info_injector@Vini_parser_error@ini_parser@property_tree@boost@@@12@@Z 0041a06c f   * CIL library *:* CIL module *
 0001:0001906c       __ehhandler$??0?$clone_impl@U?$error_info_injector@Vini_parser_error@ini_parser@property_tree@boost@@@exception_detail@boost@@@exception_detail@boost@@AAE@ABV012@Uclone_tag@012@@Z 0041a06c f   * CIL library *:* CIL module *
 0001:00019090       __unwindfunclet$??0?$clone_impl@U?$error_info_injector@Vini_parser_error@ini_parser@property_tree@boost@@@exception_detail@boost@@@exception_detail@boost@@QAE@ABV012@@Z$0 0041a090 f   * CIL library *:* CIL module *
 0001:000190ac       __unwindfunclet$??0?$clone_impl@U?$error_info_injector@Vini_parser_error@ini_parser@property_tree@boost@@@exception_detail@boost@@@exception_detail@boost@@QAE@ABV012@@Z$2 0041a0ac f   * CIL library *:* CIL module *
 0001:000190b4       __ehhandler$??0?$clone_impl@U?$error_info_injector@Vini_parser_error@ini_parser@property_tree@boost@@@exception_detail@boost@@@exception_detail@boost@@QAE@ABV012@@Z 0041a0b4 f   * CIL library *:* CIL module *
 0001:000190d0       __unwindfunclet$??0?$clone_impl@U?$error_info_injector@Vptree_bad_path@property_tree@boost@@@exception_detail@boost@@@exception_detail@boost@@QAE@ABU?$error_info_injector@Vptree_bad_path@property_tree@boost@@@12@@Z$0 0041a0d0 f   * CIL library *:* CIL module *
 0001:000190d0       __unwindfunclet$??0?$clone_impl@U?$error_info_injector@Vptree_bad_path@property_tree@boost@@@exception_detail@boost@@@exception_detail@boost@@AAE@ABV012@Uclone_tag@012@@Z$0 0041a0d0 f   * CIL library *:* CIL module *
 0001:000190ec       __unwindfunclet$??0?$clone_impl@U?$error_info_injector@Vptree_bad_path@property_tree@boost@@@exception_detail@boost@@@exception_detail@boost@@AAE@ABV012@Uclone_tag@012@@Z$1 0041a0ec f   * CIL library *:* CIL module *
 0001:000190ec       __unwindfunclet$??0?$clone_impl@U?$error_info_injector@Vptree_bad_path@property_tree@boost@@@exception_detail@boost@@@exception_detail@boost@@QAE@ABU?$error_info_injector@Vptree_bad_path@property_tree@boost@@@12@@Z$1 0041a0ec f   * CIL library *:* CIL module *
 0001:000190f4       __ehhandler$??0?$clone_impl@U?$error_info_injector@Vptree_bad_path@property_tree@boost@@@exception_detail@boost@@@exception_detail@boost@@QAE@ABU?$error_info_injector@Vptree_bad_path@property_tree@boost@@@12@@Z 0041a0f4 f   * CIL library *:* CIL module *
 0001:000190f4       __ehhandler$??0?$clone_impl@U?$error_info_injector@Vptree_bad_path@property_tree@boost@@@exception_detail@boost@@@exception_detail@boost@@AAE@ABV012@Uclone_tag@012@@Z 0041a0f4 f   * CIL library *:* CIL module *
 0001:00019110       __unwindfunclet$??0?$clone_impl@U?$error_info_injector@Vptree_bad_path@property_tree@boost@@@exception_detail@boost@@@exception_detail@boost@@QAE@ABV012@@Z$0 0041a110 f   * CIL library *:* CIL module *
 0001:0001912c       __ehhandler$??0?$clone_impl@U?$error_info_injector@Vptree_bad_path@property_tree@boost@@@exception_detail@boost@@@exception_detail@boost@@QAE@ABV012@@Z 0041a12c f   * CIL library *:* CIL module *
 0001:00019150       __unwindfunclet$??0?$error_info_injector@Vbad_function_call@boost@@@exception_detail@boost@@QAE@ABU012@@Z$0 0041a150 f   * CIL library *:* CIL module *
 0001:00019158       __ehhandler$??0?$error_info_injector@Vbad_function_call@boost@@@exception_detail@boost@@QAE@ABU012@@Z 0041a158 f   * CIL library *:* CIL module *
 0001:00019180       __unwindfunclet$??0?$error_info_injector@Vbad_lexical_cast@boost@@@exception_detail@boost@@QAE@ABU012@@Z$0 0041a180 f   * CIL library *:* CIL module *
 0001:00019188       __ehhandler$??0?$error_info_injector@Vbad_lexical_cast@boost@@@exception_detail@boost@@QAE@ABU012@@Z 0041a188 f   * CIL library *:* CIL module *
 0001:000191b0       __unwindfunclet$??0?$error_info_injector@Vini_parser_error@ini_parser@property_tree@boost@@@exception_detail@boost@@QAE@ABU012@@Z$0 0041a1b0 f   * CIL library *:* CIL module *
 0001:000191b8       __ehhandler$??0?$error_info_injector@Vini_parser_error@ini_parser@property_tree@boost@@@exception_detail@boost@@QAE@ABU012@@Z 0041a1b8 f   * CIL library *:* CIL module *
 0001:000191e0       __unwindfunclet$??0?$error_info_injector@Vptree_bad_path@property_tree@boost@@@exception_detail@boost@@QAE@ABU012@@Z$2 0041a1e0 f   * CIL library *:* CIL module *
 0001:000191e8       __unwindfunclet$??0?$error_info_injector@Vptree_bad_path@property_tree@boost@@@exception_detail@boost@@QAE@ABU012@@Z$0 0041a1e8 f   * CIL library *:* CIL module *
 0001:000191f0       __ehhandler$??0?$error_info_injector@Vptree_bad_path@property_tree@boost@@@exception_detail@boost@@QAE@ABU012@@Z 0041a1f0 f   * CIL library *:* CIL module *
 0001:00019210       __unwindfunclet$??0?$holder@V?$string_path@V?$basic_string@DU?$char_traits@D@std@@V?$allocator@D@2@@std@@U?$id_translator@V?$basic_string@DU?$char_traits@D@std@@V?$allocator@D@2@@std@@@property_tree@boost@@@property_tree@boost@@@any@boost@@QAE@ABV?$string_path@V?$basic_string@DU?$char_traits@D@std@@V?$allocator@D@2@@std@@U?$id_translator@V?$basic_string@DU?$char_traits@D@std@@V?$allocator@D@2@@std@@@property_tree@boost@@@property_tree@2@@Z$0 0041a210 f   * CIL library *:* CIL module *
 0001:00019218       __ehhandler$??0?$holder@V?$string_path@V?$basic_string@DU?$char_traits@D@std@@V?$allocator@D@2@@std@@U?$id_translator@V?$basic_string@DU?$char_traits@D@std@@V?$allocator@D@2@@std@@@property_tree@boost@@@property_tree@boost@@@any@boost@@QAE@ABV?$string_path@V?$basic_string@DU?$char_traits@D@std@@V?$allocator@D@2@@std@@U?$id_translator@V?$basic_string@DU?$char_traits@D@std@@V?$allocator@D@2@@std@@@property_tree@boost@@@property_tree@2@@Z 0041a218 f   * CIL library *:* CIL module *
 0001:00019240       __unwindfunclet$??0?$multi_index_container@U?$pair@$$CBV?$basic_string@DU?$char_traits@D@std@@V?$allocator@D@2@@std@@V?$basic_ptree@V?$basic_string@DU?$char_traits@D@std@@V?$allocator@D@2@@std@@V12@U?$less@V?$basic_string@DU?$char_traits@D@std@@V?$allocator@D@2@@std@@@2@@property_tree@boost@@@std@@U?$indexed_by@U?$sequenced@U?$tag@Una@mpl@boost@@U123@U123@U123@U123@U123@U123@U123@U123@U123@U123@U123@U123@U123@U123@U123@U123@U123@U123@U123@@multi_index@boost@@@multi_index@boost@@U?$ordered_non_unique@U?$tag@Uby_name@subs@?$basic_ptree@V?$basic_string@DU?$char_traits@D@std@@V?$allocator@D@2@@std@@V12@U?$less@V?$basic_string@DU?$char_traits@D@std@@V?$allocator@D@2@@std@@@2@@property_tree@boost@@Una@mpl@5@U675@U675@U675@U675@U675@U675@U675@U675@U675@U675@U675@U675@U675@U675@U675@U675@U675@U675@@multi_index@boost@@U?$member@U?$pair@$$CBV?$basic_string@DU?$char_traits@D@std@@V?$allocator@D@2@@std@@V?$basic_ptree@V?$basic_string@DU?$char_traits@D@std@@V?$allocator@D@2@@std@@V12@U?$less@V?$basic_string@DU?$char_traits@D@std@@V?$allocator@D@2@@std@@@2@@property_tree@boost@@@std@@$$CBV?$basic_string@DU?$char_traits@D@std@@V?$allocator@D@2@@2@$0A@@23@U?$less@V?$basic_string@DU?$char_traits@D@std@@V?$allocator@D@2@@std@@@std@@@23@Una@mpl@3@U563@U563@U563@U563@U563@U563@U563@U563@U563@U563@U563@U563@U563@U563@U563@U563@U563@@multi_index@boost@@V?$allocator@U?$pair@$$CBV?$basic_string@DU?$char_traits@D@std@@V?$allocator@D@2@@std@@V?$basic_ptree@V?$basic_string@DU?$char_traits@D@std@@V?$allocator@D@2@@std@@V12@U?$less@V?$basic_string@DU?$char_traits@D@std@@V?$allocator@D@2@@std@@@2@@property_tree@boost@@@std@@@2@@multi_index@boost@@QAE@ABV012@@Z$0 0041a240 f   * CIL library *:* CIL module *
 0001:0001924b       __unwindfunclet$??0?$multi_index_container@U?$pair@$$CBV?$basic_string@DU?$char_traits@D@std@@V?$allocator@D@2@@std@@V?$basic_ptree@V?$basic_string@DU?$char_traits@D@std@@V?$allocator@D@2@@std@@V12@U?$less@V?$basic_string@DU?$char_traits@D@std@@V?$allocator@D@2@@std@@@2@@property_tree@boost@@@std@@U?$indexed_by@U?$sequenced@U?$tag@Una@mpl@boost@@U123@U123@U123@U123@U123@U123@U123@U123@U123@U123@U123@U123@U123@U123@U123@U123@U123@U123@U123@@multi_index@boost@@@multi_index@boost@@U?$ordered_non_unique@U?$tag@Uby_name@subs@?$basic_ptree@V?$basic_string@DU?$char_traits@D@std@@V?$allocator@D@2@@std@@V12@U?$less@V?$basic_string@DU?$char_traits@D@std@@V?$allocator@D@2@@std@@@2@@property_tree@boost@@Una@mpl@5@U675@U675@U675@U675@U675@U675@U675@U675@U675@U675@U675@U675@U675@U675@U675@U675@U675@U675@@multi_index@boost@@U?$member@U?$pair@$$CBV?$basic_string@DU?$char_traits@D@std@@V?$allocator@D@2@@std@@V?$basic_ptree@V?$basic_string@DU?$char_traits@D@std@@V?$allocator@D@2@@std@@V12@U?$less@V?$basic_string@DU?$char_traits@D@std@@V?$allocator@D@2@@std@@@2@@property_tree@boost@@@std@@$$CBV?$basic_string@DU?$char_traits@D@std@@V?$allocator@D@2@@2@$0A@@23@U?$less@V?$basic_string@DU?$char_traits@D@std@@V?$allocator@D@2@@std@@@std@@@23@Una@mpl@3@U563@U563@U563@U563@U563@U563@U563@U563@U563@U563@U563@U563@U563@U563@U563@U563@U563@@multi_index@boost@@V?$allocator@U?$pair@$$CBV?$basic_string@DU?$char_traits@D@std@@V?$allocator@D@2@@std@@V?$basic_ptree@V?$basic_string@DU?$char_traits@D@std@@V?$allocator@D@2@@std@@V12@U?$less@V?$basic_string@DU?$char_traits@D@std@@V?$allocator@D@2@@std@@@2@@property_tree@boost@@@std@@@2@@multi_index@boost@@QAE@ABV012@@Z$1 0041a24b f   * CIL library *:* CIL module *
 0001:00019253       __ehhandler$??0?$multi_index_container@U?$pair@$$CBV?$basic_string@DU?$char_traits@D@std@@V?$allocator@D@2@@std@@V?$basic_ptree@V?$basic_string@DU?$char_traits@D@std@@V?$allocator@D@2@@std@@V12@U?$less@V?$basic_string@DU?$char_traits@D@std@@V?$allocator@D@2@@std@@@2@@property_tree@boost@@@std@@U?$indexed_by@U?$sequenced@U?$tag@Una@mpl@boost@@U123@U123@U123@U123@U123@U123@U123@U123@U123@U123@U123@U123@U123@U123@U123@U123@U123@U123@U123@@multi_index@boost@@@multi_index@boost@@U?$ordered_non_unique@U?$tag@Uby_name@subs@?$basic_ptree@V?$basic_string@DU?$char_traits@D@std@@V?$allocator@D@2@@std@@V12@U?$less@V?$basic_string@DU?$char_traits@D@std@@V?$allocator@D@2@@std@@@2@@property_tree@boost@@Una@mpl@5@U675@U675@U675@U675@U675@U675@U675@U675@U675@U675@U675@U675@U675@U675@U675@U675@U675@U675@@multi_index@boost@@U?$member@U?$pair@$$CBV?$basic_string@DU?$char_traits@D@std@@V?$allocator@D@2@@std@@V?$basic_ptree@V?$basic_string@DU?$char_traits@D@std@@V?$allocator@D@2@@std@@V12@U?$less@V?$basic_string@DU?$char_traits@D@std@@V?$allocator@D@2@@std@@@2@@property_tree@boost@@@std@@$$CBV?$basic_string@DU?$char_traits@D@std@@V?$allocator@D@2@@2@$0A@@23@U?$less@V?$basic_string@DU?$char_traits@D@std@@V?$allocator@D@2@@std@@@std@@@23@Una@mpl@3@U563@U563@U563@U563@U563@U563@U563@U563@U563@U563@U563@U563@U563@U563@U563@U563@U563@@multi_index@boost@@V?$allocator@U?$pair@$$CBV?$basic_string@DU?$char_traits@D@std@@V?$allocator@D@2@@std@@V?$basic_ptree@V?$basic_string@DU?$char_traits@D@std@@V?$allocator@D@2@@std@@V12@U?$less@V?$basic_string@DU?$char_traits@D@std@@V?$allocator@D@2@@std@@@2@@property_tree@boost@@@std@@@2@@multi_index@boost@@QAE@ABV012@@Z 0041a253 f   * CIL library *:* CIL module *
 0001:00019270       __unwindfunclet$??0file_parser_error@property_tree@boost@@QAE@ABV012@@Z$0 0041a270 f   * CIL library *:* CIL module *
 0001:00019278       __unwindfunclet$??0file_parser_error@property_tree@boost@@QAE@ABV012@@Z$1 0041a278 f   * CIL library *:* CIL module *
 0001:00019283       __ehhandler$??0file_parser_error@property_tree@boost@@QAE@ABV012@@Z 0041a283 f   * CIL library *:* CIL module *
 0001:000192a0       __unwindfunclet$??0file_parser_error@property_tree@boost@@QAE@ABV?$basic_string@DU?$char_traits@D@std@@V?$allocator@D@2@@std@@0K@Z$0 0041a2a0 f   * CIL library *:* CIL module *
 0001:000192a8       __unwindfunclet$??0file_parser_error@property_tree@boost@@QAE@ABV?$basic_string@DU?$char_traits@D@std@@V?$allocator@D@2@@std@@0K@Z$1 0041a2a8 f   * CIL library *:* CIL module *
 0001:000192b0       __unwindfunclet$??0file_parser_error@property_tree@boost@@QAE@ABV?$basic_string@DU?$char_traits@D@std@@V?$allocator@D@2@@std@@0K@Z$2 0041a2b0 f   * CIL library *:* CIL module *
 0001:000192bb       __ehhandler$??0file_parser_error@property_tree@boost@@QAE@ABV?$basic_string@DU?$char_traits@D@std@@V?$allocator@D@2@@std@@0K@Z 0041a2bb f   * CIL library *:* CIL module *
 0001:000192e0       __unwindfunclet$??0ptree_bad_path@property_tree@boost@@QAE@ABV012@@Z$0 0041a2e0 f   * CIL library *:* CIL module *
 0001:000192e0       __unwindfunclet$??0?$error_info_injector@Vptree_bad_path@property_tree@boost@@@exception_detail@boost@@QAE@ABVptree_bad_path@property_tree@2@@Z$2 0041a2e0 f   * CIL library *:* CIL module *
 0001:000192e8       __ehhandler$??0ptree_bad_path@property_tree@boost@@QAE@ABV012@@Z 0041a2e8 f   * CIL library *:* CIL module *
 0001:000192e8       __ehhandler$??0?$error_info_injector@Vptree_bad_path@property_tree@boost@@@exception_detail@boost@@QAE@ABVptree_bad_path@property_tree@2@@Z 0041a2e8 f   * CIL library *:* CIL module *
 0001:00019310       __unwindfunclet$??0zone_info_t@@QAE@ABU0@@Z$0 0041a310 f   * CIL library *:* CIL module *
 0001:00019318       __unwindfunclet$??0zone_info_t@@QAE@ABU0@@Z$1 0041a318 f   * CIL library *:* CIL module *
 0001:00019323       __ehhandler$??0zone_info_t@@QAE@ABU0@@Z 0041a323 f   * CIL library *:* CIL module *
 0001:00019340       __unwindfunclet$??1?$basic_ptree@V?$basic_string@DU?$char_traits@D@std@@V?$allocator@D@2@@std@@V12@U?$less@V?$basic_string@DU?$char_traits@D@std@@V?$allocator@D@2@@std@@@2@@property_tree@boost@@QAE@XZ$0 0041a340 f   * CIL library *:* CIL module *
 0001:00019348       __unwindfunclet$??1?$basic_ptree@V?$basic_string@DU?$char_traits@D@std@@V?$allocator@D@2@@std@@V12@U?$less@V?$basic_string@DU?$char_traits@D@std@@V?$allocator@D@2@@std@@@2@@property_tree@boost@@QAE@XZ$1 0041a348 f   * CIL library *:* CIL module *
 0001:00019353       __ehhandler$??1?$basic_ptree@V?$basic_string@DU?$char_traits@D@std@@V?$allocator@D@2@@std@@V12@U?$less@V?$basic_string@DU?$char_traits@D@std@@V?$allocator@D@2@@std@@@2@@property_tree@boost@@QAE@XZ 0041a353 f   * CIL library *:* CIL module *
 0001:00019370       __unwindfunclet$??1?$copy_map@U?$sequenced_index_node@U?$ordered_index_node@U?$index_node_base@U?$pair@$$CBV?$basic_string@DU?$char_traits@D@std@@V?$allocator@D@2@@std@@V?$basic_ptree@V?$basic_string@DU?$char_traits@D@std@@V?$allocator@D@2@@std@@V12@U?$less@V?$basic_string@DU?$char_traits@D@std@@V?$allocator@D@2@@std@@@2@@property_tree@boost@@@std@@V?$allocator@U?$pair@$$CBV?$basic_string@DU?$char_traits@D@std@@V?$allocator@D@2@@std@@V?$basic_ptree@V?$basic_string@DU?$char_traits@D@std@@V?$allocator@D@2@@std@@V12@U?$less@V?$basic_string@DU?$char_traits@D@std@@V?$allocator@D@2@@std@@@2@@property_tree@boost@@@std@@@2@@detail@multi_index@boost@@@detail@multi_index@boost@@@detail@multi_index@boost@@V?$allocator@U?$pair@$$CBV?$basic_string@DU?$char_traits@D@std@@V?$allocator@D@2@@std@@V?$basic_ptree@V?$basic_string@DU?$char_traits@D@std@@V?$allocator@D@2@@std@@V12@U?$less@V?$basic_string@DU?$char_traits@D@std@@V?$allocator@D@2@@std@@@2@@property_tree@boost@@@std@@@std@@@detail@multi_index@boost@@QAE@XZ$0 0041a370 f   * CIL library *:* CIL module *
 0001:0001937b       __unwindfunclet$??1?$copy_map@U?$sequenced_index_node@U?$ordered_index_node@U?$index_node_base@U?$pair@$$CBV?$basic_string@DU?$char_traits@D@std@@V?$allocator@D@2@@std@@V?$basic_ptree@V?$basic_string@DU?$char_traits@D@std@@V?$allocator@D@2@@std@@V12@U?$less@V?$basic_string@DU?$char_traits@D@std@@V?$allocator@D@2@@std@@@2@@property_tree@boost@@@std@@V?$allocator@U?$pair@$$CBV?$basic_string@DU?$char_traits@D@std@@V?$allocator@D@2@@std@@V?$basic_ptree@V?$basic_string@DU?$char_traits@D@std@@V?$allocator@D@2@@std@@V12@U?$less@V?$basic_string@DU?$char_traits@D@std@@V?$allocator@D@2@@std@@@2@@property_tree@boost@@@std@@@2@@detail@multi_index@boost@@@detail@multi_index@boost@@@detail@multi_index@boost@@V?$allocator@U?$pair@$$CBV?$basic_string@DU?$char_traits@D@std@@V?$allocator@D@2@@std@@V?$basic_ptree@V?$basic_string@DU?$char_traits@D@std@@V?$allocator@D@2@@std@@V12@U?$less@V?$basic_string@DU?$char_traits@D@std@@V?$allocator@D@2@@std@@@2@@property_tree@boost@@@std@@@std@@@detail@multi_index@boost@@QAE@XZ$1 0041a37b f   * CIL library *:* CIL module *
 0001:00019383       __ehhandler$??1?$copy_map@U?$sequenced_index_node@U?$ordered_index_node@U?$index_node_base@U?$pair@$$CBV?$basic_string@DU?$char_traits@D@std@@V?$allocator@D@2@@std@@V?$basic_ptree@V?$basic_string@DU?$char_traits@D@std@@V?$allocator@D@2@@std@@V12@U?$less@V?$basic_string@DU?$char_traits@D@std@@V?$allocator@D@2@@std@@@2@@property_tree@boost@@@std@@V?$allocator@U?$pair@$$CBV?$basic_string@DU?$char_traits@D@std@@V?$allocator@D@2@@std@@V?$basic_ptree@V?$basic_string@DU?$char_traits@D@std@@V?$allocator@D@2@@std@@V12@U?$less@V?$basic_string@DU?$char_traits@D@std@@V?$allocator@D@2@@std@@@2@@property_tree@boost@@@std@@@2@@detail@multi_index@boost@@@detail@multi_index@boost@@@detail@multi_index@boost@@V?$allocator@U?$pair@$$CBV?$basic_string@DU?$char_traits@D@std@@V?$allocator@D@2@@std@@V?$basic_ptree@V?$basic_string@DU?$char_traits@D@std@@V?$allocator@D@2@@std@@V12@U?$less@V?$basic_string@DU?$char_traits@D@std@@V?$allocator@D@2@@std@@@2@@property_tree@boost@@@std@@@std@@@detail@multi_index@boost@@QAE@XZ 0041a383 f   * CIL library *:* CIL module *
 0001:000193a0       __unwindfunclet$??1?$pair@$$CBV?$basic_string@DU?$char_traits@D@std@@V?$allocator@D@2@@std@@V?$basic_ptree@V?$basic_string@DU?$char_traits@D@std@@V?$allocator@D@2@@std@@V12@U?$less@V?$basic_string@DU?$char_traits@D@std@@V?$allocator@D@2@@std@@@2@@property_tree@boost@@@std@@QAE@XZ$0 0041a3a0 f   * CIL library *:* CIL module *
 0001:000193a8       __ehhandler$??1?$pair@$$CBV?$basic_string@DU?$char_traits@D@std@@V?$allocator@D@2@@std@@V?$basic_ptree@V?$basic_string@DU?$char_traits@D@std@@V?$allocator@D@2@@std@@V12@U?$less@V?$basic_string@DU?$char_traits@D@std@@V?$allocator@D@2@@std@@@2@@property_tree@boost@@@std@@QAE@XZ 0041a3a8 f   * CIL library *:* CIL module *
 0001:000193d0       __unwindfunclet$??1?$pair@V?$basic_string@DU?$char_traits@D@std@@V?$allocator@D@2@@std@@V?$basic_ptree@V?$basic_string@DU?$char_traits@D@std@@V?$allocator@D@2@@std@@V12@U?$less@V?$basic_string@DU?$char_traits@D@std@@V?$allocator@D@2@@std@@@2@@property_tree@boost@@@std@@QAE@XZ$0 0041a3d0 f   * CIL library *:* CIL module *
 0001:000193d8       __unwindfunclet$??1?$pair@V?$basic_string@DU?$char_traits@D@std@@V?$allocator@D@2@@std@@V?$basic_ptree@V?$basic_string@DU?$char_traits@D@std@@V?$allocator@D@2@@std@@V12@U?$less@V?$basic_string@DU?$char_traits@D@std@@V?$allocator@D@2@@std@@@2@@property_tree@boost@@@std@@QAE@XZ$2 0041a3d8 f   * CIL library *:* CIL module *
 0001:000193e0       __unwindfunclet$??1?$pair@V?$basic_string@DU?$char_traits@D@std@@V?$allocator@D@2@@std@@V?$basic_ptree@V?$basic_string@DU?$char_traits@D@std@@V?$allocator@D@2@@std@@V12@U?$less@V?$basic_string@DU?$char_traits@D@std@@V?$allocator@D@2@@std@@@2@@property_tree@boost@@@std@@QAE@XZ$3 0041a3e0 f   * CIL library *:* CIL module *
 0001:000193eb       __ehhandler$??1?$pair@V?$basic_string@DU?$char_traits@D@std@@V?$allocator@D@2@@std@@V?$basic_ptree@V?$basic_string@DU?$char_traits@D@std@@V?$allocator@D@2@@std@@V12@U?$less@V?$basic_string@DU?$char_traits@D@std@@V?$allocator@D@2@@std@@@2@@property_tree@boost@@@std@@QAE@XZ 0041a3eb f   * CIL library *:* CIL module *
 0001:00019410       __unwindfunclet$??8locale@std@@QBE_NABV01@@Z$0 0041a410 f   * CIL library *:* CIL module *
 0001:00019429       __unwindfunclet$??8locale@std@@QBE_NABV01@@Z$1 0041a429 f   * CIL library *:* CIL module *
 0001:00019442       __ehhandler$??8locale@std@@QBE_NABV01@@Z 0041a442 f   * CIL library *:* CIL module *
 0001:00019470       __unwindfunclet$??R?$function2@V?$iterator_range@V?$_String_iterator@V?$_String_val@U?$_Simple_types@D@std@@@std@@@std@@@boost@@V?$_String_iterator@V?$_String_val@U?$_Simple_types@D@std@@@std@@@std@@V34@@boost@@QBE?AV?$iterator_range@V?$_String_iterator@V?$_String_val@U?$_Simple_types@D@std@@@std@@@std@@@1@V?$_String_iterator@V?$_String_val@U?$_Simple_types@D@std@@@std@@@std@@0@Z$0 0041a470 f   * CIL library *:* CIL module *
 0001:00019478       __unwindfunclet$??R?$function2@V?$iterator_range@V?$_String_iterator@V?$_String_val@U?$_Simple_types@D@std@@@std@@@std@@@boost@@V?$_String_iterator@V?$_String_val@U?$_Simple_types@D@std@@@std@@@std@@V34@@boost@@QBE?AV?$iterator_range@V?$_String_iterator@V?$_String_val@U?$_Simple_types@D@std@@@std@@@std@@@1@V?$_String_iterator@V?$_String_val@U?$_Simple_types@D@std@@@std@@@std@@0@Z$3 0041a478 f   * CIL library *:* CIL module *
 0001:00019480       __ehhandler$??R?$function2@V?$iterator_range@V?$_String_iterator@V?$_String_val@U?$_Simple_types@D@std@@@std@@@std@@@boost@@V?$_String_iterator@V?$_String_val@U?$_Simple_types@D@std@@@std@@@std@@V34@@boost@@QBE?AV?$iterator_range@V?$_String_iterator@V?$_String_val@U?$_Simple_types@D@std@@@std@@@std@@@1@V?$_String_iterator@V?$_String_val@U?$_Simple_types@D@std@@@std@@@std@@0@Z 0041a480 f   * CIL library *:* CIL module *
 0001:000194a0       __ehhandler$?_Copy@?$basic_string@DU?$char_traits@D@std@@V?$allocator@D@2@@std@@QAEXII@Z 0041a4a0 f   * CIL library *:* CIL module *
 0001:000194c0       __unwindfunclet$?_Endwrite@?$basic_filebuf@DU?$char_traits@D@std@@@std@@IAE_NXZ$0 0041a4c0 f   * CIL library *:* CIL module *
 0001:000194c8       __ehhandler$?_Endwrite@?$basic_filebuf@DU?$char_traits@D@std@@@std@@IAE_NXZ 0041a4c8 f   * CIL library *:* CIL module *
 0001:000194f0       __unwindfunclet$?_Getcat@?$numpunct@D@std@@SAIPAPBVfacet@locale@2@PBV42@@Z$0 0041a4f0 f   * CIL library *:* CIL module *
 0001:000194fc       __unwindfunclet$?_Getcat@?$numpunct@D@std@@SAIPAPBVfacet@locale@2@PBV42@@Z$1 0041a4fc f   * CIL library *:* CIL module *
 0001:00019516       __unwindfunclet$?_Getcat@?$numpunct@D@std@@SAIPAPBVfacet@locale@2@PBV42@@Z$2 0041a516 f   * CIL library *:* CIL module *
 0001:0001951f       __ehhandler$?_Getcat@?$numpunct@D@std@@SAIPAPBVfacet@locale@2@PBV42@@Z 0041a51f f   * CIL library *:* CIL module *
 0001:00019540       __ehhandler$?_Init@?$numpunct@D@std@@IAEXABV_Locinfo@2@_N@Z 0041a540 f   * CIL library *:* CIL module *
 0001:00019570       __ehhandler$?_Reallocate@?$vector@Umap_point_t@@V?$allocator@Umap_point_t@@@std@@@std@@IAEXI@Z 0041a570 f   * CIL library *:* CIL module *
 0001:00019590       __ehhandler$?_Reallocate@?$vector@Uzone_info_t@@V?$allocator@Uzone_info_t@@@std@@@std@@IAEXI@Z 0041a590 f   * CIL library *:* CIL module *
 0001:000195b0       __unwindfunclet$?bar_zones_button_zone_name@@YGXPAX@Z$0 0041a5b0 f   * CIL library *:* CIL module *
 0001:000195b8       __ehhandler$?bar_zones_button_zone_name@@YGXPAX@Z 0041a5b8 f   * CIL library *:* CIL module *
 0001:000195e0       __unwindfunclet$?bar_zones_create@@YAXXZ$0 0041a5e0 f   * CIL library *:* CIL module *
 0001:000195eb       __unwindfunclet$?bar_zones_create@@YAXXZ$1 0041a5eb f   * CIL library *:* CIL module *
 0001:000195f6       __unwindfunclet$?bar_zones_create@@YAXXZ$2 0041a5f6 f   * CIL library *:* CIL module *
 0001:000195fe       __unwindfunclet$?bar_zones_create@@YAXXZ$3 0041a5fe f   * CIL library *:* CIL module *
 0001:00019609       __unwindfunclet$?bar_zones_create@@YAXXZ$4 0041a609 f   * CIL library *:* CIL module *
 0001:00019611       __unwindfunclet$?bar_zones_create@@YAXXZ$5 0041a611 f   * CIL library *:* CIL module *
 0001:0001961c       __unwindfunclet$?bar_zones_create@@YAXXZ$7 0041a61c f   * CIL library *:* CIL module *
 0001:0001962b       __unwindfunclet$?bar_zones_create@@YAXXZ$8 0041a62b f   * CIL library *:* CIL module *
 0001:00019633       __unwindfunclet$?bar_zones_create@@YAXXZ$9 0041a633 f   * CIL library *:* CIL module *
 0001:0001963e       __unwindfunclet$?bar_zones_create@@YAXXZ$10 0041a63e f   * CIL library *:* CIL module *
 0001:00019649       __unwindfunclet$?bar_zones_create@@YAXXZ$11 0041a649 f   * CIL library *:* CIL module *
 0001:00019651       __unwindfunclet$?bar_zones_create@@YAXXZ$13 0041a651 f   * CIL library *:* CIL module *
 0001:0001965c       __ehhandler$?bar_zones_create@@YAXXZ 0041a65c f   * CIL library *:* CIL module *
 0001:00019690       __unwindfunclet$?clone@?$clone_impl@U?$error_info_injector@Vptree_bad_path@property_tree@boost@@@exception_detail@boost@@@exception_detail@boost@@EBEPBVclone_base@23@XZ$0 0041a690 f   * CIL library *:* CIL module *
 0001:00019690       __unwindfunclet$?clone@?$clone_impl@U?$error_info_injector@Vbad_function_call@boost@@@exception_detail@boost@@@exception_detail@boost@@EBEPBVclone_base@23@XZ$0 0041a690 f   * CIL library *:* CIL module *
 0001:00019690       __unwindfunclet$?clone@?$clone_impl@U?$error_info_injector@Vini_parser_error@ini_parser@property_tree@boost@@@exception_detail@boost@@@exception_detail@boost@@EBEPBVclone_base@23@XZ$0 0041a690 f   * CIL library *:* CIL module *
 0001:00019690       __unwindfunclet$?clone@?$clone_impl@U?$error_info_injector@Vbad_lexical_cast@boost@@@exception_detail@boost@@@exception_detail@boost@@EBEPBVclone_base@23@XZ$0 0041a690 f   * CIL library *:* CIL module *
 0001:0001969c       __ehhandler$?clone@?$clone_impl@U?$error_info_injector@Vbad_lexical_cast@boost@@@exception_detail@boost@@@exception_detail@boost@@EBEPBVclone_base@23@XZ 0041a69c f   * CIL library *:* CIL module *
 0001:0001969c       __ehhandler$?clone@?$clone_impl@U?$error_info_injector@Vptree_bad_path@property_tree@boost@@@exception_detail@boost@@@exception_detail@boost@@EBEPBVclone_base@23@XZ 0041a69c f   * CIL library *:* CIL module *
 0001:0001969c       __ehhandler$?clone@?$clone_impl@U?$error_info_injector@Vbad_function_call@boost@@@exception_detail@boost@@@exception_detail@boost@@EBEPBVclone_base@23@XZ 0041a69c f   * CIL library *:* CIL module *
 0001:0001969c       __ehhandler$?clone@?$clone_impl@U?$error_info_injector@Vini_parser_error@ini_parser@property_tree@boost@@@exception_detail@boost@@@exception_detail@boost@@EBEPBVclone_base@23@XZ 0041a69c f   * CIL library *:* CIL module *
 0001:000196c0       __unwindfunclet$?clone@?$copy_map@U?$sequenced_index_node@U?$ordered_index_node@U?$index_node_base@U?$pair@$$CBV?$basic_string@DU?$char_traits@D@std@@V?$allocator@D@2@@std@@V?$basic_ptree@V?$basic_string@DU?$char_traits@D@std@@V?$allocator@D@2@@std@@V12@U?$less@V?$basic_string@DU?$char_traits@D@std@@V?$allocator@D@2@@std@@@2@@property_tree@boost@@@std@@V?$allocator@U?$pair@$$CBV?$basic_string@DU?$char_traits@D@std@@V?$allocator@D@2@@std@@V?$basic_ptree@V?$basic_string@DU?$char_traits@D@std@@V?$allocator@D@2@@std@@V12@U?$less@V?$basic_string@DU?$char_traits@D@std@@V?$allocator@D@2@@std@@@2@@property_tree@boost@@@std@@@2@@detail@multi_index@boost@@@detail@multi_index@boost@@@detail@multi_index@boost@@V?$allocator@U?$pair@$$CBV?$basic_string@DU?$char_traits@D@std@@V?$allocator@D@2@@std@@V?$basic_ptree@V?$basic_string@DU?$char_traits@D@std@@V?$allocator@D@2@@std@@V12@U?$less@V?$basic_string@DU?$char_traits@D@std@@V?$allocator@D@2@@std@@@2@@property_tree@boost@@@std@@@std@@@detail@multi_index@boost@@QAEXPAU?$sequenced_index_node@U?$ordered_index_node@U?$index_node_base@U?$pair@$$CBV?$basic_string@DU?$char_traits@D@std@@V?$allocator@D@2@@std@@V?$basic_ptree@V?$basic_string@DU?$char_traits@D@std@@V?$allocator@D@2@@std@@V12@U?$less@V?$basic_string@DU?$char_traits@D@std@@V?$allocator@D@2@@std@@@2@@property_tree@boost@@@std@@V?$allocator@U?$pair@$$CBV?$basic_string@DU?$char_traits@D@std@@V?$allocator@D@2@@std@@V?$basic_ptree@V?$basic_string@DU?$char_traits@D@std@@V?$allocator@D@2@@std@@V12@U?$less@V?$basic_string@DU?$char_traits@D@std@@V?$allocator@D@2@@std@@@2@@property_tree@boost@@@std@@@2@@detail@multi_index@boost@@@detail@multi_index@boost@@@234@@Z$2 0041a6c0 f   * CIL library *:* CIL module *
 0001:000196c5       __unwindfunclet$?clone@?$copy_map@U?$sequenced_index_node@U?$ordered_index_node@U?$index_node_base@U?$pair@$$CBV?$basic_string@DU?$char_traits@D@std@@V?$allocator@D@2@@std@@V?$basic_ptree@V?$basic_string@DU?$char_traits@D@std@@V?$allocator@D@2@@std@@V12@U?$less@V?$basic_string@DU?$char_traits@D@std@@V?$allocator@D@2@@std@@@2@@property_tree@boost@@@std@@V?$allocator@U?$pair@$$CBV?$basic_string@DU?$char_traits@D@std@@V?$allocator@D@2@@std@@V?$basic_ptree@V?$basic_string@DU?$char_traits@D@std@@V?$allocator@D@2@@std@@V12@U?$less@V?$basic_string@DU?$char_traits@D@std@@V?$allocator@D@2@@std@@@2@@property_tree@boost@@@std@@@2@@detail@multi_index@boost@@@detail@multi_index@boost@@@detail@multi_index@boost@@V?$allocator@U?$pair@$$CBV?$basic_string@DU?$char_traits@D@std@@V?$allocator@D@2@@std@@V?$basic_ptree@V?$basic_string@DU?$char_traits@D@std@@V?$allocator@D@2@@std@@V12@U?$less@V?$basic_string@DU?$char_traits@D@std@@V?$allocator@D@2@@std@@@2@@property_tree@boost@@@std@@@std@@@detail@multi_index@boost@@QAEXPAU?$sequenced_index_node@U?$ordered_index_node@U?$index_node_base@U?$pair@$$CBV?$basic_string@DU?$char_traits@D@std@@V?$allocator@D@2@@std@@V?$basic_ptree@V?$basic_string@DU?$char_traits@D@std@@V?$allocator@D@2@@std@@V12@U?$less@V?$basic_string@DU?$char_traits@D@std@@V?$allocator@D@2@@std@@@2@@property_tree@boost@@@std@@V?$allocator@U?$pair@$$CBV?$basic_string@DU?$char_traits@D@std@@V?$allocator@D@2@@std@@V?$basic_ptree@V?$basic_string@DU?$char_traits@D@std@@V?$allocator@D@2@@std@@V12@U?$less@V?$basic_string@DU?$char_traits@D@std@@V?$allocator@D@2@@std@@@2@@property_tree@boost@@@std@@@2@@detail@multi_index@boost@@@detail@multi_index@boost@@@234@@Z$3 0041a6c5 f   * CIL library *:* CIL module *
 0001:000196cd       __ehhandler$?clone@?$copy_map@U?$sequenced_index_node@U?$ordered_index_node@U?$index_node_base@U?$pair@$$CBV?$basic_string@DU?$char_traits@D@std@@V?$allocator@D@2@@std@@V?$basic_ptree@V?$basic_string@DU?$char_traits@D@std@@V?$allocator@D@2@@std@@V12@U?$less@V?$basic_string@DU?$char_traits@D@std@@V?$allocator@D@2@@std@@@2@@property_tree@boost@@@std@@V?$allocator@U?$pair@$$CBV?$basic_string@DU?$char_traits@D@std@@V?$allocator@D@2@@std@@V?$basic_ptree@V?$basic_string@DU?$char_traits@D@std@@V?$allocator@D@2@@std@@V12@U?$less@V?$basic_string@DU?$char_traits@D@std@@V?$allocator@D@2@@std@@@2@@property_tree@boost@@@std@@@2@@detail@multi_index@boost@@@detail@multi_index@boost@@@detail@multi_index@boost@@V?$allocator@U?$pair@$$CBV?$basic_string@DU?$char_traits@D@std@@V?$allocator@D@2@@std@@V?$basic_ptree@V?$basic_string@DU?$char_traits@D@std@@V?$allocator@D@2@@std@@V12@U?$less@V?$basic_string@DU?$char_traits@D@std@@V?$allocator@D@2@@std@@@2@@property_tree@boost@@@std@@@std@@@detail@multi_index@boost@@QAEXPAU?$sequenced_index_node@U?$ordered_index_node@U?$index_node_base@U?$pair@$$CBV?$basic_string@DU?$char_traits@D@std@@V?$allocator@D@2@@std@@V?$basic_ptree@V?$basic_string@DU?$char_traits@D@std@@V?$allocator@D@2@@std@@V12@U?$less@V?$basic_string@DU?$char_traits@D@std@@V?$allocator@D@2@@std@@@2@@property_tree@boost@@@std@@V?$allocator@U?$pair@$$CBV?$basic_string@DU?$char_traits@D@std@@V?$allocator@D@2@@std@@V?$basic_ptree@V?$basic_string@DU?$char_traits@D@std@@V?$allocator@D@2@@std@@V12@U?$less@V?$basic_string@DU?$char_traits@D@std@@V?$allocator@D@2@@std@@@2@@property_tree@boost@@@std@@@2@@detail@multi_index@boost@@@detail@multi_index@boost@@@234@@Z 0041a6cd f   * CIL library *:* CIL module *
 0001:000196f0       __unwindfunclet$?clone@?$holder@V?$string_path@V?$basic_string@DU?$char_traits@D@std@@V?$allocator@D@2@@std@@U?$id_translator@V?$basic_string@DU?$char_traits@D@std@@V?$allocator@D@2@@std@@@property_tree@boost@@@property_tree@boost@@@any@boost@@UBEPAVplaceholder@23@XZ$0 0041a6f0 f   * CIL library *:* CIL module *
 0001:000196fc       __ehhandler$?clone@?$holder@V?$string_path@V?$basic_string@DU?$char_traits@D@std@@V?$allocator@D@2@@std@@U?$id_translator@V?$basic_string@DU?$char_traits@D@std@@V?$allocator@D@2@@std@@@property_tree@boost@@@property_tree@boost@@@any@boost@@UBEPAVplaceholder@23@XZ 0041a6fc f   * CIL library *:* CIL module *
 0001:00019720       __unwindfunclet$?construct@?$allocator@Umap_point_t@@@std@@QAEXPAUmap_point_t@@ABU3@@Z$0 0041a720 f   * CIL library *:* CIL module *
 0001:00019720       __unwindfunclet$??$construct@Umap_point_t@@AAU1@@?$allocator@Umap_point_t@@@std@@QAEXPAUmap_point_t@@AAU2@@Z$0 0041a720 f   * CIL library *:* CIL module *
 0001:00019725       __ehhandler$?construct@?$allocator@Umap_point_t@@@std@@QAEXPAUmap_point_t@@ABU3@@Z 0041a725 f   * CIL library *:* CIL module *
 0001:00019725       __ehhandler$??$construct@Umap_point_t@@AAU1@@?$allocator@Umap_point_t@@@std@@QAEXPAUmap_point_t@@AAU2@@Z 0041a725 f   * CIL library *:* CIL module *
 0001:00019740       __unwindfunclet$?copy_boost_exception@exception_detail@boost@@YAXPAVexception@2@PBV32@@Z$0 0041a740 f   * CIL library *:* CIL module *
 0001:00019748       __unwindfunclet$?copy_boost_exception@exception_detail@boost@@YAXPAVexception@2@PBV32@@Z$1 0041a748 f   * CIL library *:* CIL module *
 0001:00019750       __ehhandler$?copy_boost_exception@exception_detail@boost@@YAXPAVexception@2@PBV32@@Z 0041a750 f   * CIL library *:* CIL module *
 0001:00019770       __unwindfunclet$?delete_all_nodes_@?$sequenced_index@U?$nth_layer@$00U?$pair@$$CBV?$basic_string@DU?$char_traits@D@std@@V?$allocator@D@2@@std@@V?$basic_ptree@V?$basic_string@DU?$char_traits@D@std@@V?$allocator@D@2@@std@@V12@U?$less@V?$basic_string@DU?$char_traits@D@std@@V?$allocator@D@2@@std@@@2@@property_tree@boost@@@std@@U?$indexed_by@U?$sequenced@U?$tag@Una@mpl@boost@@U123@U123@U123@U123@U123@U123@U123@U123@U123@U123@U123@U123@U123@U123@U123@U123@U123@U123@U123@@multi_index@boost@@@multi_index@boost@@U?$ordered_non_unique@U?$tag@Uby_name@subs@?$basic_ptree@V?$basic_string@DU?$char_traits@D@std@@V?$allocator@D@2@@std@@V12@U?$less@V?$basic_string@DU?$char_traits@D@std@@V?$allocator@D@2@@std@@@2@@property_tree@boost@@Una@mpl@5@U675@U675@U675@U675@U675@U675@U675@U675@U675@U675@U675@U675@U675@U675@U675@U675@U675@U675@@multi_index@boost@@U?$member@U?$pair@$$CBV?$basic_string@DU?$char_traits@D@std@@V?$allocator@D@2@@std@@V?$basic_ptree@V?$basic_string@DU?$char_traits@D@std@@V?$allocator@D@2@@std@@V12@U?$less@V?$basic_string@DU?$char_traits@D@std@@V?$allocator@D@2@@std@@@2@@property_tree@boost@@@std@@$$CBV?$basic_string@DU?$char_traits@D@std@@V?$allocator@D@2@@2@$0A@@23@U?$less@V?$basic_string@DU?$char_traits@D@std@@V?$allocator@D@2@@std@@@std@@@23@Una@mpl@3@U563@U563@U563@U563@U563@U563@U563@U563@U563@U563@U563@U563@U563@U563@U563@U563@U563@@multi_index@boost@@V?$allocator@U?$pair@$$CBV?$basic_string@DU?$char_traits@D@std@@V?$allocator@D@2@@std@@V?$basic_ptree@V?$basic_string@DU?$char_traits@D@std@@V?$allocator@D@2@@std@@V12@U?$less@V?$basic_string@DU?$char_traits@D@std@@V?$allocator@D@2@@std@@@2@@property_tree@boost@@@std@@@2@@detail@multi_index@boost@@U?$vector0@Una@mpl@boost@@@mpl@4@@detail@multi_index@boost@@IAEXXZ$0 0041a770 f   * CIL library *:* CIL module *
 0001:00019778       __ehhandler$?delete_all_nodes_@?$sequenced_index@U?$nth_layer@$00U?$pair@$$CBV?$basic_string@DU?$char_traits@D@std@@V?$allocator@D@2@@std@@V?$basic_ptree@V?$basic_string@DU?$char_traits@D@std@@V?$allocator@D@2@@std@@V12@U?$less@V?$basic_string@DU?$char_traits@D@std@@V?$allocator@D@2@@std@@@2@@property_tree@boost@@@std@@U?$indexed_by@U?$sequenced@U?$tag@Una@mpl@boost@@U123@U123@U123@U123@U123@U123@U123@U123@U123@U123@U123@U123@U123@U123@U123@U123@U123@U123@U123@@multi_index@boost@@@multi_index@boost@@U?$ordered_non_unique@U?$tag@Uby_name@subs@?$basic_ptree@V?$basic_string@DU?$char_traits@D@std@@V?$allocator@D@2@@std@@V12@U?$less@V?$basic_string@DU?$char_traits@D@std@@V?$allocator@D@2@@std@@@2@@property_tree@boost@@Una@mpl@5@U675@U675@U675@U675@U675@U675@U675@U675@U675@U675@U675@U675@U675@U675@U675@U675@U675@U675@@multi_index@boost@@U?$member@U?$pair@$$CBV?$basic_string@DU?$char_traits@D@std@@V?$allocator@D@2@@std@@V?$basic_ptree@V?$basic_string@DU?$char_traits@D@std@@V?$allocator@D@2@@std@@V12@U?$less@V?$basic_string@DU?$char_traits@D@std@@V?$allocator@D@2@@std@@@2@@property_tree@boost@@@std@@$$CBV?$basic_string@DU?$char_traits@D@std@@V?$allocator@D@2@@2@$0A@@23@U?$less@V?$basic_string@DU?$char_traits@D@std@@V?$allocator@D@2@@std@@@std@@@23@Una@mpl@3@U563@U563@U563@U563@U563@U563@U563@U563@U563@U563@U563@U563@U563@U563@U563@U563@U563@@multi_index@boost@@V?$allocator@U?$pair@$$CBV?$basic_string@DU?$char_traits@D@std@@V?$allocator@D@2@@std@@V?$basic_ptree@V?$basic_string@DU?$char_traits@D@std@@V?$allocator@D@2@@std@@V12@U?$less@V?$basic_string@DU?$char_traits@D@std@@V?$allocator@D@2@@std@@@2@@property_tree@boost@@@std@@@2@@detail@multi_index@boost@@U?$vector0@Una@mpl@boost@@@mpl@4@@detail@multi_index@boost@@IAEXXZ 0041a778 f   * CIL library *:* CIL module *
 0001:000197a0       __unwindfunclet$?erase_@?$ordered_index@U?$member@U?$pair@$$CBV?$basic_string@DU?$char_traits@D@std@@V?$allocator@D@2@@std@@V?$basic_ptree@V?$basic_string@DU?$char_traits@D@std@@V?$allocator@D@2@@std@@V12@U?$less@V?$basic_string@DU?$char_traits@D@std@@V?$allocator@D@2@@std@@@2@@property_tree@boost@@@std@@$$CBV?$basic_string@DU?$char_traits@D@std@@V?$allocator@D@2@@2@$0A@@multi_index@boost@@U?$less@V?$basic_string@DU?$char_traits@D@std@@V?$allocator@D@2@@std@@@std@@U?$nth_layer@$01U?$pair@$$CBV?$basic_string@DU?$char_traits@D@std@@V?$allocator@D@2@@std@@V?$basic_ptree@V?$basic_string@DU?$char_traits@D@std@@V?$allocator@D@2@@std@@V12@U?$less@V?$basic_string@DU?$char_traits@D@std@@V?$allocator@D@2@@std@@@2@@property_tree@boost@@@std@@U?$indexed_by@U?$sequenced@U?$tag@Una@mpl@boost@@U123@U123@U123@U123@U123@U123@U123@U123@U123@U123@U123@U123@U123@U123@U123@U123@U123@U123@U123@@multi_index@boost@@@multi_index@boost@@U?$ordered_non_unique@U?$tag@Uby_name@subs@?$basic_ptree@V?$basic_string@DU?$char_traits@D@std@@V?$allocator@D@2@@std@@V12@U?$less@V?$basic_string@DU?$char_traits@D@std@@V?$allocator@D@2@@std@@@2@@property_tree@boost@@Una@mpl@5@U675@U675@U675@U675@U675@U675@U675@U675@U675@U675@U675@U675@U675@U675@U675@U675@U675@U675@@multi_index@boost@@U?$member@U?$pair@$$CBV?$basic_string@DU?$char_traits@D@std@@V?$allocator@D@2@@std@@V?$basic_ptree@V?$basic_string@DU?$char_traits@D@std@@V?$allocator@D@2@@std@@V12@U?$less@V?$basic_string@DU?$char_traits@D@std@@V?$allocator@D@2@@std@@@2@@property_tree@boost@@@std@@$$CBV?$basic_string@DU?$char_traits@D@std@@V?$allocator@D@2@@2@$0A@@23@U?$less@V?$basic_string@DU?$char_traits@D@std@@V?$allocator@D@2@@std@@@std@@@23@Una@mpl@3@U563@U563@U563@U563@U563@U563@U563@U563@U563@U563@U563@U563@U563@U563@U563@U563@U563@@multi_index@boost@@V?$allocator@U?$pair@$$CBV?$basic_string@DU?$char_traits@D@std@@V?$allocator@D@2@@std@@V?$basic_ptree@V?$basic_string@DU?$char_traits@D@std@@V?$allocator@D@2@@std@@V12@U?$less@V?$basic_string@DU?$char_traits@D@std@@V?$allocator@D@2@@std@@@2@@property_tree@boost@@@std@@@2@@detail@23@U?$vector1@Uby_name@subs@?$basic_ptree@V?$basic_string@DU?$char_traits@D@std@@V?$allocator@D@2@@std@@V12@U?$less@V?$basic_string@DU?$char_traits@D@std@@V?$allocator@D@2@@std@@@2@@property_tree@boost@@@mpl@3@Uordered_non_unique_tag@723@@detail@multi_index@boost@@IAEXPAU?$ordered_index_node@U?$index_node_base@U?$pair@$$CBV?$basic_string@DU?$char_traits@D@std@@V?$allocator@D@2@@std@@V?$basic_ptree@V?$basic_string@DU?$char_traits@D@std@@V?$allocator@D@2@@std@@V12@U?$less@V?$basic_string@DU?$char_traits@D@std@@V?$allocator@D@2@@std@@@2@@property_tree@boost@@@std@@V?$allocator@U?$pair@$$CBV?$basic_string@DU?$char_traits@D@std@@V?$allocator@D@2@@std@@V?$basic_ptree@V?$basic_string@DU?$char_traits@D@std@@V?$allocator@D@2@@std@@V12@U?$less@V?$basic_string@DU?$char_traits@D@std@@V?$allocator@D@2@@std@@@2@@property_tree@boost@@@std@@@2@@detail@multi_index@boost@@@234@@Z$0 0041a7a0 f   * CIL library *:* CIL module *
 0001:000197a8       __ehhandler$?erase_@?$ordered_index@U?$member@U?$pair@$$CBV?$basic_string@DU?$char_traits@D@std@@V?$allocator@D@2@@std@@V?$basic_ptree@V?$basic_string@DU?$char_traits@D@std@@V?$allocator@D@2@@std@@V12@U?$less@V?$basic_string@DU?$char_traits@D@std@@V?$allocator@D@2@@std@@@2@@property_tree@boost@@@std@@$$CBV?$basic_string@DU?$char_traits@D@std@@V?$allocator@D@2@@2@$0A@@multi_index@boost@@U?$less@V?$basic_string@DU?$char_traits@D@std@@V?$allocator@D@2@@std@@@std@@U?$nth_layer@$01U?$pair@$$CBV?$basic_string@DU?$char_traits@D@std@@V?$allocator@D@2@@std@@V?$basic_ptree@V?$basic_string@DU?$char_traits@D@std@@V?$allocator@D@2@@std@@V12@U?$less@V?$basic_string@DU?$char_traits@D@std@@V?$allocator@D@2@@std@@@2@@property_tree@boost@@@std@@U?$indexed_by@U?$sequenced@U?$tag@Una@mpl@boost@@U123@U123@U123@U123@U123@U123@U123@U123@U123@U123@U123@U123@U123@U123@U123@U123@U123@U123@U123@@multi_index@boost@@@multi_index@boost@@U?$ordered_non_unique@U?$tag@Uby_name@subs@?$basic_ptree@V?$basic_string@DU?$char_traits@D@std@@V?$allocator@D@2@@std@@V12@U?$less@V?$basic_string@DU?$char_traits@D@std@@V?$allocator@D@2@@std@@@2@@property_tree@boost@@Una@mpl@5@U675@U675@U675@U675@U675@U675@U675@U675@U675@U675@U675@U675@U675@U675@U675@U675@U675@U675@@multi_index@boost@@U?$member@U?$pair@$$CBV?$basic_string@DU?$char_traits@D@std@@V?$allocator@D@2@@std@@V?$basic_ptree@V?$basic_string@DU?$char_traits@D@std@@V?$allocator@D@2@@std@@V12@U?$less@V?$basic_string@DU?$char_traits@D@std@@V?$allocator@D@2@@std@@@2@@property_tree@boost@@@std@@$$CBV?$basic_string@DU?$char_traits@D@std@@V?$allocator@D@2@@2@$0A@@23@U?$less@V?$basic_string@DU?$char_traits@D@std@@V?$allocator@D@2@@std@@@std@@@23@Una@mpl@3@U563@U563@U563@U563@U563@U563@U563@U563@U563@U563@U563@U563@U563@U563@U563@U563@U563@@multi_index@boost@@V?$allocator@U?$pair@$$CBV?$basic_string@DU?$char_traits@D@std@@V?$allocator@D@2@@std@@V?$basic_ptree@V?$basic_string@DU?$char_traits@D@std@@V?$allocator@D@2@@std@@V12@U?$less@V?$basic_string@DU?$char_traits@D@std@@V?$allocator@D@2@@std@@@2@@property_tree@boost@@@std@@@2@@detail@23@U?$vector1@Uby_name@subs@?$basic_ptree@V?$basic_string@DU?$char_traits@D@std@@V?$allocator@D@2@@std@@V12@U?$less@V?$basic_string@DU?$char_traits@D@std@@V?$allocator@D@2@@std@@@2@@property_tree@boost@@@mpl@3@Uordered_non_unique_tag@723@@detail@multi_index@boost@@IAEXPAU?$ordered_index_node@U?$index_node_base@U?$pair@$$CBV?$basic_string@DU?$char_traits@D@std@@V?$allocator@D@2@@std@@V?$basic_ptree@V?$basic_string@DU?$char_traits@D@std@@V?$allocator@D@2@@std@@V12@U?$less@V?$basic_string@DU?$char_traits@D@std@@V?$allocator@D@2@@std@@@2@@property_tree@boost@@@std@@V?$allocator@U?$pair@$$CBV?$basic_string@DU?$char_traits@D@std@@V?$allocator@D@2@@std@@V?$basic_ptree@V?$basic_string@DU?$char_traits@D@std@@V?$allocator@D@2@@std@@V12@U?$less@V?$basic_string@DU?$char_traits@D@std@@V?$allocator@D@2@@std@@@2@@property_tree@boost@@@std@@@2@@detail@multi_index@boost@@@234@@Z 0041a7a8 f   * CIL library *:* CIL module *
 0001:000197d0       __unwindfunclet$?file_exists@@YA_NV?$basic_string@DU?$char_traits@D@std@@V?$allocator@D@2@@std@@@Z$0 0041a7d0 f   * CIL library *:* CIL module *
 0001:000197d8       __ehhandler$?file_exists@@YA_NV?$basic_string@DU?$char_traits@D@std@@V?$allocator@D@2@@std@@@Z 0041a7d8 f   * CIL library *:* CIL module *
 0001:00019800       __unwindfunclet$?format_what@file_parser_error@property_tree@boost@@CA?AV?$basic_string@DU?$char_traits@D@std@@V?$allocator@D@2@@std@@ABV45@0K@Z$0 0041a800 f   * CIL library *:* CIL module *
 0001:0001980b       __ehhandler$?format_what@file_parser_error@property_tree@boost@@CA?AV?$basic_string@DU?$char_traits@D@std@@V?$allocator@D@2@@std@@ABV45@0K@Z 0041a80b f   * CIL library *:* CIL module *
 0001:00019830       __unwindfunclet$?get_child_optional@?$basic_ptree@V?$basic_string@DU?$char_traits@D@std@@V?$allocator@D@2@@std@@V12@U?$less@V?$basic_string@DU?$char_traits@D@std@@V?$allocator@D@2@@std@@@2@@property_tree@boost@@QBE?AV?$optional@ABV?$basic_ptree@V?$basic_string@DU?$char_traits@D@std@@V?$allocator@D@2@@std@@V12@U?$less@V?$basic_string@DU?$char_traits@D@std@@V?$allocator@D@2@@std@@@2@@property_tree@boost@@@3@ABV?$string_path@V?$basic_string@DU?$char_traits@D@std@@V?$allocator@D@2@@std@@U?$id_translator@V?$basic_string@DU?$char_traits@D@std@@V?$allocator@D@2@@std@@@property_tree@boost@@@23@@Z$0 0041a830 f   * CIL library *:* CIL module *
 0001:00019838       __ehhandler$?get_child_optional@?$basic_ptree@V?$basic_string@DU?$char_traits@D@std@@V?$allocator@D@2@@std@@V12@U?$less@V?$basic_string@DU?$char_traits@D@std@@V?$allocator@D@2@@std@@@2@@property_tree@boost@@QBE?AV?$optional@ABV?$basic_ptree@V?$basic_string@DU?$char_traits@D@std@@V?$allocator@D@2@@std@@V12@U?$less@V?$basic_string@DU?$char_traits@D@std@@V?$allocator@D@2@@std@@@2@@property_tree@boost@@@3@ABV?$string_path@V?$basic_string@DU?$char_traits@D@std@@V?$allocator@D@2@@std@@U?$id_translator@V?$basic_string@DU?$char_traits@D@std@@V?$allocator@D@2@@std@@@property_tree@boost@@@23@@Z 0041a838 f   * CIL library *:* CIL module *
 0001:00019860       __unwindfunclet$?get_value@?$id_translator@V?$basic_string@DU?$char_traits@D@std@@V?$allocator@D@2@@std@@@property_tree@boost@@QAE?AV?$optional@V?$basic_string@DU?$char_traits@D@std@@V?$allocator@D@2@@std@@@3@ABV?$basic_string@DU?$char_traits@D@std@@V?$allocator@D@2@@std@@@Z$2 0041a860 f   * CIL library *:* CIL module *
 0001:00019865       __ehhandler$?get_value@?$id_translator@V?$basic_string@DU?$char_traits@D@std@@V?$allocator@D@2@@std@@@property_tree@boost@@QAE?AV?$optional@V?$basic_string@DU?$char_traits@D@std@@V?$allocator@D@2@@std@@@3@ABV?$basic_string@DU?$char_traits@D@std@@V?$allocator@D@2@@std@@@Z 0041a865 f   * CIL library *:* CIL module *
 0001:00019880       __unwindfunclet$?get_value@?$stream_translator@DU?$char_traits@D@std@@V?$allocator@D@2@H@property_tree@boost@@QAE?AV?$optional@H@3@ABV?$basic_string@DU?$char_traits@D@std@@V?$allocator@D@2@@std@@@Z$0 0041a880 f   * CIL library *:* CIL module *
 0001:00019880       __unwindfunclet$?get_value@?$stream_translator@DU?$char_traits@D@std@@V?$allocator@D@2@_N@property_tree@boost@@QAE?AV?$optional@_N@3@ABV?$basic_string@DU?$char_traits@D@std@@V?$allocator@D@2@@std@@@Z$0 0041a880 f   * CIL library *:* CIL module *
 0001:0001988b       __ehhandler$?get_value@?$stream_translator@DU?$char_traits@D@std@@V?$allocator@D@2@_N@property_tree@boost@@QAE?AV?$optional@_N@3@ABV?$basic_string@DU?$char_traits@D@std@@V?$allocator@D@2@@std@@@Z 0041a88b f   * CIL library *:* CIL module *
 0001:0001988b       __ehhandler$?get_value@?$stream_translator@DU?$char_traits@D@std@@V?$allocator@D@2@H@property_tree@boost@@QAE?AV?$optional@H@3@ABV?$basic_string@DU?$char_traits@D@std@@V?$allocator@D@2@@std@@@Z 0041a88b f   * CIL library *:* CIL module *
 0001:000198b0       __ehhandler$?insert_@?$multi_index_container@U?$pair@$$CBV?$basic_string@DU?$char_traits@D@std@@V?$allocator@D@2@@std@@V?$basic_ptree@V?$basic_string@DU?$char_traits@D@std@@V?$allocator@D@2@@std@@V12@U?$less@V?$basic_string@DU?$char_traits@D@std@@V?$allocator@D@2@@std@@@2@@property_tree@boost@@@std@@U?$indexed_by@U?$sequenced@U?$tag@Una@mpl@boost@@U123@U123@U123@U123@U123@U123@U123@U123@U123@U123@U123@U123@U123@U123@U123@U123@U123@U123@U123@@multi_index@boost@@@multi_index@boost@@U?$ordered_non_unique@U?$tag@Uby_name@subs@?$basic_ptree@V?$basic_string@DU?$char_traits@D@std@@V?$allocator@D@2@@std@@V12@U?$less@V?$basic_string@DU?$char_traits@D@std@@V?$allocator@D@2@@std@@@2@@property_tree@boost@@Una@mpl@5@U675@U675@U675@U675@U675@U675@U675@U675@U675@U675@U675@U675@U675@U675@U675@U675@U675@U675@@multi_index@boost@@U?$member@U?$pair@$$CBV?$basic_string@DU?$char_traits@D@std@@V?$allocator@D@2@@std@@V?$basic_ptree@V?$basic_string@DU?$char_traits@D@std@@V?$allocator@D@2@@std@@V12@U?$less@V?$basic_string@DU?$char_traits@D@std@@V?$allocator@D@2@@std@@@2@@property_tree@boost@@@std@@$$CBV?$basic_string@DU?$char_traits@D@std@@V?$allocator@D@2@@2@$0A@@23@U?$less@V?$basic_string@DU?$char_traits@D@std@@V?$allocator@D@2@@std@@@std@@@23@Una@mpl@3@U563@U563@U563@U563@U563@U563@U563@U563@U563@U563@U563@U563@U563@U563@U563@U563@U563@@multi_index@boost@@V?$allocator@U?$pair@$$CBV?$basic_string@DU?$char_traits@D@std@@V?$allocator@D@2@@std@@V?$basic_ptree@V?$basic_string@DU?$char_traits@D@std@@V?$allocator@D@2@@std@@V12@U?$less@V?$basic_string@DU?$char_traits@D@std@@V?$allocator@D@2@@std@@@2@@property_tree@boost@@@std@@@2@@multi_index@boost@@IAE?AU?$pair@PAU?$sequenced_index_node@U?$ordered_index_node@U?$index_node_base@U?$pair@$$CBV?$basic_string@DU?$char_traits@D@std@@V?$allocator@D@2@@std@@V?$basic_ptree@V?$basic_string@DU?$char_traits@D@std@@V?$allocator@D@2@@std@@V12@U?$less@V?$basic_string@DU?$char_traits@D@std@@V?$allocator@D@2@@std@@@2@@property_tree@boost@@@std@@V?$allocator@U?$pair@$$CBV?$basic_string@DU?$char_traits@D@std@@V?$allocator@D@2@@std@@V?$basic_ptree@V?$basic_string@DU?$char_traits@D@std@@V?$allocator@D@2@@std@@V12@U?$less@V?$basic_string@DU?$char_traits@D@std@@V?$allocator@D@2@@std@@@2@@property_tree@boost@@@std@@@2@@detail@multi_index@boost@@@detail@multi_index@boost@@@detail@multi_index@boost@@_N@std@@ABU?$pair@$$CBV?$basic_string@DU?$char_traits@D@std@@V?$allocator@D@2@@std@@V?$basic_ptree@V?$basic_string@DU?$char_traits@D@std@@V?$allocator@D@2@@std@@V12@U?$less@V?$basic_string@DU?$char_traits@D@std@@V?$allocator@D@2@@std@@@2@@property_tree@boost@@@5@@Z 0041a8b0 f   * CIL library *:* CIL module *
 0001:000198d0       __unwindfunclet$?insert_@?$ordered_index@U?$member@U?$pair@$$CBV?$basic_string@DU?$char_traits@D@std@@V?$allocator@D@2@@std@@V?$basic_ptree@V?$basic_string@DU?$char_traits@D@std@@V?$allocator@D@2@@std@@V12@U?$less@V?$basic_string@DU?$char_traits@D@std@@V?$allocator@D@2@@std@@@2@@property_tree@boost@@@std@@$$CBV?$basic_string@DU?$char_traits@D@std@@V?$allocator@D@2@@2@$0A@@multi_index@boost@@U?$less@V?$basic_string@DU?$char_traits@D@std@@V?$allocator@D@2@@std@@@std@@U?$nth_layer@$01U?$pair@$$CBV?$basic_string@DU?$char_traits@D@std@@V?$allocator@D@2@@std@@V?$basic_ptree@V?$basic_string@DU?$char_traits@D@std@@V?$allocator@D@2@@std@@V12@U?$less@V?$basic_string@DU?$char_traits@D@std@@V?$allocator@D@2@@std@@@2@@property_tree@boost@@@std@@U?$indexed_by@U?$sequenced@U?$tag@Una@mpl@boost@@U123@U123@U123@U123@U123@U123@U123@U123@U123@U123@U123@U123@U123@U123@U123@U123@U123@U123@U123@@multi_index@boost@@@multi_index@boost@@U?$ordered_non_unique@U?$tag@Uby_name@subs@?$basic_ptree@V?$basic_string@DU?$char_traits@D@std@@V?$allocator@D@2@@std@@V12@U?$less@V?$basic_string@DU?$char_traits@D@std@@V?$allocator@D@2@@std@@@2@@property_tree@boost@@Una@mpl@5@U675@U675@U675@U675@U675@U675@U675@U675@U675@U675@U675@U675@U675@U675@U675@U675@U675@U675@@multi_index@boost@@U?$member@U?$pair@$$CBV?$basic_string@DU?$char_traits@D@std@@V?$allocator@D@2@@std@@V?$basic_ptree@V?$basic_string@DU?$char_traits@D@std@@V?$allocator@D@2@@std@@V12@U?$less@V?$basic_string@DU?$char_traits@D@std@@V?$allocator@D@2@@std@@@2@@property_tree@boost@@@std@@$$CBV?$basic_string@DU?$char_traits@D@std@@V?$allocator@D@2@@2@$0A@@23@U?$less@V?$basic_string@DU?$char_traits@D@std@@V?$allocator@D@2@@std@@@std@@@23@Una@mpl@3@U563@U563@U563@U563@U563@U563@U563@U563@U563@U563@U563@U563@U563@U563@U563@U563@U563@@multi_index@boost@@V?$allocator@U?$pair@$$CBV?$basic_string@DU?$char_traits@D@std@@V?$allocator@D@2@@std@@V?$basic_ptree@V?$basic_string@DU?$char_traits@D@std@@V?$allocator@D@2@@std@@V12@U?$less@V?$basic_string@DU?$char_traits@D@std@@V?$allocator@D@2@@std@@@2@@property_tree@boost@@@std@@@2@@detail@23@U?$vector1@Uby_name@subs@?$basic_ptree@V?$basic_string@DU?$char_traits@D@std@@V?$allocator@D@2@@std@@V12@U?$less@V?$basic_string@DU?$char_traits@D@std@@V?$allocator@D@2@@std@@@2@@property_tree@boost@@@mpl@3@Uordered_non_unique_tag@723@@detail@multi_index@boost@@IAEPAU?$ordered_index_node@U?$index_node_base@U?$pair@$$CBV?$basic_string@DU?$char_traits@D@std@@V?$allocator@D@2@@std@@V?$basic_ptree@V?$basic_string@DU?$char_traits@D@std@@V?$allocator@D@2@@std@@V12@U?$less@V?$basic_string@DU?$char_traits@D@std@@V?$allocator@D@2@@std@@@2@@property_tree@boost@@@std@@V?$allocator@U?$pair@$$CBV?$basic_string@DU?$char_traits@D@std@@V?$allocator@D@2@@std@@V?$basic_ptree@V?$basic_string@DU?$char_traits@D@std@@V?$allocator@D@2@@std@@V12@U?$less@V?$basic_string@DU?$char_traits@D@std@@V?$allocator@D@2@@std@@@2@@property_tree@boost@@@std@@@2@@detail@multi_index@boost@@@234@ABU?$pair@$$CBV?$basic_string@DU?$char_traits@D@std@@V?$allocator@D@2@@std@@V?$basic_ptree@V?$basic_string@DU?$char_traits@D@std@@V?$allocator@D@2@@std@@V12@U?$less@V?$basic_string@DU?$char_traits@D@std@@V?$allocator@D@2@@std@@@2@@property_tree@boost@@@std@@PAU5234@@Z$0 0041a8d0 f   * CIL library *:* CIL module *
 0001:000198d5       __unwindfunclet$?insert_@?$ordered_index@U?$member@U?$pair@$$CBV?$basic_string@DU?$char_traits@D@std@@V?$allocator@D@2@@std@@V?$basic_ptree@V?$basic_string@DU?$char_traits@D@std@@V?$allocator@D@2@@std@@V12@U?$less@V?$basic_string@DU?$char_traits@D@std@@V?$allocator@D@2@@std@@@2@@property_tree@boost@@@std@@$$CBV?$basic_string@DU?$char_traits@D@std@@V?$allocator@D@2@@2@$0A@@multi_index@boost@@U?$less@V?$basic_string@DU?$char_traits@D@std@@V?$allocator@D@2@@std@@@std@@U?$nth_layer@$01U?$pair@$$CBV?$basic_string@DU?$char_traits@D@std@@V?$allocator@D@2@@std@@V?$basic_ptree@V?$basic_string@DU?$char_traits@D@std@@V?$allocator@D@2@@std@@V12@U?$less@V?$basic_string@DU?$char_traits@D@std@@V?$allocator@D@2@@std@@@2@@property_tree@boost@@@std@@U?$indexed_by@U?$sequenced@U?$tag@Una@mpl@boost@@U123@U123@U123@U123@U123@U123@U123@U123@U123@U123@U123@U123@U123@U123@U123@U123@U123@U123@U123@@multi_index@boost@@@multi_index@boost@@U?$ordered_non_unique@U?$tag@Uby_name@subs@?$basic_ptree@V?$basic_string@DU?$char_traits@D@std@@V?$allocator@D@2@@std@@V12@U?$less@V?$basic_string@DU?$char_traits@D@std@@V?$allocator@D@2@@std@@@2@@property_tree@boost@@Una@mpl@5@U675@U675@U675@U675@U675@U675@U675@U675@U675@U675@U675@U675@U675@U675@U675@U675@U675@U675@@multi_index@boost@@U?$member@U?$pair@$$CBV?$basic_string@DU?$char_traits@D@std@@V?$allocator@D@2@@std@@V?$basic_ptree@V?$basic_string@DU?$char_traits@D@std@@V?$allocator@D@2@@std@@V12@U?$less@V?$basic_string@DU?$char_traits@D@std@@V?$allocator@D@2@@std@@@2@@property_tree@boost@@@std@@$$CBV?$basic_string@DU?$char_traits@D@std@@V?$allocator@D@2@@2@$0A@@23@U?$less@V?$basic_string@DU?$char_traits@D@std@@V?$allocator@D@2@@std@@@std@@@23@Una@mpl@3@U563@U563@U563@U563@U563@U563@U563@U563@U563@U563@U563@U563@U563@U563@U563@U563@U563@@multi_index@boost@@V?$allocator@U?$pair@$$CBV?$basic_string@DU?$char_traits@D@std@@V?$allocator@D@2@@std@@V?$basic_ptree@V?$basic_string@DU?$char_traits@D@std@@V?$allocator@D@2@@std@@V12@U?$less@V?$basic_string@DU?$char_traits@D@std@@V?$allocator@D@2@@std@@@2@@property_tree@boost@@@std@@@2@@detail@23@U?$vector1@Uby_name@subs@?$basic_ptree@V?$basic_string@DU?$char_traits@D@std@@V?$allocator@D@2@@std@@V12@U?$less@V?$basic_string@DU?$char_traits@D@std@@V?$allocator@D@2@@std@@@2@@property_tree@boost@@@mpl@3@Uordered_non_unique_tag@723@@detail@multi_index@boost@@IAEPAU?$ordered_index_node@U?$index_node_base@U?$pair@$$CBV?$basic_string@DU?$char_traits@D@std@@V?$allocator@D@2@@std@@V?$basic_ptree@V?$basic_string@DU?$char_traits@D@std@@V?$allocator@D@2@@std@@V12@U?$less@V?$basic_string@DU?$char_traits@D@std@@V?$allocator@D@2@@std@@@2@@property_tree@boost@@@std@@V?$allocator@U?$pair@$$CBV?$basic_string@DU?$char_traits@D@std@@V?$allocator@D@2@@std@@V?$basic_ptree@V?$basic_string@DU?$char_traits@D@std@@V?$allocator@D@2@@std@@V12@U?$less@V?$basic_string@DU?$char_traits@D@std@@V?$allocator@D@2@@std@@@2@@property_tree@boost@@@std@@@2@@detail@multi_index@boost@@@234@ABU?$pair@$$CBV?$basic_string@DU?$char_traits@D@std@@V?$allocator@D@2@@std@@V?$basic_ptree@V?$basic_string@DU?$char_traits@D@std@@V?$allocator@D@2@@std@@V12@U?$less@V?$basic_string@DU?$char_traits@D@std@@V?$allocator@D@2@@std@@@2@@property_tree@boost@@@std@@PAU5234@@Z$1 0041a8d5 f   * CIL library *:* CIL module *
 0001:000198dd       __ehhandler$?insert_@?$ordered_index@U?$member@U?$pair@$$CBV?$basic_string@DU?$char_traits@D@std@@V?$allocator@D@2@@std@@V?$basic_ptree@V?$basic_string@DU?$char_traits@D@std@@V?$allocator@D@2@@std@@V12@U?$less@V?$basic_string@DU?$char_traits@D@std@@V?$allocator@D@2@@std@@@2@@property_tree@boost@@@std@@$$CBV?$basic_string@DU?$char_traits@D@std@@V?$allocator@D@2@@2@$0A@@multi_index@boost@@U?$less@V?$basic_string@DU?$char_traits@D@std@@V?$allocator@D@2@@std@@@std@@U?$nth_layer@$01U?$pair@$$CBV?$basic_string@DU?$char_traits@D@std@@V?$allocator@D@2@@std@@V?$basic_ptree@V?$basic_string@DU?$char_traits@D@std@@V?$allocator@D@2@@std@@V12@U?$less@V?$basic_string@DU?$char_traits@D@std@@V?$allocator@D@2@@std@@@2@@property_tree@boost@@@std@@U?$indexed_by@U?$sequenced@U?$tag@Una@mpl@boost@@U123@U123@U123@U123@U123@U123@U123@U123@U123@U123@U123@U123@U123@U123@U123@U123@U123@U123@U123@@multi_index@boost@@@multi_index@boost@@U?$ordered_non_unique@U?$tag@Uby_name@subs@?$basic_ptree@V?$basic_string@DU?$char_traits@D@std@@V?$allocator@D@2@@std@@V12@U?$less@V?$basic_string@DU?$char_traits@D@std@@V?$allocator@D@2@@std@@@2@@property_tree@boost@@Una@mpl@5@U675@U675@U675@U675@U675@U675@U675@U675@U675@U675@U675@U675@U675@U675@U675@U675@U675@U675@@multi_index@boost@@U?$member@U?$pair@$$CBV?$basic_string@DU?$char_traits@D@std@@V?$allocator@D@2@@std@@V?$basic_ptree@V?$basic_string@DU?$char_traits@D@std@@V?$allocator@D@2@@std@@V12@U?$less@V?$basic_string@DU?$char_traits@D@std@@V?$allocator@D@2@@std@@@2@@property_tree@boost@@@std@@$$CBV?$basic_string@DU?$char_traits@D@std@@V?$allocator@D@2@@2@$0A@@23@U?$less@V?$basic_string@DU?$char_traits@D@std@@V?$allocator@D@2@@std@@@std@@@23@Una@mpl@3@U563@U563@U563@U563@U563@U563@U563@U563@U563@U563@U563@U563@U563@U563@U563@U563@U563@@multi_index@boost@@V?$allocator@U?$pair@$$CBV?$basic_string@DU?$char_traits@D@std@@V?$allocator@D@2@@std@@V?$basic_ptree@V?$basic_string@DU?$char_traits@D@std@@V?$allocator@D@2@@std@@V12@U?$less@V?$basic_string@DU?$char_traits@D@std@@V?$allocator@D@2@@std@@@2@@property_tree@boost@@@std@@@2@@detail@23@U?$vector1@Uby_name@subs@?$basic_ptree@V?$basic_string@DU?$char_traits@D@std@@V?$allocator@D@2@@std@@V12@U?$less@V?$basic_string@DU?$char_traits@D@std@@V?$allocator@D@2@@std@@@2@@property_tree@boost@@@mpl@3@Uordered_non_unique_tag@723@@detail@multi_index@boost@@IAEPAU?$ordered_index_node@U?$index_node_base@U?$pair@$$CBV?$basic_string@DU?$char_traits@D@std@@V?$allocator@D@2@@std@@V?$basic_ptree@V?$basic_string@DU?$char_traits@D@std@@V?$allocator@D@2@@std@@V12@U?$less@V?$basic_string@DU?$char_traits@D@std@@V?$allocator@D@2@@std@@@2@@property_tree@boost@@@std@@V?$allocator@U?$pair@$$CBV?$basic_string@DU?$char_traits@D@std@@V?$allocator@D@2@@std@@V?$basic_ptree@V?$basic_string@DU?$char_traits@D@std@@V?$allocator@D@2@@std@@V12@U?$less@V?$basic_string@DU?$char_traits@D@std@@V?$allocator@D@2@@std@@@2@@property_tree@boost@@@std@@@2@@detail@multi_index@boost@@@234@ABU?$pair@$$CBV?$basic_string@DU?$char_traits@D@std@@V?$allocator@D@2@@std@@V?$basic_ptree@V?$basic_string@DU?$char_traits@D@std@@V?$allocator@D@2@@std@@V12@U?$less@V?$basic_string@DU?$char_traits@D@std@@V?$allocator@D@2@@std@@@2@@property_tree@boost@@@std@@PAU5234@@Z 0041a8dd f   * CIL library *:* CIL module *
 0001:00019900       __unwindfunclet$?lexical_cast_impl@?$lexical_cast_do_cast@HV?$basic_string@DU?$char_traits@D@std@@V?$allocator@D@2@@std@@@detail@boost@@SAHABV?$basic_string@DU?$char_traits@D@std@@V?$allocator@D@2@@std@@@Z$0 0041a900 f   * CIL library *:* CIL module *
 0001:00019908       __ehhandler$?lexical_cast_impl@?$lexical_cast_do_cast@HV?$basic_string@DU?$char_traits@D@std@@V?$allocator@D@2@@std@@@detail@boost@@SAHABV?$basic_string@DU?$char_traits@D@std@@V?$allocator@D@2@@std@@@Z 0041a908 f   * CIL library *:* CIL module *
 0001:00019930       __unwindfunclet$?lexical_cast_impl@?$lexical_cast_do_cast@MV?$basic_string@DU?$char_traits@D@std@@V?$allocator@D@2@@std@@@detail@boost@@SAMABV?$basic_string@DU?$char_traits@D@std@@V?$allocator@D@2@@std@@@Z$0 0041a930 f   * CIL library *:* CIL module *
 0001:00019938       __ehhandler$?lexical_cast_impl@?$lexical_cast_do_cast@MV?$basic_string@DU?$char_traits@D@std@@V?$allocator@D@2@@std@@@detail@boost@@SAMABV?$basic_string@DU?$char_traits@D@std@@V?$allocator@D@2@@std@@@Z 0041a938 f   * CIL library *:* CIL module *
 0001:00019960       __unwindfunclet$?manage_small@?$functor_manager_common@U?$token_finderF@U?$is_any_ofF@D@detail@algorithm@boost@@@detail@algorithm@boost@@@function@detail@boost@@SAXABTfunction_buffer@234@AAT5234@W4functor_manager_operation_type@234@@Z$0 0041a960 f   * CIL library *:* CIL module *
 0001:00019965       __ehhandler$?manage_small@?$functor_manager_common@U?$token_finderF@U?$is_any_ofF@D@detail@algorithm@boost@@@detail@algorithm@boost@@@function@detail@boost@@SAXABTfunction_buffer@234@AAT5234@W4functor_manager_operation_type@234@@Z 0041a965 f   * CIL library *:* CIL module *
 0001:00019980       __unwindfunclet$?map_load_config@@YAXXZ$1 0041a980 f   * CIL library *:* CIL module *
 0001:00019988       __unwindfunclet$?map_load_config@@YAXXZ$2 0041a988 f   * CIL library *:* CIL module *
 0001:00019990       __unwindfunclet$?map_load_config@@YAXXZ$3 0041a990 f   * CIL library *:* CIL module *
 0001:00019998       __unwindfunclet$?map_load_config@@YAXXZ$4 0041a998 f   * CIL library *:* CIL module *
 0001:000199a0       __unwindfunclet$?map_load_config@@YAXXZ$5 0041a9a0 f   * CIL library *:* CIL module *
 0001:000199a8       __unwindfunclet$?map_load_config@@YAXXZ$6 0041a9a8 f   * CIL library *:* CIL module *
 0001:000199b0       __unwindfunclet$?map_load_config@@YAXXZ$7 0041a9b0 f   * CIL library *:* CIL module *
 0001:000199b8       __unwindfunclet$?map_load_config@@YAXXZ$9 0041a9b8 f   * CIL library *:* CIL module *
 0001:000199c0       __unwindfunclet$?map_load_config@@YAXXZ$11 0041a9c0 f   * CIL library *:* CIL module *
 0001:000199c8       __unwindfunclet$?map_load_config@@YAXXZ$13 0041a9c8 f   * CIL library *:* CIL module *
 0001:000199d0       __unwindfunclet$?map_load_config@@YAXXZ$14 0041a9d0 f   * CIL library *:* CIL module *
 0001:000199d8       __unwindfunclet$?map_load_config@@YAXXZ$15 0041a9d8 f   * CIL library *:* CIL module *
 0001:000199e0       __unwindfunclet$?map_load_config@@YAXXZ$16 0041a9e0 f   * CIL library *:* CIL module *
 0001:000199e8       __unwindfunclet$?map_load_config@@YAXXZ$17 0041a9e8 f   * CIL library *:* CIL module *
 0001:000199f0       __unwindfunclet$?map_load_config@@YAXXZ$18 0041a9f0 f   * CIL library *:* CIL module *
 0001:000199f8       __unwindfunclet$?map_load_config@@YAXXZ$19 0041a9f8 f   * CIL library *:* CIL module *
 0001:00019a00       __unwindfunclet$?map_load_config@@YAXXZ$20 0041aa00 f   * CIL library *:* CIL module *
 0001:00019a08       __unwindfunclet$?map_load_config@@YAXXZ$21 0041aa08 f   * CIL library *:* CIL module *
 0001:00019a10       __unwindfunclet$?map_load_config@@YAXXZ$22 0041aa10 f   * CIL library *:* CIL module *
 0001:00019a18       __unwindfunclet$?map_load_config@@YAXXZ$23 0041aa18 f   * CIL library *:* CIL module *
 0001:00019a20       __unwindfunclet$?map_load_config@@YAXXZ$24 0041aa20 f   * CIL library *:* CIL module *
 0001:00019a28       __unwindfunclet$?map_load_config@@YAXXZ$25 0041aa28 f   * CIL library *:* CIL module *
 0001:00019a30       __unwindfunclet$?map_load_config@@YAXXZ$26 0041aa30 f   * CIL library *:* CIL module *
 0001:00019a38       __unwindfunclet$?map_load_config@@YAXXZ$27 0041aa38 f   * CIL library *:* CIL module *
 0001:00019a40       __unwindfunclet$?map_load_config@@YAXXZ$28 0041aa40 f   * CIL library *:* CIL module *
 0001:00019a48       __unwindfunclet$?map_load_config@@YAXXZ$29 0041aa48 f   * CIL library *:* CIL module *
 0001:00019a50       __unwindfunclet$?map_load_config@@YAXXZ$30 0041aa50 f   * CIL library *:* CIL module *
 0001:00019a58       __unwindfunclet$?map_load_config@@YAXXZ$31 0041aa58 f   * CIL library *:* CIL module *
 0001:00019a60       __unwindfunclet$?map_load_config@@YAXXZ$32 0041aa60 f   * CIL library *:* CIL module *
 0001:00019a68       __ehhandler$?map_load_config@@YAXXZ 0041aa68 f   * CIL library *:* CIL module *
 0001:00019a90       __unwindfunclet$?map_load_zone@@YAXV?$basic_string@DU?$char_traits@D@std@@V?$allocator@D@2@@std@@@Z$0 0041aa90 f   * CIL library *:* CIL module *
 0001:00019a98       __unwindfunclet$?map_load_zone@@YAXV?$basic_string@DU?$char_traits@D@std@@V?$allocator@D@2@@std@@@Z$1 0041aa98 f   * CIL library *:* CIL module *
 0001:00019aa3       __unwindfunclet$?map_load_zone@@YAXV?$basic_string@DU?$char_traits@D@std@@V?$allocator@D@2@@std@@@Z$2 0041aaa3 f   * CIL library *:* CIL module *
 0001:00019aab       __unwindfunclet$?map_load_zone@@YAXV?$basic_string@DU?$char_traits@D@std@@V?$allocator@D@2@@std@@@Z$3 0041aaab f   * CIL library *:* CIL module *
 0001:00019ab3       __unwindfunclet$?map_load_zone@@YAXV?$basic_string@DU?$char_traits@D@std@@V?$allocator@D@2@@std@@@Z$5 0041aab3 f   * CIL library *:* CIL module *
 0001:00019abb       __unwindfunclet$?map_load_zone@@YAXV?$basic_string@DU?$char_traits@D@std@@V?$allocator@D@2@@std@@@Z$11 0041aabb f   * CIL library *:* CIL module *
 0001:00019ac3       __unwindfunclet$?map_load_zone@@YAXV?$basic_string@DU?$char_traits@D@std@@V?$allocator@D@2@@std@@@Z$8 0041aac3 f   * CIL library *:* CIL module *
 0001:00019acb       __unwindfunclet$?map_load_zone@@YAXV?$basic_string@DU?$char_traits@D@std@@V?$allocator@D@2@@std@@@Z$14 0041aacb f   * CIL library *:* CIL module *
 0001:00019ad3       __unwindfunclet$?map_load_zone@@YAXV?$basic_string@DU?$char_traits@D@std@@V?$allocator@D@2@@std@@@Z$15 0041aad3 f   * CIL library *:* CIL module *
 0001:00019adb       __unwindfunclet$?map_load_zone@@YAXV?$basic_string@DU?$char_traits@D@std@@V?$allocator@D@2@@std@@@Z$16 0041aadb f   * CIL library *:* CIL module *
 0001:00019ae3       __ehhandler$?map_load_zone@@YAXV?$basic_string@DU?$char_traits@D@std@@V?$allocator@D@2@@std@@@Z 0041aae3 f   * CIL library *:* CIL module *
 0001:00019b10       __unwindfunclet$?map_parse_file@@YAXV?$basic_string@DU?$char_traits@D@std@@V?$allocator@D@2@@std@@H@Z$0 0041ab10 f   * CIL library *:* CIL module *
 0001:00019b18       __unwindfunclet$?map_parse_file@@YAXV?$basic_string@DU?$char_traits@D@std@@V?$allocator@D@2@@std@@H@Z$2 0041ab18 f   * CIL library *:* CIL module *
 0001:00019b23       __unwindfunclet$?map_parse_file@@YAXV?$basic_string@DU?$char_traits@D@std@@V?$allocator@D@2@@std@@H@Z$3 0041ab23 f   * CIL library *:* CIL module *
 0001:00019b2b       __unwindfunclet$?map_parse_file@@YAXV?$basic_string@DU?$char_traits@D@std@@V?$allocator@D@2@@std@@H@Z$4 0041ab2b f   * CIL library *:* CIL module *
 0001:00019b36       __unwindfunclet$?map_parse_file@@YAXV?$basic_string@DU?$char_traits@D@std@@V?$allocator@D@2@@std@@H@Z$7 0041ab36 f   * CIL library *:* CIL module *
 0001:00019b41       __unwindfunclet$?map_parse_file@@YAXV?$basic_string@DU?$char_traits@D@std@@V?$allocator@D@2@@std@@H@Z$8 0041ab41 f   * CIL library *:* CIL module *
 0001:00019b4c       __unwindfunclet$?map_parse_file@@YAXV?$basic_string@DU?$char_traits@D@std@@V?$allocator@D@2@@std@@H@Z$10 0041ab4c f   * CIL library *:* CIL module *
 0001:00019b57       __unwindfunclet$?map_parse_file@@YAXV?$basic_string@DU?$char_traits@D@std@@V?$allocator@D@2@@std@@H@Z$11 0041ab57 f   * CIL library *:* CIL module *
 0001:00019b62       __unwindfunclet$?map_parse_file@@YAXV?$basic_string@DU?$char_traits@D@std@@V?$allocator@D@2@@std@@H@Z$13 0041ab62 f   * CIL library *:* CIL module *
 0001:00019b6d       __unwindfunclet$?map_parse_file@@YAXV?$basic_string@DU?$char_traits@D@std@@V?$allocator@D@2@@std@@H@Z$14 0041ab6d f   * CIL library *:* CIL module *
 0001:00019b78       __unwindfunclet$?map_parse_file@@YAXV?$basic_string@DU?$char_traits@D@std@@V?$allocator@D@2@@std@@H@Z$16 0041ab78 f   * CIL library *:* CIL module *
 0001:00019b83       __unwindfunclet$?map_parse_file@@YAXV?$basic_string@DU?$char_traits@D@std@@V?$allocator@D@2@@std@@H@Z$17 0041ab83 f   * CIL library *:* CIL module *
 0001:00019b8e       __unwindfunclet$?map_parse_file@@YAXV?$basic_string@DU?$char_traits@D@std@@V?$allocator@D@2@@std@@H@Z$19 0041ab8e f   * CIL library *:* CIL module *
 0001:00019b99       __unwindfunclet$?map_parse_file@@YAXV?$basic_string@DU?$char_traits@D@std@@V?$allocator@D@2@@std@@H@Z$20 0041ab99 f   * CIL library *:* CIL module *
 0001:00019ba4       __unwindfunclet$?map_parse_file@@YAXV?$basic_string@DU?$char_traits@D@std@@V?$allocator@D@2@@std@@H@Z$22 0041aba4 f   * CIL library *:* CIL module *
 0001:00019baf       __unwindfunclet$?map_parse_file@@YAXV?$basic_string@DU?$char_traits@D@std@@V?$allocator@D@2@@std@@H@Z$23 0041abaf f   * CIL library *:* CIL module *
 0001:00019bba       __unwindfunclet$?map_parse_file@@YAXV?$basic_string@DU?$char_traits@D@std@@V?$allocator@D@2@@std@@H@Z$25 0041abba f   * CIL library *:* CIL module *
 0001:00019bc5       __unwindfunclet$?map_parse_file@@YAXV?$basic_string@DU?$char_traits@D@std@@V?$allocator@D@2@@std@@H@Z$26 0041abc5 f   * CIL library *:* CIL module *
 0001:00019bd0       __unwindfunclet$?map_parse_file@@YAXV?$basic_string@DU?$char_traits@D@std@@V?$allocator@D@2@@std@@H@Z$28 0041abd0 f   * CIL library *:* CIL module *
 0001:00019bdb       __unwindfunclet$?map_parse_file@@YAXV?$basic_string@DU?$char_traits@D@std@@V?$allocator@D@2@@std@@H@Z$29 0041abdb f   * CIL library *:* CIL module *
 0001:00019be6       __unwindfunclet$?map_parse_file@@YAXV?$basic_string@DU?$char_traits@D@std@@V?$allocator@D@2@@std@@H@Z$31 0041abe6 f   * CIL library *:* CIL module *
 0001:00019bf1       __unwindfunclet$?map_parse_file@@YAXV?$basic_string@DU?$char_traits@D@std@@V?$allocator@D@2@@std@@H@Z$32 0041abf1 f   * CIL library *:* CIL module *
 0001:00019bfc       __unwindfunclet$?map_parse_file@@YAXV?$basic_string@DU?$char_traits@D@std@@V?$allocator@D@2@@std@@H@Z$34 0041abfc f   * CIL library *:* CIL module *
 0001:00019c04       __unwindfunclet$?map_parse_file@@YAXV?$basic_string@DU?$char_traits@D@std@@V?$allocator@D@2@@std@@H@Z$35 0041ac04 f   * CIL library *:* CIL module *
 0001:00019c0f       __unwindfunclet$?map_parse_file@@YAXV?$basic_string@DU?$char_traits@D@std@@V?$allocator@D@2@@std@@H@Z$36 0041ac0f f   * CIL library *:* CIL module *
 0001:00019c1a       __unwindfunclet$?map_parse_file@@YAXV?$basic_string@DU?$char_traits@D@std@@V?$allocator@D@2@@std@@H@Z$38 0041ac1a f   * CIL library *:* CIL module *
 0001:00019c25       __unwindfunclet$?map_parse_file@@YAXV?$basic_string@DU?$char_traits@D@std@@V?$allocator@D@2@@std@@H@Z$39 0041ac25 f   * CIL library *:* CIL module *
 0001:00019c30       __unwindfunclet$?map_parse_file@@YAXV?$basic_string@DU?$char_traits@D@std@@V?$allocator@D@2@@std@@H@Z$41 0041ac30 f   * CIL library *:* CIL module *
 0001:00019c3b       __unwindfunclet$?map_parse_file@@YAXV?$basic_string@DU?$char_traits@D@std@@V?$allocator@D@2@@std@@H@Z$42 0041ac3b f   * CIL library *:* CIL module *
 0001:00019c46       __unwindfunclet$?map_parse_file@@YAXV?$basic_string@DU?$char_traits@D@std@@V?$allocator@D@2@@std@@H@Z$44 0041ac46 f   * CIL library *:* CIL module *
 0001:00019c51       __unwindfunclet$?map_parse_file@@YAXV?$basic_string@DU?$char_traits@D@std@@V?$allocator@D@2@@std@@H@Z$45 0041ac51 f   * CIL library *:* CIL module *
 0001:00019c5c       __unwindfunclet$?map_parse_file@@YAXV?$basic_string@DU?$char_traits@D@std@@V?$allocator@D@2@@std@@H@Z$47 0041ac5c f   * CIL library *:* CIL module *
 0001:00019c67       __unwindfunclet$?map_parse_file@@YAXV?$basic_string@DU?$char_traits@D@std@@V?$allocator@D@2@@std@@H@Z$48 0041ac67 f   * CIL library *:* CIL module *
 0001:00019c72       __unwindfunclet$?map_parse_file@@YAXV?$basic_string@DU?$char_traits@D@std@@V?$allocator@D@2@@std@@H@Z$50 0041ac72 f   * CIL library *:* CIL module *
 0001:00019c7d       __unwindfunclet$?map_parse_file@@YAXV?$basic_string@DU?$char_traits@D@std@@V?$allocator@D@2@@std@@H@Z$51 0041ac7d f   * CIL library *:* CIL module *
 0001:00019c88       __unwindfunclet$?map_parse_file@@YAXV?$basic_string@DU?$char_traits@D@std@@V?$allocator@D@2@@std@@H@Z$53 0041ac88 f   * CIL library *:* CIL module *
 0001:00019c93       __unwindfunclet$?map_parse_file@@YAXV?$basic_string@DU?$char_traits@D@std@@V?$allocator@D@2@@std@@H@Z$54 0041ac93 f   * CIL library *:* CIL module *
 0001:00019c9e       __ehhandler$?map_parse_file@@YAXV?$basic_string@DU?$char_traits@D@std@@V?$allocator@D@2@@std@@H@Z 0041ac9e f   * CIL library *:* CIL module *
 0001:00019cd0       __unwindfunclet$?name@locale@std@@QBE?AV?$basic_string@DU?$char_traits@D@std@@V?$allocator@D@2@@2@XZ$0 0041acd0 f   * CIL library *:* CIL module *
 0001:00019ce9       __ehhandler$?name@locale@std@@QBE?AV?$basic_string@DU?$char_traits@D@std@@V?$allocator@D@2@@2@XZ 0041ace9 f   * CIL library *:* CIL module *
 0001:00019d10       __unwindfunclet$?open@?$basic_filebuf@DU?$char_traits@D@std@@@std@@QAEPAV12@PBDHH@Z$0 0041ad10 f   * CIL library *:* CIL module *
 0001:00019d18       __ehhandler$?open@?$basic_filebuf@DU?$char_traits@D@std@@@std@@QAEPAV12@PBDHH@Z 0041ad18 f   * CIL library *:* CIL module *
 0001:00019d40       __unwindfunclet$?overflow@?$basic_filebuf@DU?$char_traits@D@std@@@std@@MAEHH@Z$0 0041ad40 f   * CIL library *:* CIL module *
 0001:00019d40       __unwindfunclet$?uflow@?$basic_filebuf@DU?$char_traits@D@std@@@std@@MAEHXZ$0 0041ad40 f   * CIL library *:* CIL module *
 0001:00019d48       __ehhandler$?overflow@?$basic_filebuf@DU?$char_traits@D@std@@@std@@MAEHH@Z 0041ad48 f   * CIL library *:* CIL module *
 0001:00019d48       __ehhandler$?uflow@?$basic_filebuf@DU?$char_traits@D@std@@@std@@MAEHXZ 0041ad48 f   * CIL library *:* CIL module *
 0001:00019d70       __unwindfunclet$?parse_zone_info@@YAXXZ$1 0041ad70 f   * CIL library *:* CIL module *
 0001:00019d7b       __unwindfunclet$?parse_zone_info@@YAXXZ$2 0041ad7b f   * CIL library *:* CIL module *
 0001:00019d83       __unwindfunclet$?parse_zone_info@@YAXXZ$3 0041ad83 f   * CIL library *:* CIL module *
 0001:00019d8e       __unwindfunclet$?parse_zone_info@@YAXXZ$5 0041ad8e f   * CIL library *:* CIL module *
 0001:00019d96       __unwindfunclet$?parse_zone_info@@YAXXZ$7 0041ad96 f   * CIL library *:* CIL module *
 0001:00019d9e       __unwindfunclet$?parse_zone_info@@YAXXZ$9 0041ad9e f   * CIL library *:* CIL module *
 0001:00019da6       __unwindfunclet$?parse_zone_info@@YAXXZ$12 0041ada6 f   * CIL library *:* CIL module *
 0001:00019db1       __unwindfunclet$?parse_zone_info@@YAXXZ$14 0041adb1 f   * CIL library *:* CIL module *
 0001:00019db9       __ehhandler$?parse_zone_info@@YAXXZ 0041adb9 f   * CIL library *:* CIL module *
 0001:00019df0       __unwindfunclet$?push_back@?$vector@Uzone_info_t@@V?$allocator@Uzone_info_t@@@std@@@std@@QAEXABUzone_info_t@@@Z$0 0041adf0 f   * CIL library *:* CIL module *
 0001:00019df5       __unwindfunclet$?push_back@?$vector@Uzone_info_t@@V?$allocator@Uzone_info_t@@@std@@@std@@QAEXABUzone_info_t@@@Z$1 0041adf5 f   * CIL library *:* CIL module *
 0001:00019dfa       __ehhandler$?push_back@?$vector@Uzone_info_t@@V?$allocator@Uzone_info_t@@@std@@@std@@QAEXABUzone_info_t@@@Z 0041adfa f   * CIL library *:* CIL module *
 0001:00019e20       __unwindfunclet$?reduce@?$string_path@V?$basic_string@DU?$char_traits@D@std@@V?$allocator@D@2@@std@@U?$id_translator@V?$basic_string@DU?$char_traits@D@std@@V?$allocator@D@2@@std@@@property_tree@boost@@@property_tree@boost@@QAE?AV?$basic_string@DU?$char_traits@D@std@@V?$allocator@D@2@@std@@XZ$0 0041ae20 f   * CIL library *:* CIL module *
 0001:00019e28       __unwindfunclet$?reduce@?$string_path@V?$basic_string@DU?$char_traits@D@std@@V?$allocator@D@2@@std@@U?$id_translator@V?$basic_string@DU?$char_traits@D@std@@V?$allocator@D@2@@std@@@property_tree@boost@@@property_tree@boost@@QAE?AV?$basic_string@DU?$char_traits@D@std@@V?$allocator@D@2@@std@@XZ$1 0041ae28 f   * CIL library *:* CIL module *
 0001:00019e30       __unwindfunclet$?reduce@?$string_path@V?$basic_string@DU?$char_traits@D@std@@V?$allocator@D@2@@std@@U?$id_translator@V?$basic_string@DU?$char_traits@D@std@@V?$allocator@D@2@@std@@@property_tree@boost@@@property_tree@boost@@QAE?AV?$basic_string@DU?$char_traits@D@std@@V?$allocator@D@2@@std@@XZ$3 0041ae30 f   * CIL library *:* CIL module *
 0001:00019e38       __unwindfunclet$?reduce@?$string_path@V?$basic_string@DU?$char_traits@D@std@@V?$allocator@D@2@@std@@U?$id_translator@V?$basic_string@DU?$char_traits@D@std@@V?$allocator@D@2@@std@@@property_tree@boost@@@property_tree@boost@@QAE?AV?$basic_string@DU?$char_traits@D@std@@V?$allocator@D@2@@std@@XZ$4 0041ae38 f   * CIL library *:* CIL module *
 0001:00019e40       __ehhandler$?reduce@?$string_path@V?$basic_string@DU?$char_traits@D@std@@V?$allocator@D@2@@std@@U?$id_translator@V?$basic_string@DU?$char_traits@D@std@@V?$allocator@D@2@@std@@@property_tree@boost@@@property_tree@boost@@QAE?AV?$basic_string@DU?$char_traits@D@std@@V?$allocator@D@2@@std@@XZ 0041ae40 f   * CIL library *:* CIL module *
 0001:00019e70       __unwindfunclet$?render@@YAXXZ$0 0041ae70 f   * CIL library *:* CIL module *
 0001:00019e7b       __unwindfunclet$?render@@YAXXZ$5 0041ae7b f   * CIL library *:* CIL module *
 0001:00019e86       __unwindfunclet$?render@@YAXXZ$56 0041ae86 f   * CIL library *:* CIL module *
 0001:00019ea9       __unwindfunclet$?render@@YAXXZ$57 0041aea9 f   * CIL library *:* CIL module *
 0001:00019eb5       __unwindfunclet$?render@@YAXXZ$59 0041aeb5 f   * CIL library *:* CIL module *
 0001:00019ec1       __unwindfunclet$?render@@YAXXZ$9 0041aec1 f   * CIL library *:* CIL module *
 0001:00019ecc       __unwindfunclet$?render@@YAXXZ$60 0041aecc f   * CIL library *:* CIL module *
 0001:00019eef       __unwindfunclet$?render@@YAXXZ$61 0041aeef f   * CIL library *:* CIL module *
 0001:00019efb       __unwindfunclet$?render@@YAXXZ$63 0041aefb f   * CIL library *:* CIL module *
 0001:00019f07       __unwindfunclet$?render@@YAXXZ$13 0041af07 f   * CIL library *:* CIL module *
 0001:00019f12       __unwindfunclet$?render@@YAXXZ$17 0041af12 f   * CIL library *:* CIL module *
 0001:00019f1d       __unwindfunclet$?render@@YAXXZ$21 0041af1d f   * CIL library *:* CIL module *
 0001:00019f28       __unwindfunclet$?render@@YAXXZ$24 0041af28 f   * CIL library *:* CIL module *
 0001:00019f33       __unwindfunclet$?render@@YAXXZ$28 0041af33 f   * CIL library *:* CIL module *
 0001:00019f3e       __unwindfunclet$?render@@YAXXZ$29 0041af3e f   * CIL library *:* CIL module *
 0001:00019f49       __unwindfunclet$?render@@YAXXZ$30 0041af49 f   * CIL library *:* CIL module *
 0001:00019f54       __unwindfunclet$?render@@YAXXZ$31 0041af54 f   * CIL library *:* CIL module *
 0001:00019f5f       __unwindfunclet$?render@@YAXXZ$32 0041af5f f   * CIL library *:* CIL module *
 0001:00019f6a       __unwindfunclet$?render@@YAXXZ$33 0041af6a f   * CIL library *:* CIL module *
 0001:00019f75       __unwindfunclet$?render@@YAXXZ$34 0041af75 f   * CIL library *:* CIL module *
 0001:00019f80       __unwindfunclet$?render@@YAXXZ$35 0041af80 f   * CIL library *:* CIL module *
 0001:00019f8b       __unwindfunclet$?render@@YAXXZ$36 0041af8b f   * CIL library *:* CIL module *
 0001:00019f96       __unwindfunclet$?render@@YAXXZ$37 0041af96 f   * CIL library *:* CIL module *
 0001:00019fa1       __unwindfunclet$?render@@YAXXZ$38 0041afa1 f   * CIL library *:* CIL module *
 0001:00019fac       __unwindfunclet$?render@@YAXXZ$39 0041afac f   * CIL library *:* CIL module *
 0001:00019fb7       __unwindfunclet$?render@@YAXXZ$40 0041afb7 f   * CIL library *:* CIL module *
 0001:00019fc2       __unwindfunclet$?render@@YAXXZ$41 0041afc2 f   * CIL library *:* CIL module *
 0001:00019fcd       __unwindfunclet$?render@@YAXXZ$42 0041afcd f   * CIL library *:* CIL module *
 0001:00019fd8       __unwindfunclet$?render@@YAXXZ$43 0041afd8 f   * CIL library *:* CIL module *
 0001:00019fe3       __unwindfunclet$?render@@YAXXZ$44 0041afe3 f   * CIL library *:* CIL module *
 0001:00019fee       __unwindfunclet$?render@@YAXXZ$45 0041afee f   * CIL library *:* CIL module *
 0001:00019ff6       __unwindfunclet$?render@@YAXXZ$46 0041aff6 f   * CIL library *:* CIL module *
 0001:0001a001       __unwindfunclet$?render@@YAXXZ$47 0041b001 f   * CIL library *:* CIL module *
 0001:0001a00c       __unwindfunclet$?render@@YAXXZ$48 0041b00c f   * CIL library *:* CIL module *
 0001:0001a014       __unwindfunclet$?render@@YAXXZ$49 0041b014 f   * CIL library *:* CIL module *
 0001:0001a01c       __unwindfunclet$?render@@YAXXZ$50 0041b01c f   * CIL library *:* CIL module *
 0001:0001a027       __unwindfunclet$?render@@YAXXZ$51 0041b027 f   * CIL library *:* CIL module *
 0001:0001a02f       __unwindfunclet$?render@@YAXXZ$52 0041b02f f   * CIL library *:* CIL module *
 0001:0001a03a       __unwindfunclet$?render@@YAXXZ$53 0041b03a f   * CIL library *:* CIL module *
 0001:0001a045       __unwindfunclet$?render@@YAXXZ$54 0041b045 f   * CIL library *:* CIL module *
 0001:0001a050       __ehhandler$?render@@YAXXZ 0041b050 f   * CIL library *:* CIL module *
 0001:0001a080       __unwindfunclet$?rethrow@?$clone_impl@U?$error_info_injector@Vptree_bad_path@property_tree@boost@@@exception_detail@boost@@@exception_detail@boost@@EBEXXZ$0 0041b080 f   * CIL library *:* CIL module *
 0001:0001a099       __ehhandler$?rethrow@?$clone_impl@U?$error_info_injector@Vptree_bad_path@property_tree@boost@@@exception_detail@boost@@@exception_detail@boost@@EBEXXZ 0041b099 f   * CIL library *:* CIL module *
 0001:0001a0c0       __unwindfunclet$?walk_path@?$basic_ptree@V?$basic_string@DU?$char_traits@D@std@@V?$allocator@D@2@@std@@V12@U?$less@V?$basic_string@DU?$char_traits@D@std@@V?$allocator@D@2@@std@@@2@@property_tree@boost@@ABEPAV123@AAV?$string_path@V?$basic_string@DU?$char_traits@D@std@@V?$allocator@D@2@@std@@U?$id_translator@V?$basic_string@DU?$char_traits@D@std@@V?$allocator@D@2@@std@@@property_tree@boost@@@23@@Z$0 0041b0c0 f   * CIL library *:* CIL module *
 0001:0001a0c8       __ehhandler$?walk_path@?$basic_ptree@V?$basic_string@DU?$char_traits@D@std@@V?$allocator@D@2@@std@@V12@U?$less@V?$basic_string@DU?$char_traits@D@std@@V?$allocator@D@2@@std@@@2@@property_tree@boost@@ABEPAV123@AAV?$string_path@V?$basic_string@DU?$char_traits@D@std@@V?$allocator@D@2@@std@@U?$id_translator@V?$basic_string@DU?$char_traits@D@std@@V?$allocator@D@2@@std@@@property_tree@boost@@@23@@Z 0041b0c8 f   * CIL library *:* CIL module *
 0001:0001a0f0       __unwindfunclet$?window_proc_hook@@YGJPAUHWND__@@IIJ@Z$1 0041b0f0 f   * CIL library *:* CIL module *
 0001:0001a0f8       __unwindfunclet$?window_proc_hook@@YGJPAUHWND__@@IIJ@Z$2 0041b0f8 f   * CIL library *:* CIL module *
 0001:0001a103       __unwindfunclet$?window_proc_hook@@YGJPAUHWND__@@IIJ@Z$5 0041b103 f   * CIL library *:* CIL module *
 0001:0001a10e       __unwindfunclet$?window_proc_hook@@YGJPAUHWND__@@IIJ@Z$7 0041b10e f   * CIL library *:* CIL module *
 0001:0001a119       __ehhandler$?window_proc_hook@@YGJPAUHWND__@@IIJ@Z 0041b119 f   * CIL library *:* CIL module *
 0001:0001a150       __unwindfunclet$_main$0    0041b150 f   * CIL library *:* CIL module *
 0001:0001a158       __unwindfunclet$_main$2    0041b158 f   * CIL library *:* CIL module *
 0001:0001a160       __ehhandler$_main          0041b160 f   * CIL library *:* CIL module *
 0001:0001a180       ??__Eini_file@@YAXXZ       0041b180 f   * CIL library *:* CIL module *
 0001:0001a1a0       ??__Ezones_file@@YAXXZ     0041b1a0 f   * CIL library *:* CIL module *
 0001:0001a1c0       ??__Ezones_search@@YAXXZ   0041b1c0 f   * CIL library *:* CIL module *
 0001:0001a1e0       ??__Emap_folder@@YAXXZ     0041b1e0 f   * CIL library *:* CIL module *
 0001:0001a200       ??__Emap_zone_name@@YAXXZ  0041b200 f   * CIL library *:* CIL module *
 0001:0001a220       ??__Emap_origin_x@@YAXXZ   0041b220 f   * CIL library *:* CIL module *
 0001:0001a240       ??__Emap_origin_y@@YAXXZ   0041b240 f   * CIL library *:* CIL module *
 0001:0001a260       ??__Emap_lines@@YAXXZ      0041b260 f   * CIL library *:* CIL module *
 0001:0001a270       ??__Emap_points@@YAXXZ     0041b270 f   * CIL library *:* CIL module *
 0001:0001a280       ??__Ezone_infos@@YAXXZ     0041b280 f   * CIL library *:* CIL module *
 0001:0001a290       ??__Ezone_info_group@@YAXXZ 0041b290 f   * CIL library *:* CIL module *
 0001:0001a2b0       ??__E?_Generic_object@?$_Error_objects@H@std@@2V_Generic_error_category@2@A@@YAXXZ 0041b2b0 f   * CIL library *:* CIL module *
 0001:0001a2c0       ??__E?_Iostream_object@?$_Error_objects@H@std@@2V_Iostream_error_category@2@A@@YAXXZ 0041b2c0 f   * CIL library *:* CIL module *
 0001:0001a2d0       ??__E?_System_object@?$_Error_objects@H@std@@2V_System_error_category@2@A@@YAXXZ 0041b2d0 f   * CIL library *:* CIL module *
 0001:0001a2e0       ??__E?id@?$num_put@DV?$back_insert_iterator@V?$basic_string@DU?$char_traits@D@std@@V?$allocator@D@2@@std@@@std@@@std@@2V0locale@2@A@@YAXXZ 0041b2e0 f   * CIL library *:* CIL module *
 0001:0001a2f0       ??__E?id@?$num_put@_WV?$back_insert_iterator@V?$basic_string@_WU?$char_traits@_W@std@@V?$allocator@_W@2@@std@@@std@@@std@@2V0locale@2@A@@YAXXZ 0041b2f0 f   * CIL library *:* CIL module *
 0001:0001a2fb       ??__E_Fac_tidy_reg@std@@YAXXZ 0041b2fb f   msvcprt:locale0_implib.obj
 0001:0001a310       ??__Fini_file@@YAXXZ       0041b310 f   * CIL library *:* CIL module *
 0001:0001a370       ??__Fzones_file@@YAXXZ     0041b370 f   * CIL library *:* CIL module *
 0001:0001a3d0       ??__Fzones_search@@YAXXZ   0041b3d0 f   * CIL library *:* CIL module *
 0001:0001a430       ??__Fmap_folder@@YAXXZ     0041b430 f   * CIL library *:* CIL module *
 0001:0001a490       ??__Fmap_zone_name@@YAXXZ  0041b490 f   * CIL library *:* CIL module *
 0001:0001a4f0       ??__Fmap_lines@@YAXXZ      0041b4f0 f   * CIL library *:* CIL module *
 0001:0001a540       ??__Fmap_points@@YAXXZ     0041b540 f   * CIL library *:* CIL module *
 0001:0001a5b0       ??__Fzone_infos@@YAXXZ     0041b5b0 f   * CIL library *:* CIL module *
 0001:0001a620       ??__Fzone_info_group@@YAXXZ 0041b620 f   * CIL library *:* CIL module *
 0001:0001a680       ??__F?_System_object@?$_Error_objects@H@std@@2V_System_error_category@2@A@@YAXXZ 0041b680 f   * CIL library *:* CIL module *
 0001:0001a690       ??__F?_Iostream_object@?$_Error_objects@H@std@@2V_Iostream_error_category@2@A@@YAXXZ 0041b690 f   * CIL library *:* CIL module *
 0001:0001a6a0       ??__F?_Generic_object@?$_Error_objects@H@std@@2V_Generic_error_category@2@A@@YAXXZ 0041b6a0 f   * CIL library *:* CIL module *
 0001:0001a6ab       ??__F_Fac_tidy_reg@std@@YAXXZ 0041b6ab f   msvcprt:locale0_implib.obj
 0002:000003bc       _pcppinit                  0041c3bc     MSVCRT:crtexe.obj
 0002:000003c0       __Fac_tidy_reg$initializer$ 0041c3c0     msvcprt:locale0_implib.obj
 0002:000003c4       _ini_file$initializer$     0041c3c4     * CIL library *:* CIL module *
 0002:000003c8       _zones_file$initializer$   0041c3c8     * CIL library *:* CIL module *
 0002:000003cc       _zones_search$initializer$ 0041c3cc     * CIL library *:* CIL module *
 0002:000003d0       _map_folder$initializer$   0041c3d0     * CIL library *:* CIL module *
 0002:000003d4       _map_zone_name$initializer$ 0041c3d4     * CIL library *:* CIL module *
 0002:000003d8       _map_origin_x$initializer$ 0041c3d8     * CIL library *:* CIL module *
 0002:000003dc       _map_origin_y$initializer$ 0041c3dc     * CIL library *:* CIL module *
 0002:000003e0       _map_lines$initializer$    0041c3e0     * CIL library *:* CIL module *
 0002:000003e4       _map_points$initializer$   0041c3e4     * CIL library *:* CIL module *
 0002:000003e8       _zone_infos$initializer$   0041c3e8     * CIL library *:* CIL module *
 0002:000003ec       _zone_info_group$initializer$ 0041c3ec     * CIL library *:* CIL module *
 0002:000003f0       ?_Generic_object$initializer$@?$_Error_objects@H@std@@2P6AXXZA 0041c3f0     * CIL library *:* CIL module *
 0002:000003f4       ?_Iostream_object$initializer$@?$_Error_objects@H@std@@2P6AXXZA 0041c3f4     * CIL library *:* CIL module *
 0002:000003f8       ?_System_object$initializer$@?$_Error_objects@H@std@@2P6AXXZA 0041c3f8     * CIL library *:* CIL module *
 0002:000003fc       ?id$initializer$@?$num_put@DV?$back_insert_iterator@V?$basic_string@DU?$char_traits@D@std@@V?$allocator@D@2@@std@@@std@@@std@@2P6AXXZA 0041c3fc     * CIL library *:* CIL module *
 0002:00000400       ?id$initializer$@?$num_put@_WV?$back_insert_iterator@V?$basic_string@_WU?$char_traits@_W@std@@V?$allocator@_W@2@@std@@@std@@@std@@2P6AXXZA 0041c400     * CIL library *:* CIL module *
 0002:0000040c       _pcinit                    0041c40c     MSVCRT:crtexe.obj
 0002:00000410       _pinit                     0041c410     MSVCRT:atonexit.obj
 0002:00000414       _pinit                     0041c414     MSVCRT:crtexe.obj
 0002:00000460       _GS_ExceptionPointers      0041c460     MSVCRT:gs_report.obj
 0002:00002b50       _MAP_ZOOM_MIN              0041eb50     * CIL library *:* CIL module *
 0002:00002b54       _MAP_ZOOM_DEFAULT          0041eb54     * CIL library *:* CIL module *
 0002:00003f80       __sehtable$___tmainCRTStartup 0041ff80     MSVCRT:crtexe.obj
 0002:00003fa0       __sehtable$__onexit        0041ffa0     MSVCRT:atonexit.obj
 0002:00003fc0       __sehtable$__IsNonwritableInCurrentImage 0041ffc0     MSVCRT:pesect.obj
 0002:00003fe0       __sehtable$??_M@YGXPAXIHP6EX0@Z@Z 0041ffe0     MSVCRT:ehvecdtr.obj
 0002:00004000       __sehtable$?__ArrayUnwind@@YGXPAXIHP6EX0@Z@Z 00420000     MSVCRT:ehvecdtr.obj
